__ZNSt3__18ios_base4InitC2Ev
__ZNSt3__115basic_streambufIcNS_11char_traitsIcEEEC2Ev
__ZNSt3__16localeC1Ev
__ZNSt3__16locale8__globalEv
___cxa_guard_acquire
__ZNSt3__16locale5__impC2Em
__ZNSt3__111__call_onceERVmPvPFvS2_E
__ZNSt3__117__call_once_proxyINS_5tupleIJONS_12_GLOBAL__N_111__fake_bindEEEEEEvPv
__ZNSt3__16locale2id6__initEv
__ZNSt3__16vectorIPNS_6locale5facetENS_15__sso_allocatorIS3_Lm28EEEE8__appendEm
___cxa_guard_release
__ZNSt3__16localeC1ERKS0_
__ZNSt3__110__stdinbufIcE5imbueERKNS_6localeE
__ZNKSt3__16locale9use_facetERNS0_2idE
__ZNKSt3__17codecvtIcc11__mbstate_tE11do_encodingEv
__ZNKSt3__17codecvtIcc11__mbstate_tE16do_always_noconvEv
__ZNSt3__16localeD1Ev
__ZNSt3__18ios_base4initEPv
__ZNSt3__115basic_streambufIwNS_11char_traitsIwEEEC2Ev
__ZNSt3__110__stdinbufIwE5imbueERKNS_6localeE
__ZNKSt3__17codecvtIwc11__mbstate_tE11do_encodingEv
__ZNKSt3__17codecvtIwc11__mbstate_tE16do_always_noconvEv
__ZNSt3__111__stdoutbufIcEC2EP7__sFILEP11__mbstate_t
__ZNSt3__111__stdoutbufIwEC2EP7__sFILEP11__mbstate_t
_uv_mutex_init
__Znwm
__ZN4node5http212Http2Session9CallbacksC2Eb
_nghttp2_session_callbacks_new
_nghttp2_session_callbacks_set_on_begin_headers_callback
_nghttp2_session_callbacks_set_on_header_callback2
_nghttp2_session_callbacks_set_on_frame_recv_callback
_nghttp2_session_callbacks_set_on_stream_close_callback
_nghttp2_session_callbacks_set_on_data_chunk_recv_callback
_nghttp2_session_callbacks_set_on_frame_not_send_callback
_nghttp2_session_callbacks_set_on_invalid_header_callback2
_nghttp2_session_callbacks_set_error_callback
_nghttp2_session_callbacks_set_send_data_callback
_nghttp2_session_callbacks_set_on_invalid_frame_recv_callback
_nghttp2_session_callbacks_set_on_frame_send_callback
_nghttp2_session_callbacks_set_select_padding_callback
__ZN4node8Metadata8VersionsC2Ev
__ZNSt3__112basic_stringIcNS_11char_traitsIcEENS_9allocatorIcEEE6assignEPKc
__ZNSt3__112basic_stringIcNS_11char_traitsIcEENS_9allocatorIcEEE6assignEPKcm
__ZN2v82V810GetVersionEv
_uv_version_string
_BrotliEncoderVersion
__ZNSt3__19to_stringEj
__ZNSt3__112basic_stringIcNS_11char_traitsIcEENS_9allocatorIcEEE6appendEmc
__ZNSt3__112basic_stringIcNS_11char_traitsIcEENS_9allocatorIcEEE6appendEPKc
__ZNSt3__112basic_stringIcNS_11char_traitsIcEENS_9allocatorIcEEE6appendEPKcm
__ZN4node17GetOpenSSLVersionEv
__ZN4node13native_module18NativeModuleLoader9GetConfigEv
__ZN4node13native_module18NativeModuleLoader20LoadJavaScriptSourceEv
__ZNSt3__16__treeINS_12__value_typeINS_12basic_stringIcNS_11char_traitsIcEENS_9allocatorIcEEEEN4node10UnionBytesEEENS_19__map_value_compareIS7_SA_NS_4lessIS7_EELb1EEENS5_ISA_EEE21__emplace_unique_implIJRA31_KcS9_EEENS_4pairINS_15__tree_iteratorISA_PNS_11__tree_nodeISA_PvEElEEbEEDpOT_
__ZNSt3__16__treeINS_12__value_typeINS_12basic_stringIcNS_11char_traitsIcEENS_9allocatorIcEEEEN4node10UnionBytesEEENS_19__map_value_compareIS7_SA_NS_4lessIS7_EELb1EEENS5_ISA_EEE12__find_equalISA_EERPNS_16__tree_node_baseIPvEERPNS_15__tree_end_nodeISL_EERKT_
__ZNSt3__127__tree_balance_after_insertIPNS_16__tree_node_baseIPvEEEEvT_S5_
__ZNSt3__16__treeINS_12__value_typeINS_12basic_stringIcNS_11char_traitsIcEENS_9allocatorIcEEEEN4node10UnionBytesEEENS_19__map_value_compareIS7_SA_NS_4lessIS7_EELb1EEENS5_ISA_EEE21__emplace_unique_implIJRA27_KcS9_EEENS_4pairINS_15__tree_iteratorISA_PNS_11__tree_nodeISA_PvEElEEbEEDpOT_
__ZNSt3__16__treeINS_12__value_typeINS_12basic_stringIcNS_11char_traitsIcEENS_9allocatorIcEEEEN4node10UnionBytesEEENS_19__map_value_compareIS7_SA_NS_4lessIS7_EELb1EEENS5_ISA_EEE21__emplace_unique_implIJRA24_KcS9_EEENS_4pairINS_15__tree_iteratorISA_PNS_11__tree_nodeISA_PvEElEEbEEDpOT_
__ZNSt3__16__treeINS_12__value_typeINS_12basic_stringIcNS_11char_traitsIcEENS_9allocatorIcEEEEN4node10UnionBytesEEENS_19__map_value_compareIS7_SA_NS_4lessIS7_EELb1EEENS5_ISA_EEE21__emplace_unique_implIJRA33_KcS9_EEENS_4pairINS_15__tree_iteratorISA_PNS_11__tree_nodeISA_PvEElEEbEEDpOT_
__ZNSt3__16__treeINS_12__value_typeINS_12basic_stringIcNS_11char_traitsIcEENS_9allocatorIcEEEEN4node10UnionBytesEEENS_19__map_value_compareIS7_SA_NS_4lessIS7_EELb1EEENS5_ISA_EEE21__emplace_unique_implIJRA34_KcS9_EEENS_4pairINS_15__tree_iteratorISA_PNS_11__tree_nodeISA_PvEElEEbEEDpOT_
__ZNSt3__16__treeINS_12__value_typeINS_12basic_stringIcNS_11char_traitsIcEENS_9allocatorIcEEEEN4node10UnionBytesEEENS_19__map_value_compareIS7_SA_NS_4lessIS7_EELb1EEENS5_ISA_EEE21__emplace_unique_implIJRA12_KcS9_EEENS_4pairINS_15__tree_iteratorISA_PNS_11__tree_nodeISA_PvEElEEbEEDpOT_
__ZNSt3__16__treeINS_12__value_typeINS_12basic_stringIcNS_11char_traitsIcEENS_9allocatorIcEEEEN4node10UnionBytesEEENS_19__map_value_compareIS7_SA_NS_4lessIS7_EELb1EEENS5_ISA_EEE21__emplace_unique_implIJRA7_KcS9_EEENS_4pairINS_15__tree_iteratorISA_PNS_11__tree_nodeISA_PvEElEEbEEDpOT_
__ZNSt3__16__treeINS_12__value_typeINS_12basic_stringIcNS_11char_traitsIcEENS_9allocatorIcEEEEN4node10UnionBytesEEENS_19__map_value_compareIS7_SA_NS_4lessIS7_EELb1EEENS5_ISA_EEE21__emplace_unique_implIJRA14_KcS9_EEENS_4pairINS_15__tree_iteratorISA_PNS_11__tree_nodeISA_PvEElEEbEEDpOT_
__ZNSt3__16__treeINS_12__value_typeINS_12basic_stringIcNS_11char_traitsIcEENS_9allocatorIcEEEEN4node10UnionBytesEEENS_19__map_value_compareIS7_SA_NS_4lessIS7_EELb1EEENS5_ISA_EEE21__emplace_unique_implIJRA8_KcS9_EEENS_4pairINS_15__tree_iteratorISA_PNS_11__tree_nodeISA_PvEElEEbEEDpOT_
__ZNSt3__16__treeINS_12__value_typeINS_12basic_stringIcNS_11char_traitsIcEENS_9allocatorIcEEEEN4node10UnionBytesEEENS_19__map_value_compareIS7_SA_NS_4lessIS7_EELb1EEENS5_ISA_EEE21__emplace_unique_implIJRA10_KcS9_EEENS_4pairINS_15__tree_iteratorISA_PNS_11__tree_nodeISA_PvEElEEbEEDpOT_
__ZNSt3__16__treeINS_12__value_typeINS_12basic_stringIcNS_11char_traitsIcEENS_9allocatorIcEEEEN4node10UnionBytesEEENS_19__map_value_compareIS7_SA_NS_4lessIS7_EELb1EEENS5_ISA_EEE21__emplace_unique_implIJRA6_KcS9_EEENS_4pairINS_15__tree_iteratorISA_PNS_11__tree_nodeISA_PvEElEEbEEDpOT_
__ZNSt3__16__treeINS_12__value_typeINS_12basic_stringIcNS_11char_traitsIcEENS_9allocatorIcEEEEN4node10UnionBytesEEENS_19__map_value_compareIS7_SA_NS_4lessIS7_EELb1EEENS5_ISA_EEE21__emplace_unique_implIJRA4_KcS9_EEENS_4pairINS_15__tree_iteratorISA_PNS_11__tree_nodeISA_PvEElEEbEEDpOT_
__ZNSt3__16__treeINS_12__value_typeINS_12basic_stringIcNS_11char_traitsIcEENS_9allocatorIcEEEEN4node10UnionBytesEEENS_19__map_value_compareIS7_SA_NS_4lessIS7_EELb1EEENS5_ISA_EEE21__emplace_unique_implIJRA3_KcS9_EEENS_4pairINS_15__tree_iteratorISA_PNS_11__tree_nodeISA_PvEElEEbEEDpOT_
__ZNSt3__16__treeINS_12__value_typeINS_12basic_stringIcNS_11char_traitsIcEENS_9allocatorIcEEEEN4node10UnionBytesEEENS_19__map_value_compareIS7_SA_NS_4lessIS7_EELb1EEENS5_ISA_EEE21__emplace_unique_implIJRA5_KcS9_EEENS_4pairINS_15__tree_iteratorISA_PNS_11__tree_nodeISA_PvEElEEbEEDpOT_
__ZNSt3__16__treeINS_12__value_typeINS_12basic_stringIcNS_11char_traitsIcEENS_9allocatorIcEEEEN4node10UnionBytesEEENS_19__map_value_compareIS7_SA_NS_4lessIS7_EELb1EEENS5_ISA_EEE21__emplace_unique_implIJRA13_KcS9_EEENS_4pairINS_15__tree_iteratorISA_PNS_11__tree_nodeISA_PvEElEEbEEDpOT_
__ZNSt3__16__treeINS_12__value_typeINS_12basic_stringIcNS_11char_traitsIcEENS_9allocatorIcEEEEN4node10UnionBytesEEENS_19__map_value_compareIS7_SA_NS_4lessIS7_EELb1EEENS5_ISA_EEE21__emplace_unique_implIJRA15_KcS9_EEENS_4pairINS_15__tree_iteratorISA_PNS_11__tree_nodeISA_PvEElEEbEEDpOT_
__ZNSt3__16__treeINS_12__value_typeINS_12basic_stringIcNS_11char_traitsIcEENS_9allocatorIcEEEEN4node10UnionBytesEEENS_19__map_value_compareIS7_SA_NS_4lessIS7_EELb1EEENS5_ISA_EEE21__emplace_unique_implIJRA11_KcS9_EEENS_4pairINS_15__tree_iteratorISA_PNS_11__tree_nodeISA_PvEElEEbEEDpOT_
__ZNSt3__16__treeINS_12__value_typeINS_12basic_stringIcNS_11char_traitsIcEENS_9allocatorIcEEEEN4node10UnionBytesEEENS_19__map_value_compareIS7_SA_NS_4lessIS7_EELb1EEENS5_ISA_EEE21__emplace_unique_implIJRA9_KcS9_EEENS_4pairINS_15__tree_iteratorISA_PNS_11__tree_nodeISA_PvEElEEbEEDpOT_
__ZNSt3__16__treeINS_12__value_typeINS_12basic_stringIcNS_11char_traitsIcEENS_9allocatorIcEEEEN4node10UnionBytesEEENS_19__map_value_compareIS7_SA_NS_4lessIS7_EELb1EEENS5_ISA_EEE21__emplace_unique_implIJRA17_KcS9_EEENS_4pairINS_15__tree_iteratorISA_PNS_11__tree_nodeISA_PvEElEEbEEDpOT_
__ZNSt3__16__treeINS_12__value_typeINS_12basic_stringIcNS_11char_traitsIcEENS_9allocatorIcEEEEN4node10UnionBytesEEENS_19__map_value_compareIS7_SA_NS_4lessIS7_EELb1EEENS5_ISA_EEE21__emplace_unique_implIJRA18_KcS9_EEENS_4pairINS_15__tree_iteratorISA_PNS_11__tree_nodeISA_PvEElEEbEEDpOT_
__ZNSt3__16__treeINS_12__value_typeINS_12basic_stringIcNS_11char_traitsIcEENS_9allocatorIcEEEEN4node10UnionBytesEEENS_19__map_value_compareIS7_SA_NS_4lessIS7_EELb1EEENS5_ISA_EEE21__emplace_unique_implIJRA20_KcS9_EEENS_4pairINS_15__tree_iteratorISA_PNS_11__tree_nodeISA_PvEElEEbEEDpOT_
__ZNSt3__16__treeINS_12__value_typeINS_12basic_stringIcNS_11char_traitsIcEENS_9allocatorIcEEEEN4node10UnionBytesEEENS_19__map_value_compareIS7_SA_NS_4lessIS7_EELb1EEENS5_ISA_EEE21__emplace_unique_implIJRA16_KcS9_EEENS_4pairINS_15__tree_iteratorISA_PNS_11__tree_nodeISA_PvEElEEbEEDpOT_
__ZNSt3__16__treeINS_12__value_typeINS_12basic_stringIcNS_11char_traitsIcEENS_9allocatorIcEEEEN4node10UnionBytesEEENS_19__map_value_compareIS7_SA_NS_4lessIS7_EELb1EEENS5_ISA_EEE21__emplace_unique_implIJRA32_KcS9_EEENS_4pairINS_15__tree_iteratorISA_PNS_11__tree_nodeISA_PvEElEEbEEDpOT_
__ZNSt3__16__treeINS_12__value_typeINS_12basic_stringIcNS_11char_traitsIcEENS_9allocatorIcEEEEN4node10UnionBytesEEENS_19__map_value_compareIS7_SA_NS_4lessIS7_EELb1EEENS5_ISA_EEE21__emplace_unique_implIJRA21_KcS9_EEENS_4pairINS_15__tree_iteratorISA_PNS_11__tree_nodeISA_PvEElEEbEEDpOT_
__ZNSt3__16__treeINS_12__value_typeINS_12basic_stringIcNS_11char_traitsIcEENS_9allocatorIcEEEEN4node10UnionBytesEEENS_19__map_value_compareIS7_SA_NS_4lessIS7_EELb1EEENS5_ISA_EEE21__emplace_unique_implIJRA19_KcS9_EEENS_4pairINS_15__tree_iteratorISA_PNS_11__tree_nodeISA_PvEElEEbEEDpOT_
__ZNSt3__16__treeINS_12__value_typeINS_12basic_stringIcNS_11char_traitsIcEENS_9allocatorIcEEEEN4node10UnionBytesEEENS_19__map_value_compareIS7_SA_NS_4lessIS7_EELb1EEENS5_ISA_EEE21__emplace_unique_implIJRA23_KcS9_EEENS_4pairINS_15__tree_iteratorISA_PNS_11__tree_nodeISA_PvEElEEbEEDpOT_
__ZNSt3__16__treeINS_12__value_typeINS_12basic_stringIcNS_11char_traitsIcEENS_9allocatorIcEEEEN4node10UnionBytesEEENS_19__map_value_compareIS7_SA_NS_4lessIS7_EELb1EEENS5_ISA_EEE21__emplace_unique_implIJRA36_KcS9_EEENS_4pairINS_15__tree_iteratorISA_PNS_11__tree_nodeISA_PvEElEEbEEDpOT_
__ZNSt3__16__treeINS_12__value_typeINS_12basic_stringIcNS_11char_traitsIcEENS_9allocatorIcEEEEN4node10UnionBytesEEENS_19__map_value_compareIS7_SA_NS_4lessIS7_EELb1EEENS5_ISA_EEE21__emplace_unique_implIJRA29_KcS9_EEENS_4pairINS_15__tree_iteratorISA_PNS_11__tree_nodeISA_PvEElEEbEEDpOT_
__ZNSt3__16__treeINS_12__value_typeINS_12basic_stringIcNS_11char_traitsIcEENS_9allocatorIcEEEEN4node10UnionBytesEEENS_19__map_value_compareIS7_SA_NS_4lessIS7_EELb1EEENS5_ISA_EEE21__emplace_unique_implIJRA28_KcS9_EEENS_4pairINS_15__tree_iteratorISA_PNS_11__tree_nodeISA_PvEElEEbEEDpOT_
__ZNSt3__16__treeINS_12__value_typeINS_12basic_stringIcNS_11char_traitsIcEENS_9allocatorIcEEEEN4node10UnionBytesEEENS_19__map_value_compareIS7_SA_NS_4lessIS7_EELb1EEENS5_ISA_EEE21__emplace_unique_implIJRA30_KcS9_EEENS_4pairINS_15__tree_iteratorISA_PNS_11__tree_nodeISA_PvEElEEbEEDpOT_
__ZNSt3__16__treeINS_12__value_typeINS_12basic_stringIcNS_11char_traitsIcEENS_9allocatorIcEEEEN4node10UnionBytesEEENS_19__map_value_compareIS7_SA_NS_4lessIS7_EELb1EEENS5_ISA_EEE21__emplace_unique_implIJRA22_KcS9_EEENS_4pairINS_15__tree_iteratorISA_PNS_11__tree_nodeISA_PvEElEEbEEDpOT_
__ZNSt3__16__treeINS_12__value_typeINS_12basic_stringIcNS_11char_traitsIcEENS_9allocatorIcEEEEN4node10UnionBytesEEENS_19__map_value_compareIS7_SA_NS_4lessIS7_EELb1EEENS5_ISA_EEE21__emplace_unique_implIJRA26_KcS9_EEENS_4pairINS_15__tree_iteratorISA_PNS_11__tree_nodeISA_PvEElEEbEEDpOT_
__ZNSt3__16__treeINS_12__value_typeINS_12basic_stringIcNS_11char_traitsIcEENS_9allocatorIcEEEEN4node10UnionBytesEEENS_19__map_value_compareIS7_SA_NS_4lessIS7_EELb1EEENS5_ISA_EEE21__emplace_unique_implIJRA25_KcS9_EEENS_4pairINS_15__tree_iteratorISA_PNS_11__tree_nodeISA_PvEElEEbEEDpOT_
__ZNSt3__16__treeINS_12__value_typeINS_12basic_stringIcNS_11char_traitsIcEENS_9allocatorIcEEEEN4node10UnionBytesEEENS_19__map_value_compareIS7_SA_NS_4lessIS7_EELb1EEENS5_ISA_EEE21__emplace_unique_implIJRA35_KcS9_EEENS_4pairINS_15__tree_iteratorISA_PNS_11__tree_nodeISA_PvEElEEbEEDpOT_
__ZNSt3__16__treeINS_12__value_typeINS_12basic_stringIcNS_11char_traitsIcEENS_9allocatorIcEEEEN4node10UnionBytesEEENS_19__map_value_compareIS7_SA_NS_4lessIS7_EELb1EEENS5_ISA_EEE21__emplace_unique_implIJRA43_KcS9_EEENS_4pairINS_15__tree_iteratorISA_PNS_11__tree_nodeISA_PvEElEEbEEDpOT_
__ZNSt3__16__treeINS_12__value_typeINS_12basic_stringIcNS_11char_traitsIcEENS_9allocatorIcEEEEN4node10UnionBytesEEENS_19__map_value_compareIS7_SA_NS_4lessIS7_EELb1EEENS5_ISA_EEE21__emplace_unique_implIJRA37_KcS9_EEENS_4pairINS_15__tree_iteratorISA_PNS_11__tree_nodeISA_PvEElEEbEEDpOT_
__ZNSt3__16__treeINS_12__value_typeINS_12basic_stringIcNS_11char_traitsIcEENS_9allocatorIcEEEEN4node10UnionBytesEEENS_19__map_value_compareIS7_SA_NS_4lessIS7_EELb1EEENS5_ISA_EEE21__emplace_unique_implIJRA44_KcS9_EEENS_4pairINS_15__tree_iteratorISA_PNS_11__tree_nodeISA_PvEElEEbEEDpOT_
__ZNSt3__16__treeINS_12__value_typeINS_12basic_stringIcNS_11char_traitsIcEENS_9allocatorIcEEEEN4node10UnionBytesEEENS_19__map_value_compareIS7_SA_NS_4lessIS7_EELb1EEENS5_ISA_EEE21__emplace_unique_implIJRA40_KcS9_EEENS_4pairINS_15__tree_iteratorISA_PNS_11__tree_nodeISA_PvEElEEbEEDpOT_
__ZNSt3__16__treeINS_12__value_typeINS_12basic_stringIcNS_11char_traitsIcEENS_9allocatorIcEEEEN4node10UnionBytesEEENS_19__map_value_compareIS7_SA_NS_4lessIS7_EELb1EEENS5_ISA_EEE21__emplace_unique_implIJRA55_KcS9_EEENS_4pairINS_15__tree_iteratorISA_PNS_11__tree_nodeISA_PvEElEEbEEDpOT_
__ZNSt3__16__treeINS_12__value_typeINS_12basic_stringIcNS_11char_traitsIcEENS_9allocatorIcEEEEN4node10UnionBytesEEENS_19__map_value_compareIS7_SA_NS_4lessIS7_EELb1EEENS5_ISA_EEE21__emplace_unique_implIJRA53_KcS9_EEENS_4pairINS_15__tree_iteratorISA_PNS_11__tree_nodeISA_PvEElEEbEEDpOT_
__ZNSt3__16__treeINS_12__value_typeINS_12basic_stringIcNS_11char_traitsIcEENS_9allocatorIcEEEEN4node10UnionBytesEEENS_19__map_value_compareIS7_SA_NS_4lessIS7_EELb1EEENS5_ISA_EEE21__emplace_unique_implIJRA41_KcS9_EEENS_4pairINS_15__tree_iteratorISA_PNS_11__tree_nodeISA_PvEElEEbEEDpOT_
__ZNSt3__16__treeINS_12__value_typeINS_12basic_stringIcNS_11char_traitsIcEENS_9allocatorIcEEEEN4node10UnionBytesEEENS_19__map_value_compareIS7_SA_NS_4lessIS7_EELb1EEENS5_ISA_EEE21__emplace_unique_implIJRA58_KcS9_EEENS_4pairINS_15__tree_iteratorISA_PNS_11__tree_nodeISA_PvEElEEbEEDpOT_
__ZNSt3__16__treeINS_12__value_typeINS_12basic_stringIcNS_11char_traitsIcEENS_9allocatorIcEEEEN4node10UnionBytesEEENS_19__map_value_compareIS7_SA_NS_4lessIS7_EELb1EEENS5_ISA_EEE21__emplace_unique_implIJRA63_KcS9_EEENS_4pairINS_15__tree_iteratorISA_PNS_11__tree_nodeISA_PvEElEEbEEDpOT_
__ZNSt3__16__treeINS_12__value_typeINS_12basic_stringIcNS_11char_traitsIcEENS_9allocatorIcEEEEN4node10UnionBytesEEENS_19__map_value_compareIS7_SA_NS_4lessIS7_EELb1EEENS5_ISA_EEE21__emplace_unique_implIJRA56_KcS9_EEENS_4pairINS_15__tree_iteratorISA_PNS_11__tree_nodeISA_PvEElEEbEEDpOT_
__ZNSt3__16__treeINS_12__value_typeINS_12basic_stringIcNS_11char_traitsIcEENS_9allocatorIcEEEEN4node10UnionBytesEEENS_19__map_value_compareIS7_SA_NS_4lessIS7_EELb1EEENS5_ISA_EEE21__emplace_unique_implIJRA62_KcS9_EEENS_4pairINS_15__tree_iteratorISA_PNS_11__tree_nodeISA_PvEElEEbEEDpOT_
__ZN4node13native_module18NativeModuleLoader28LoadEmbedderJavaScriptSourceEv
__ZN4node17PerIsolateOptionsC2Ev
__ZNSt3__112basic_stringIcNS_11char_traitsIcEENS_9allocatorIcEEEC1ERKS5_
__ZN4node14options_parser18DebugOptionsParserC2Ev
__ZN4node14options_parser13OptionsParserINS_12DebugOptionsEE9AddOptionEPKcS5_MS2_NS_8HostPortENS0_20OptionEnvvarSettingsE
__ZNSt3__112__hash_tableINS_17__hash_value_typeINS_12basic_stringIcNS_11char_traitsIcEENS_9allocatorIcEEEEN4node14options_parser13OptionsParserINS8_12DebugOptionsEE10OptionInfoEEENS_22__unordered_map_hasherIS7_SE_NS_4hashIS7_EELb1EEENS_21__unordered_map_equalIS7_SE_NS_8equal_toIS7_EELb1EEENS5_ISE_EEE21__emplace_unique_implIJRPKcSD_EEENS_4pairINS_15__hash_iteratorIPNS_11__hash_nodeISE_PvEEEEbEEDpOT_
__ZNSt3__112__hash_tableINS_17__hash_value_typeINS_12basic_stringIcNS_11char_traitsIcEENS_9allocatorIcEEEEN4node14options_parser13OptionsParserINS8_12DebugOptionsEE10OptionInfoEEENS_22__unordered_map_hasherIS7_SE_NS_4hashIS7_EELb1EEENS_21__unordered_map_equalIS7_SE_NS_8equal_toIS7_EELb1EEENS5_ISE_EEE16__construct_nodeIJRPKcSD_EEENS_10unique_ptrINS_11__hash_nodeISE_PvEENS_22__hash_node_destructorINS5_ISW_EEEEEEDpOT_
__ZNSt3__121__murmur2_or_cityhashImLm64EEclEPKvm
__ZNSt3__121__murmur2_or_cityhashImLm64EE18__hash_len_0_to_16EPKcm
__ZNSt3__112__hash_tableINS_17__hash_value_typeINS_12basic_stringIcNS_11char_traitsIcEENS_9allocatorIcEEEEN4node14options_parser13OptionsParserINS8_12DebugOptionsEE10OptionInfoEEENS_22__unordered_map_hasherIS7_SE_NS_4hashIS7_EELb1EEENS_21__unordered_map_equalIS7_SE_NS_8equal_toIS7_EELb1EEENS5_ISE_EEE20__node_insert_uniqueEPNS_11__hash_nodeISE_PvEE
__ZNSt3__112__hash_tableINS_17__hash_value_typeINS_12basic_stringIcNS_11char_traitsIcEENS_9allocatorIcEEEEN4node14options_parser13OptionsParserINS8_12DebugOptionsEE10OptionInfoEEENS_22__unordered_map_hasherIS7_SE_NS_4hashIS7_EELb1EEENS_21__unordered_map_equalIS7_SE_NS_8equal_toIS7_EELb1EEENS5_ISE_EEE28__node_insert_unique_prepareEmRSE_
__ZNSt3__112__hash_tableINS_17__hash_value_typeINS_12basic_stringIcNS_11char_traitsIcEENS_9allocatorIcEEEEN4node14options_parser13OptionsParserINS8_12DebugOptionsEE10OptionInfoEEENS_22__unordered_map_hasherIS7_SE_NS_4hashIS7_EELb1EEENS_21__unordered_map_equalIS7_SE_NS_8equal_toIS7_EELb1EEENS5_ISE_EEE6rehashEm
__ZNSt3__112__hash_tableINS_17__hash_value_typeINS_12basic_stringIcNS_11char_traitsIcEENS_9allocatorIcEEEEN4node14options_parser13OptionsParserINS8_12DebugOptionsEE10OptionInfoEEENS_22__unordered_map_hasherIS7_SE_NS_4hashIS7_EELb1EEENS_21__unordered_map_equalIS7_SE_NS_8equal_toIS7_EELb1EEENS5_ISE_EEE8__rehashEm
__ZN4node14options_parser13OptionsParserINS_12DebugOptionsEE8AddAliasEPKcS5_
__ZNSt3__112__hash_tableINS_17__hash_value_typeINS_12basic_stringIcNS_11char_traitsIcEENS_9allocatorIcEEEENS_6vectorIS7_NS5_IS7_EEEEEENS_22__unordered_map_hasherIS7_SB_NS_4hashIS7_EELb1EEENS_21__unordered_map_equalIS7_SB_NS_8equal_toIS7_EELb1EEENS5_ISB_EEE25__emplace_unique_key_argsIS7_JRKNS_21piecewise_construct_tENS_5tupleIJOS7_EEENSQ_IJEEEEEENS_4pairINS_15__hash_iteratorIPNS_11__hash_nodeISB_PvEEEEbEERKT_DpOT0_
__ZNSt3__112__hash_tableINS_17__hash_value_typeINS_12basic_stringIcNS_11char_traitsIcEENS_9allocatorIcEEEENS_6vectorIS7_NS5_IS7_EEEEEENS_22__unordered_map_hasherIS7_SB_NS_4hashIS7_EELb1EEENS_21__unordered_map_equalIS7_SB_NS_8equal_toIS7_EELb1EEENS5_ISB_EEE6rehashEm
__ZNSt3__112__hash_tableINS_17__hash_value_typeINS_12basic_stringIcNS_11char_traitsIcEENS_9allocatorIcEEEENS_6vectorIS7_NS5_IS7_EEEEEENS_22__unordered_map_hasherIS7_SB_NS_4hashIS7_EELb1EEENS_21__unordered_map_equalIS7_SB_NS_8equal_toIS7_EELb1EEENS5_ISB_EEE8__rehashEm
__ZNSt3__16vectorINS_12basic_stringIcNS_11char_traitsIcEENS_9allocatorIcEEEENS4_IS6_EEE6assignIPKS6_EENS_9enable_ifIXaasr21__is_forward_iteratorIT_EE5valuesr16is_constructibleIS6_NS_15iterator_traitsISD_E9referenceEEE5valueEvE4typeESD_SD_
__ZN4node14options_parser13OptionsParserINS_12DebugOptionsEE9AddOptionEPKcS5_MS2_bNS0_20OptionEnvvarSettingsE
__ZN4node14options_parser13OptionsParserINS_12DebugOptionsEE8AddAliasEPKcRKSt16initializer_listINSt3__112basic_stringIcNS7_11char_traitsIcEENS7_9allocatorIcEEEEE
__ZN4node14options_parser13OptionsParserINS_12DebugOptionsEE8AddAliasEPKcRKNSt3__16vectorINS6_12basic_stringIcNS6_11char_traitsIcEENS6_9allocatorIcEEEENSB_ISD_EEEE
__ZNSt3__16vectorINS_12basic_stringIcNS_11char_traitsIcEENS_9allocatorIcEEEENS4_IS6_EEE6assignIPS6_EENS_9enable_ifIXaasr21__is_forward_iteratorIT_EE5valuesr16is_constructibleIS6_NS_15iterator_traitsISC_E9referenceEEE5valueEvE4typeESC_SC_
__ZdlPv
__ZNSt3__112__next_primeEm
__ZN4node14options_parser13OptionsParserINS_12DebugOptionsEE7ImpliesEPKcS5_
__ZNSt3__112__hash_tableINS_17__hash_value_typeINS_12basic_stringIcNS_11char_traitsIcEENS_9allocatorIcEEEEN4node14options_parser13OptionsParserINS8_12DebugOptionsEE10OptionInfoEEENS_22__unordered_map_hasherIS7_SE_NS_4hashIS7_EELb1EEENS_21__unordered_map_equalIS7_SE_NS_8equal_toIS7_EELb1EEENS5_ISE_EEE4findIS7_EENS_15__hash_iteratorIPNS_11__hash_nodeISE_PvEEEERKT_
__ZNSt3__112__hash_tableINS_17__hash_value_typeINS_12basic_stringIcNS_11char_traitsIcEENS_9allocatorIcEEEEN4node14options_parser13OptionsParserINS8_12DebugOptionsEE11ImplicationEEENS_22__unordered_map_hasherIS7_SE_NS_4hashIS7_EELb1EEENS_21__unordered_map_equalIS7_SE_NS_8equal_toIS7_EELb1EEENS5_ISE_EEE15__emplace_multiIJRPKcSD_EEENS_15__hash_iteratorIPNS_11__hash_nodeISE_PvEEEEDpOT_
__ZNSt3__112__hash_tableINS_17__hash_value_typeINS_12basic_stringIcNS_11char_traitsIcEENS_9allocatorIcEEEEN4node14options_parser13OptionsParserINS8_12DebugOptionsEE11ImplicationEEENS_22__unordered_map_hasherIS7_SE_NS_4hashIS7_EELb1EEENS_21__unordered_map_equalIS7_SE_NS_8equal_toIS7_EELb1EEENS5_ISE_EEE16__construct_nodeIJRPKcSD_EEENS_10unique_ptrINS_11__hash_nodeISE_PvEENS_22__hash_node_destructorINS5_ISW_EEEEEEDpOT_
__ZNSt3__112__hash_tableINS_17__hash_value_typeINS_12basic_stringIcNS_11char_traitsIcEENS_9allocatorIcEEEEN4node14options_parser13OptionsParserINS8_12DebugOptionsEE11ImplicationEEENS_22__unordered_map_hasherIS7_SE_NS_4hashIS7_EELb1EEENS_21__unordered_map_equalIS7_SE_NS_8equal_toIS7_EELb1EEENS5_ISE_EEE27__node_insert_multi_prepareEmRSE_
__ZNSt3__112__hash_tableINS_17__hash_value_typeINS_12basic_stringIcNS_11char_traitsIcEENS_9allocatorIcEEEEN4node14options_parser13OptionsParserINS8_12DebugOptionsEE11ImplicationEEENS_22__unordered_map_hasherIS7_SE_NS_4hashIS7_EELb1EEENS_21__unordered_map_equalIS7_SE_NS_8equal_toIS7_EELb1EEENS5_ISE_EEE6rehashEm
__ZNSt3__112__hash_tableINS_17__hash_value_typeINS_12basic_stringIcNS_11char_traitsIcEENS_9allocatorIcEEEEN4node14options_parser13OptionsParserINS8_12DebugOptionsEE11ImplicationEEENS_22__unordered_map_hasherIS7_SE_NS_4hashIS7_EELb1EEENS_21__unordered_map_equalIS7_SE_NS_8equal_toIS7_EELb1EEENS5_ISE_EEE8__rehashEm
__ZN4node14options_parser13OptionsParserINS_12DebugOptionsEE9AddOptionEPKcS5_MS2_NSt3__112basic_stringIcNS6_11char_traitsIcEENS6_9allocatorIcEEEENS0_20OptionEnvvarSettingsE
__ZN4node14options_parser24EnvironmentOptionsParserC2Ev
__ZN4node14options_parser13OptionsParserINS_18EnvironmentOptionsEE9AddOptionEPKcS5_MS2_bNS0_20OptionEnvvarSettingsE
__ZNSt3__112__hash_tableINS_17__hash_value_typeINS_12basic_stringIcNS_11char_traitsIcEENS_9allocatorIcEEEEN4node14options_parser13OptionsParserINS8_18EnvironmentOptionsEE10OptionInfoEEENS_22__unordered_map_hasherIS7_SE_NS_4hashIS7_EELb1EEENS_21__unordered_map_equalIS7_SE_NS_8equal_toIS7_EELb1EEENS5_ISE_EEE21__emplace_unique_implIJRPKcSD_EEENS_4pairINS_15__hash_iteratorIPNS_11__hash_nodeISE_PvEEEEbEEDpOT_
__ZNSt3__112__hash_tableINS_17__hash_value_typeINS_12basic_stringIcNS_11char_traitsIcEENS_9allocatorIcEEEEN4node14options_parser13OptionsParserINS8_18EnvironmentOptionsEE10OptionInfoEEENS_22__unordered_map_hasherIS7_SE_NS_4hashIS7_EELb1EEENS_21__unordered_map_equalIS7_SE_NS_8equal_toIS7_EELb1EEENS5_ISE_EEE16__construct_nodeIJRPKcSD_EEENS_10unique_ptrINS_11__hash_nodeISE_PvEENS_22__hash_node_destructorINS5_ISW_EEEEEEDpOT_
__ZNSt3__112__hash_tableINS_17__hash_value_typeINS_12basic_stringIcNS_11char_traitsIcEENS_9allocatorIcEEEEN4node14options_parser13OptionsParserINS8_18EnvironmentOptionsEE10OptionInfoEEENS_22__unordered_map_hasherIS7_SE_NS_4hashIS7_EELb1EEENS_21__unordered_map_equalIS7_SE_NS_8equal_toIS7_EELb1EEENS5_ISE_EEE20__node_insert_uniqueEPNS_11__hash_nodeISE_PvEE
__ZNSt3__112__hash_tableINS_17__hash_value_typeINS_12basic_stringIcNS_11char_traitsIcEENS_9allocatorIcEEEEN4node14options_parser13OptionsParserINS8_18EnvironmentOptionsEE10OptionInfoEEENS_22__unordered_map_hasherIS7_SE_NS_4hashIS7_EELb1EEENS_21__unordered_map_equalIS7_SE_NS_8equal_toIS7_EELb1EEENS5_ISE_EEE28__node_insert_unique_prepareEmRSE_
__ZNSt3__112__hash_tableINS_17__hash_value_typeINS_12basic_stringIcNS_11char_traitsIcEENS_9allocatorIcEEEEN4node14options_parser13OptionsParserINS8_18EnvironmentOptionsEE10OptionInfoEEENS_22__unordered_map_hasherIS7_SE_NS_4hashIS7_EELb1EEENS_21__unordered_map_equalIS7_SE_NS_8equal_toIS7_EELb1EEENS5_ISE_EEE6rehashEm
__ZNSt3__112__hash_tableINS_17__hash_value_typeINS_12basic_stringIcNS_11char_traitsIcEENS_9allocatorIcEEEEN4node14options_parser13OptionsParserINS8_18EnvironmentOptionsEE10OptionInfoEEENS_22__unordered_map_hasherIS7_SE_NS_4hashIS7_EELb1EEENS_21__unordered_map_equalIS7_SE_NS_8equal_toIS7_EELb1EEENS5_ISE_EEE8__rehashEm
__ZN4node14options_parser13OptionsParserINS_18EnvironmentOptionsEE9AddOptionEPKcS5_MS2_NSt3__112basic_stringIcNS6_11char_traitsIcEENS6_9allocatorIcEEEENS0_20OptionEnvvarSettingsE
__ZN4node14options_parser13OptionsParserINS_18EnvironmentOptionsEE8AddAliasEPKcS5_
__ZN4node14options_parser13OptionsParserINS_18EnvironmentOptionsEE7ImpliesEPKcS5_
__ZNSt3__112__hash_tableINS_17__hash_value_typeINS_12basic_stringIcNS_11char_traitsIcEENS_9allocatorIcEEEEN4node14options_parser13OptionsParserINS8_18EnvironmentOptionsEE10OptionInfoEEENS_22__unordered_map_hasherIS7_SE_NS_4hashIS7_EELb1EEENS_21__unordered_map_equalIS7_SE_NS_8equal_toIS7_EELb1EEENS5_ISE_EEE4findIS7_EENS_15__hash_iteratorIPNS_11__hash_nodeISE_PvEEEERKT_
__ZNSt3__112__hash_tableINS_17__hash_value_typeINS_12basic_stringIcNS_11char_traitsIcEENS_9allocatorIcEEEEN4node14options_parser13OptionsParserINS8_18EnvironmentOptionsEE11ImplicationEEENS_22__unordered_map_hasherIS7_SE_NS_4hashIS7_EELb1EEENS_21__unordered_map_equalIS7_SE_NS_8equal_toIS7_EELb1EEENS5_ISE_EEE16__construct_nodeIJRPKcSD_EEENS_10unique_ptrINS_11__hash_nodeISE_PvEENS_22__hash_node_destructorINS5_ISW_EEEEEEDpOT_
__ZNSt3__112__hash_tableINS_17__hash_value_typeINS_12basic_stringIcNS_11char_traitsIcEENS_9allocatorIcEEEEN4node14options_parser13OptionsParserINS8_18EnvironmentOptionsEE11ImplicationEEENS_22__unordered_map_hasherIS7_SE_NS_4hashIS7_EELb1EEENS_21__unordered_map_equalIS7_SE_NS_8equal_toIS7_EELb1EEENS5_ISE_EEE19__node_insert_multiEPNS_11__hash_nodeISE_PvEE
__ZNSt3__112__hash_tableINS_17__hash_value_typeINS_12basic_stringIcNS_11char_traitsIcEENS_9allocatorIcEEEEN4node14options_parser13OptionsParserINS8_18EnvironmentOptionsEE11ImplicationEEENS_22__unordered_map_hasherIS7_SE_NS_4hashIS7_EELb1EEENS_21__unordered_map_equalIS7_SE_NS_8equal_toIS7_EELb1EEENS5_ISE_EEE27__node_insert_multi_prepareEmRSE_
__ZNSt3__112__hash_tableINS_17__hash_value_typeINS_12basic_stringIcNS_11char_traitsIcEENS_9allocatorIcEEEEN4node14options_parser13OptionsParserINS8_18EnvironmentOptionsEE11ImplicationEEENS_22__unordered_map_hasherIS7_SE_NS_4hashIS7_EELb1EEENS_21__unordered_map_equalIS7_SE_NS_8equal_toIS7_EELb1EEENS5_ISE_EEE6rehashEm
__ZNSt3__112__hash_tableINS_17__hash_value_typeINS_12basic_stringIcNS_11char_traitsIcEENS_9allocatorIcEEEEN4node14options_parser13OptionsParserINS8_18EnvironmentOptionsEE11ImplicationEEENS_22__unordered_map_hasherIS7_SE_NS_4hashIS7_EELb1EEENS_21__unordered_map_equalIS7_SE_NS_8equal_toIS7_EELb1EEENS5_ISE_EEE8__rehashEm
__ZN4node14options_parser13OptionsParserINS_18EnvironmentOptionsEE9AddOptionEPKcS5_NS3_4NoOpENS0_20OptionEnvvarSettingsE
__ZN4node14options_parser13OptionsParserINS_18EnvironmentOptionsEE9AddOptionEPKcS5_MS2_yNS0_20OptionEnvvarSettingsE
__ZN4node14options_parser13OptionsParserINS_18EnvironmentOptionsEE8AddAliasEPKcRKSt16initializer_listINSt3__112basic_stringIcNS7_11char_traitsIcEENS7_9allocatorIcEEEEE
__ZN4node14options_parser13OptionsParserINS_18EnvironmentOptionsEE8AddAliasEPKcRKNSt3__16vectorINS6_12basic_stringIcNS6_11char_traitsIcEENS6_9allocatorIcEEEENSB_ISD_EEEE
__ZN4node14options_parser13OptionsParserINS_18EnvironmentOptionsEE9AddOptionEPKcS5_MS2_NSt3__16vectorINS6_12basic_stringIcNS6_11char_traitsIcEENS6_9allocatorIcEEEENSB_ISD_EEEENS0_20OptionEnvvarSettingsE
__ZN4node14options_parser13OptionsParserINS_18EnvironmentOptionsEE6InsertINS_12DebugOptionsEEEvRKNS1_IT_EEMS2_FPS6_vE
__ZNSt3__112__hash_tableINS_17__hash_value_typeINS_12basic_stringIcNS_11char_traitsIcEENS_9allocatorIcEEEENS_6vectorIS7_NS5_IS7_EEEEEENS_22__unordered_map_hasherIS7_SB_NS_4hashIS7_EELb1EEENS_21__unordered_map_equalIS7_SB_NS_8equal_toIS7_EELb1EEENS5_ISB_EEE25__emplace_unique_key_argsIS7_JRKNS_4pairIKS7_SA_EEEEENSN_INS_15__hash_iteratorIPNS_11__hash_nodeISB_PvEEEEbEERKT_DpOT0_
__ZNSt3__112__hash_tableINS_17__hash_value_typeINS_12basic_stringIcNS_11char_traitsIcEENS_9allocatorIcEEEENS_6vectorIS7_NS5_IS7_EEEEEENS_22__unordered_map_hasherIS7_SB_NS_4hashIS7_EELb1EEENS_21__unordered_map_equalIS7_SB_NS_8equal_toIS7_EELb1EEENS5_ISB_EEE21__construct_node_hashIRKNS_4pairIKS7_SA_EEJEEENS_10unique_ptrINS_11__hash_nodeISB_PvEENS_22__hash_node_destructorINS5_ISV_EEEEEEmOT_DpOT0_
__ZN4node14options_parser13OptionsParserINS_18EnvironmentOptionsEE7ConvertINS_12DebugOptionsEEEDaNS1_IT_E10OptionInfoEMS2_FPS6_vE
__ZNSt3__112__hash_tableINS_17__hash_value_typeINS_12basic_stringIcNS_11char_traitsIcEENS_9allocatorIcEEEEN4node14options_parser13OptionsParserINS8_18EnvironmentOptionsEE10OptionInfoEEENS_22__unordered_map_hasherIS7_SE_NS_4hashIS7_EELb1EEENS_21__unordered_map_equalIS7_SE_NS_8equal_toIS7_EELb1EEENS5_ISE_EEE25__emplace_unique_key_argsIS7_JRKS7_SD_EEENS_4pairINS_15__hash_iteratorIPNS_11__hash_nodeISE_PvEEEEbEERKT_DpOT0_
__ZN4node14options_parser23PerIsolateOptionsParserC2ERKNS0_24EnvironmentOptionsParserE
__ZN4node14options_parser13OptionsParserINS_17PerIsolateOptionsEE9AddOptionEPKcS5_MS2_bNS0_20OptionEnvvarSettingsE
__ZNSt3__112__hash_tableINS_17__hash_value_typeINS_12basic_stringIcNS_11char_traitsIcEENS_9allocatorIcEEEEN4node14options_parser13OptionsParserINS8_17PerIsolateOptionsEE10OptionInfoEEENS_22__unordered_map_hasherIS7_SE_NS_4hashIS7_EELb1EEENS_21__unordered_map_equalIS7_SE_NS_8equal_toIS7_EELb1EEENS5_ISE_EEE21__emplace_unique_implIJRPKcSD_EEENS_4pairINS_15__hash_iteratorIPNS_11__hash_nodeISE_PvEEEEbEEDpOT_
__ZNSt3__112__hash_tableINS_17__hash_value_typeINS_12basic_stringIcNS_11char_traitsIcEENS_9allocatorIcEEEEN4node14options_parser13OptionsParserINS8_17PerIsolateOptionsEE10OptionInfoEEENS_22__unordered_map_hasherIS7_SE_NS_4hashIS7_EELb1EEENS_21__unordered_map_equalIS7_SE_NS_8equal_toIS7_EELb1EEENS5_ISE_EEE16__construct_nodeIJRPKcSD_EEENS_10unique_ptrINS_11__hash_nodeISE_PvEENS_22__hash_node_destructorINS5_ISW_EEEEEEDpOT_
__ZNSt3__112__hash_tableINS_17__hash_value_typeINS_12basic_stringIcNS_11char_traitsIcEENS_9allocatorIcEEEEN4node14options_parser13OptionsParserINS8_17PerIsolateOptionsEE10OptionInfoEEENS_22__unordered_map_hasherIS7_SE_NS_4hashIS7_EELb1EEENS_21__unordered_map_equalIS7_SE_NS_8equal_toIS7_EELb1EEENS5_ISE_EEE20__node_insert_uniqueEPNS_11__hash_nodeISE_PvEE
__ZNSt3__112__hash_tableINS_17__hash_value_typeINS_12basic_stringIcNS_11char_traitsIcEENS_9allocatorIcEEEEN4node14options_parser13OptionsParserINS8_17PerIsolateOptionsEE10OptionInfoEEENS_22__unordered_map_hasherIS7_SE_NS_4hashIS7_EELb1EEENS_21__unordered_map_equalIS7_SE_NS_8equal_toIS7_EELb1EEENS5_ISE_EEE28__node_insert_unique_prepareEmRSE_
__ZNSt3__112__hash_tableINS_17__hash_value_typeINS_12basic_stringIcNS_11char_traitsIcEENS_9allocatorIcEEEEN4node14options_parser13OptionsParserINS8_17PerIsolateOptionsEE10OptionInfoEEENS_22__unordered_map_hasherIS7_SE_NS_4hashIS7_EELb1EEENS_21__unordered_map_equalIS7_SE_NS_8equal_toIS7_EELb1EEENS5_ISE_EEE6rehashEm
__ZNSt3__112__hash_tableINS_17__hash_value_typeINS_12basic_stringIcNS_11char_traitsIcEENS_9allocatorIcEEEEN4node14options_parser13OptionsParserINS8_17PerIsolateOptionsEE10OptionInfoEEENS_22__unordered_map_hasherIS7_SE_NS_4hashIS7_EELb1EEENS_21__unordered_map_equalIS7_SE_NS_8equal_toIS7_EELb1EEENS5_ISE_EEE8__rehashEm
__ZN4node14options_parser13OptionsParserINS_17PerIsolateOptionsEE9AddOptionEPKcS5_NS3_8V8OptionENS0_20OptionEnvvarSettingsE
__ZN4node14options_parser13OptionsParserINS_17PerIsolateOptionsEE6InsertINS_18EnvironmentOptionsEEEvRKNS1_IT_EEMS2_FPS6_vE
__ZN4node14options_parser13OptionsParserINS_17PerIsolateOptionsEE7ConvertINS_18EnvironmentOptionsEEEDaNS1_IT_E10OptionInfoEMS2_FPS6_vE
__ZNSt3__112__hash_tableINS_17__hash_value_typeINS_12basic_stringIcNS_11char_traitsIcEENS_9allocatorIcEEEEN4node14options_parser13OptionsParserINS8_17PerIsolateOptionsEE10OptionInfoEEENS_22__unordered_map_hasherIS7_SE_NS_4hashIS7_EELb1EEENS_21__unordered_map_equalIS7_SE_NS_8equal_toIS7_EELb1EEENS5_ISE_EEE25__emplace_unique_key_argsIS7_JRKS7_SD_EEENS_4pairINS_15__hash_iteratorIPNS_11__hash_nodeISE_PvEEEEbEERKT_DpOT0_
__ZNSt3__112__hash_tableINS_17__hash_value_typeINS_12basic_stringIcNS_11char_traitsIcEENS_9allocatorIcEEEEN4node14options_parser13OptionsParserINS8_17PerIsolateOptionsEE11ImplicationEEENS_22__unordered_map_hasherIS7_SE_NS_4hashIS7_EELb1EEENS_21__unordered_map_equalIS7_SE_NS_8equal_toIS7_EELb1EEENS5_ISE_EEE15__emplace_multiIJRKS7_SD_EEENS_15__hash_iteratorIPNS_11__hash_nodeISE_PvEEEEDpOT_
__ZNSt3__112__hash_tableINS_17__hash_value_typeINS_12basic_stringIcNS_11char_traitsIcEENS_9allocatorIcEEEEN4node14options_parser13OptionsParserINS8_17PerIsolateOptionsEE11ImplicationEEENS_22__unordered_map_hasherIS7_SE_NS_4hashIS7_EELb1EEENS_21__unordered_map_equalIS7_SE_NS_8equal_toIS7_EELb1EEENS5_ISE_EEE27__node_insert_multi_prepareEmRSE_
__ZNSt3__112__hash_tableINS_17__hash_value_typeINS_12basic_stringIcNS_11char_traitsIcEENS_9allocatorIcEEEEN4node14options_parser13OptionsParserINS8_17PerIsolateOptionsEE11ImplicationEEENS_22__unordered_map_hasherIS7_SE_NS_4hashIS7_EELb1EEENS_21__unordered_map_equalIS7_SE_NS_8equal_toIS7_EELb1EEENS5_ISE_EEE6rehashEm
__ZNSt3__112__hash_tableINS_17__hash_value_typeINS_12basic_stringIcNS_11char_traitsIcEENS_9allocatorIcEEEEN4node14options_parser13OptionsParserINS8_17PerIsolateOptionsEE11ImplicationEEENS_22__unordered_map_hasherIS7_SE_NS_4hashIS7_EELb1EEENS_21__unordered_map_equalIS7_SE_NS_8equal_toIS7_EELb1EEENS5_ISE_EEE8__rehashEm
__ZN4node14options_parser23PerProcessOptionsParserC2ERKNS0_23PerIsolateOptionsParserE
__ZN4node14options_parser13OptionsParserINS_17PerProcessOptionsEE9AddOptionEPKcS5_MS2_NSt3__112basic_stringIcNS6_11char_traitsIcEENS6_9allocatorIcEEEENS0_20OptionEnvvarSettingsE
__ZNSt3__112__hash_tableINS_17__hash_value_typeINS_12basic_stringIcNS_11char_traitsIcEENS_9allocatorIcEEEEN4node14options_parser13OptionsParserINS8_17PerProcessOptionsEE10OptionInfoEEENS_22__unordered_map_hasherIS7_SE_NS_4hashIS7_EELb1EEENS_21__unordered_map_equalIS7_SE_NS_8equal_toIS7_EELb1EEENS5_ISE_EEE21__emplace_unique_implIJRPKcSD_EEENS_4pairINS_15__hash_iteratorIPNS_11__hash_nodeISE_PvEEEEbEEDpOT_
__ZNSt3__112__hash_tableINS_17__hash_value_typeINS_12basic_stringIcNS_11char_traitsIcEENS_9allocatorIcEEEEN4node14options_parser13OptionsParserINS8_17PerProcessOptionsEE10OptionInfoEEENS_22__unordered_map_hasherIS7_SE_NS_4hashIS7_EELb1EEENS_21__unordered_map_equalIS7_SE_NS_8equal_toIS7_EELb1EEENS5_ISE_EEE16__construct_nodeIJRPKcSD_EEENS_10unique_ptrINS_11__hash_nodeISE_PvEENS_22__hash_node_destructorINS5_ISW_EEEEEEDpOT_
__ZNSt3__112__hash_tableINS_17__hash_value_typeINS_12basic_stringIcNS_11char_traitsIcEENS_9allocatorIcEEEEN4node14options_parser13OptionsParserINS8_17PerProcessOptionsEE10OptionInfoEEENS_22__unordered_map_hasherIS7_SE_NS_4hashIS7_EELb1EEENS_21__unordered_map_equalIS7_SE_NS_8equal_toIS7_EELb1EEENS5_ISE_EEE20__node_insert_uniqueEPNS_11__hash_nodeISE_PvEE
__ZNSt3__112__hash_tableINS_17__hash_value_typeINS_12basic_stringIcNS_11char_traitsIcEENS_9allocatorIcEEEEN4node14options_parser13OptionsParserINS8_17PerProcessOptionsEE10OptionInfoEEENS_22__unordered_map_hasherIS7_SE_NS_4hashIS7_EELb1EEENS_21__unordered_map_equalIS7_SE_NS_8equal_toIS7_EELb1EEENS5_ISE_EEE28__node_insert_unique_prepareEmRSE_
__ZNSt3__112__hash_tableINS_17__hash_value_typeINS_12basic_stringIcNS_11char_traitsIcEENS_9allocatorIcEEEEN4node14options_parser13OptionsParserINS8_17PerProcessOptionsEE10OptionInfoEEENS_22__unordered_map_hasherIS7_SE_NS_4hashIS7_EELb1EEENS_21__unordered_map_equalIS7_SE_NS_8equal_toIS7_EELb1EEENS5_ISE_EEE6rehashEm
__ZNSt3__112__hash_tableINS_17__hash_value_typeINS_12basic_stringIcNS_11char_traitsIcEENS_9allocatorIcEEEEN4node14options_parser13OptionsParserINS8_17PerProcessOptionsEE10OptionInfoEEENS_22__unordered_map_hasherIS7_SE_NS_4hashIS7_EELb1EEENS_21__unordered_map_equalIS7_SE_NS_8equal_toIS7_EELb1EEENS5_ISE_EEE8__rehashEm
__ZN4node14options_parser13OptionsParserINS_17PerProcessOptionsEE8AddAliasEPKcRKSt16initializer_listINSt3__112basic_stringIcNS7_11char_traitsIcEENS7_9allocatorIcEEEEE
__ZN4node14options_parser13OptionsParserINS_17PerProcessOptionsEE8AddAliasEPKcRKNSt3__16vectorINS6_12basic_stringIcNS6_11char_traitsIcEENS6_9allocatorIcEEEENSB_ISD_EEEE
__ZN4node14options_parser13OptionsParserINS_17PerProcessOptionsEE9AddOptionEPKcS5_MS2_yNS0_20OptionEnvvarSettingsE
__ZN4node14options_parser13OptionsParserINS_17PerProcessOptionsEE9AddOptionEPKcS5_MS2_xNS0_20OptionEnvvarSettingsE
__ZN4node14options_parser13OptionsParserINS_17PerProcessOptionsEE9AddOptionEPKcS5_MS2_bNS0_20OptionEnvvarSettingsE
__ZN4node14options_parser13OptionsParserINS_17PerProcessOptionsEE9AddOptionEPKcS5_MS2_NSt3__16vectorINS6_12basic_stringIcNS6_11char_traitsIcEENS6_9allocatorIcEEEENSB_ISD_EEEENS0_20OptionEnvvarSettingsE
__ZN4node14options_parser13OptionsParserINS_17PerProcessOptionsEE8AddAliasEPKcS5_
__ZN4node14options_parser13OptionsParserINS_17PerProcessOptionsEE7ImpliesEPKcS5_
__ZNSt3__112__hash_tableINS_17__hash_value_typeINS_12basic_stringIcNS_11char_traitsIcEENS_9allocatorIcEEEEN4node14options_parser13OptionsParserINS8_17PerProcessOptionsEE10OptionInfoEEENS_22__unordered_map_hasherIS7_SE_NS_4hashIS7_EELb1EEENS_21__unordered_map_equalIS7_SE_NS_8equal_toIS7_EELb1EEENS5_ISE_EEE4findIS7_EENS_15__hash_iteratorIPNS_11__hash_nodeISE_PvEEEERKT_
__ZNSt3__112__hash_tableINS_17__hash_value_typeINS_12basic_stringIcNS_11char_traitsIcEENS_9allocatorIcEEEEN4node14options_parser13OptionsParserINS8_17PerProcessOptionsEE11ImplicationEEENS_22__unordered_map_hasherIS7_SE_NS_4hashIS7_EELb1EEENS_21__unordered_map_equalIS7_SE_NS_8equal_toIS7_EELb1EEENS5_ISE_EEE16__construct_nodeIJRPKcSD_EEENS_10unique_ptrINS_11__hash_nodeISE_PvEENS_22__hash_node_destructorINS5_ISW_EEEEEEDpOT_
__ZNSt3__112__hash_tableINS_17__hash_value_typeINS_12basic_stringIcNS_11char_traitsIcEENS_9allocatorIcEEEEN4node14options_parser13OptionsParserINS8_17PerProcessOptionsEE11ImplicationEEENS_22__unordered_map_hasherIS7_SE_NS_4hashIS7_EELb1EEENS_21__unordered_map_equalIS7_SE_NS_8equal_toIS7_EELb1EEENS5_ISE_EEE19__node_insert_multiEPNS_11__hash_nodeISE_PvEE
__ZNSt3__112__hash_tableINS_17__hash_value_typeINS_12basic_stringIcNS_11char_traitsIcEENS_9allocatorIcEEEEN4node14options_parser13OptionsParserINS8_17PerProcessOptionsEE11ImplicationEEENS_22__unordered_map_hasherIS7_SE_NS_4hashIS7_EELb1EEENS_21__unordered_map_equalIS7_SE_NS_8equal_toIS7_EELb1EEENS5_ISE_EEE27__node_insert_multi_prepareEmRSE_
__ZNSt3__112__hash_tableINS_17__hash_value_typeINS_12basic_stringIcNS_11char_traitsIcEENS_9allocatorIcEEEEN4node14options_parser13OptionsParserINS8_17PerProcessOptionsEE11ImplicationEEENS_22__unordered_map_hasherIS7_SE_NS_4hashIS7_EELb1EEENS_21__unordered_map_equalIS7_SE_NS_8equal_toIS7_EELb1EEENS5_ISE_EEE6rehashEm
__ZNSt3__112__hash_tableINS_17__hash_value_typeINS_12basic_stringIcNS_11char_traitsIcEENS_9allocatorIcEEEEN4node14options_parser13OptionsParserINS8_17PerProcessOptionsEE11ImplicationEEENS_22__unordered_map_hasherIS7_SE_NS_4hashIS7_EELb1EEENS_21__unordered_map_equalIS7_SE_NS_8equal_toIS7_EELb1EEENS5_ISE_EEE8__rehashEm
__ZN4node14options_parser13OptionsParserINS_17PerProcessOptionsEE10ImpliesNotEPKcS5_
__ZN4node14options_parser13OptionsParserINS_17PerProcessOptionsEE6InsertINS_17PerIsolateOptionsEEEvRKNS1_IT_EEMS2_FPS6_vE
__ZN4node14options_parser13OptionsParserINS_17PerProcessOptionsEE7ConvertINS_17PerIsolateOptionsEEEDaNS1_IT_E10OptionInfoEMS2_FPS6_vE
__ZNSt3__112__hash_tableINS_17__hash_value_typeINS_12basic_stringIcNS_11char_traitsIcEENS_9allocatorIcEEEEN4node14options_parser13OptionsParserINS8_17PerProcessOptionsEE10OptionInfoEEENS_22__unordered_map_hasherIS7_SE_NS_4hashIS7_EELb1EEENS_21__unordered_map_equalIS7_SE_NS_8equal_toIS7_EELb1EEENS5_ISE_EEE25__emplace_unique_key_argsIS7_JRKS7_SD_EEENS_4pairINS_15__hash_iteratorIPNS_11__hash_nodeISE_PvEEEEbEERKT_DpOT0_
_uv_hrtime
_uv__hrtime
__ZN4node28GetCurrentTimeInMicrosecondsEv
_uv_gettimeofday
__ZN4node20SigintWatchdogHelperC2Ev
_uv_sem_init
___GLOBAL_init_65535
___GLOBAL_init_65535
___GLOBAL_init_65535
_AtomMain
__ZN8electron16AtomMainDelegateC1Ev
__ZN8electron15AtomCommandLine4InitEiPPc
_uv_setup_args
_uv__malloc
__ZNSt3__16vectorINS_12basic_stringIcNS_11char_traitsIcEENS_9allocatorIcEEEENS4_IS6_EEE6assignIPPcEENS_9enable_ifIXaasr21__is_forward_iteratorIT_EE5valuesr16is_constructibleIS6_NS_15iterator_traitsISD_E9referenceEEE5valueEvE4typeESD_SD_
__ZNSt3__115__thread_structC1Ev
__ZNSt3__16thread6detachEv
__ZNSt3__114__thread_proxyINS_5tupleIJNS_10unique_ptrINS_15__thread_structENS_14default_deleteIS3_EEEEZN9orderfile16StartDelayedDumpEvE3$_0EEEEEPvSA_
__ZNSt3__119__thread_local_dataEv
__ZNSt3__16threadD1Ev
__ZN7content11ContentMainERKNS_17ContentMainParamsE
__ZN7content33ContentServiceManagerMainDelegateC1ERKNS_17ContentMainParamsE
__ZN15service_manager12MainDelegateC2Ev
__ZN7content21ContentMainRunnerImpl6CreateEv
__ZN7content13ContentClientC1Ev
__ZN15service_manager10MainParamsC1EPNS_12MainDelegateE
__ZN15service_manager4MainERKNS_10MainParamsE
__ZN7content33ContentServiceManagerMainDelegate19OverrideProcessTypeEv
__ZN7content19ContentMainDelegate19OverrideProcessTypeEv
__ZN4base9allocator23InitializeAllocatorShimEv
__ZN4base9allocator39InitializeDefaultDispatchToMacAllocatorEv
__ZN4base9allocator25StoreFunctionsForAllZonesEv
__ZN4base9allocator15StoreMallocZoneEP17_ChromeMallocZone
__ZN4base4LockC1Ev
__ZN4base8internal8LockImplC1Ev
__ZN4base8internal8LockImplC2Ev
__ZN4base8internal8LockImpl4LockEv
__ZN4base17GetProgramCounterEv
__ZN4base5debug25ScopedLockAcquireActivityC1EPKvPKNS_8internal8LockImplE
__ZN4base5debug21GlobalActivityTracker20ScopedThreadActivityD2Ev
__ZN4base4Lock18CheckUnheldAndMarkEv
__ZN4base14PlatformThread10CurrentRefEv
__ZNK4base4Lock14AssertAcquiredEv
__ZN4base9allocator18StoreZoneFunctionsEPK17_ChromeMallocZonePNS0_19MallocZoneFunctionsE
__ZN4base4Lock18CheckHeldAndUnmarkEv
__ZN4base8internal8LockImpl6UnlockEv
__ZN4base9allocator30ReplaceFunctionsForStoredZonesEPKNS0_19MallocZoneFunctionsE
__ZN4base9allocator27DoesMallocZoneNeedReplacingEP17_ChromeMallocZonePKNS0_19MallocZoneFunctionsE
__ZN4base9allocator25IsMallocZoneAlreadyStoredEP17_ChromeMallocZone
__ZN4base9allocator20ReplaceZoneFunctionsEP17_ChromeMallocZonePKNS0_19MallocZoneFunctionsE
__ZN4base30EnableTerminationOnOutOfMemoryEv
__ZSt15set_new_handlerPFvvE
__ZN4base9allocator32SetCallNewHandlerOnMallocFailureEb
__ZN4base9allocator23InterceptAllocationsMacEv
__ZN4base3mac8internal18MacOSXMinorVersionEv
__ZN4base11StringToIntENS_16BasicStringPieceINSt3__112basic_stringIcNS1_11char_traitsIcEENS1_9allocatorIcEEEEEEPi
__ZN7logging22ShouldCreateLogMessageEi
__ZZN4base9allocator35MallocZoneFunctionsToReplaceDefaultEvEN3$_28__invokeEP14_malloc_zone_tmm
__ZN4base9allocator12_GLOBAL__N_110CallocImplEPKNS0_17AllocatorDispatchEmmPv
__ZZN4base9allocator35MallocZoneFunctionsToReplaceDefaultEvEN3$_08__invokeEP14_malloc_zone_tPKv
__ZN4base9allocator12_GLOBAL__N_119GetSizeEstimateImplEPKNS0_17AllocatorDispatchEPvS5_
__ZZN4base9allocator35MallocZoneFunctionsToReplaceDefaultEvEN3$_58__invokeEP14_malloc_zone_tPvm
__ZN4base9allocator12_GLOBAL__N_111ReallocImplEPKNS0_17AllocatorDispatchEPvmS5_
__ZN4base11CommandLine4InitEiPKPKc
__ZZN4base9allocator35MallocZoneFunctionsToReplaceDefaultEvEN3$_18__invokeEP14_malloc_zone_tm
__ZN4base9allocator12_GLOBAL__N_110MallocImplEPKNS0_17AllocatorDispatchEmPv
__ZN4base11CommandLine12InitFromArgvEiPKPKc
__ZNSt3__16vectorINS_12basic_stringIcNS_11char_traitsIcEENS_9allocatorIcEEEENS4_IS6_EEE21__push_back_slow_pathIS6_EEvOT_
__ZN4base11CommandLine12InitFromArgvERKNSt3__16vectorINS1_12basic_stringIcNS1_11char_traitsIcEENS1_9allocatorIcEEEENS6_IS8_EEEE
__ZZN4base9allocator35MallocZoneFunctionsToReplaceDefaultEvEN3$_98__invokeEP14_malloc_zone_tPvm
__ZN4base9allocator12_GLOBAL__N_120FreeDefiniteSizeImplEPKNS0_17AllocatorDispatchEPvmS5_
__ZNSt3__16__treeINS_12__value_typeINS_12basic_stringIcNS_11char_traitsIcEENS_9allocatorIcEEEES7_EENS_19__map_value_compareIS7_S8_NS_4lessIvEELb1EEENS5_IS8_EEE7destroyEPNS_11__tree_nodeIS8_PvEE
__ZN4base8FilePathC1ENS_16BasicStringPieceINSt3__112basic_stringIcNS2_11char_traitsIcEENS2_9allocatorIcEEEEEE
__ZN4base8internal12CopyToStringERKNS_16BasicStringPieceINSt3__112basic_stringIcNS2_11char_traitsIcEENS2_9allocatorIcEEEEEEPS8_
__ZNKSt3__112basic_stringIcNS_11char_traitsIcEENS_9allocatorIcEEE4findEcm
__ZN4base19TrimWhitespaceASCIIENS_16BasicStringPieceINSt3__112basic_stringIcNS1_11char_traitsIcEENS1_9allocatorIcEEEEEENS_13TrimPositionsEPS7_
__ZN4base11TrimStringTINSt3__112basic_stringIcNS1_11char_traitsIcEENS1_9allocatorIcEEEEEENS_13TrimPositionsENS_16BasicStringPieceIT_EESB_S8_PSA_
__ZN4base8internal17find_first_not_ofERKNS_16BasicStringPieceINSt3__112basic_stringIcNS2_11char_traitsIcEENS2_9allocatorIcEEEEEESB_m
__ZN4base8internal16find_last_not_ofERKNS_16BasicStringPieceINSt3__112basic_stringIcNS2_11char_traitsIcEENS2_9allocatorIcEEEEEESB_m
__ZN4base8FilePathD1Ev
__ZN4base12_GLOBAL__N_126AppendSwitchesAndArgumentsEPNS_11CommandLineERKNSt3__16vectorINS3_12basic_stringIcNS3_11char_traitsIcEENS3_9allocatorIcEEEENS8_ISA_EEEE
__ZN4base11CommandLine17ForCurrentProcessEv
__ZNK4base11CommandLine19GetSwitchValueASCIIERKNS_16BasicStringPieceINSt3__112basic_stringIcNS2_11char_traitsIcEENS2_9allocatorIcEEEEEE
__ZNK4base11CommandLine20GetSwitchValueNativeERKNS_16BasicStringPieceINSt3__112basic_stringIcNS2_11char_traitsIcEENS2_9allocatorIcEEEEEE
__ZN4base12ToLowerASCIIENS_16BasicStringPieceINSt3__112basic_stringIcNS1_11char_traitsIcEENS1_9allocatorIcEEEEEE
__ZNSt3__112basic_stringIcNS_11char_traitsIcEENS_9allocatorIcEEE7reserveEm
__ZNSt3__112basic_stringIcNS_11char_traitsIcEENS_9allocatorIcEEE9push_backEc
__ZNKSt3__16__treeINS_12__value_typeINS_12basic_stringIcNS_11char_traitsIcEENS_9allocatorIcEEEES7_EENS_19__map_value_compareIS7_S8_NS_4lessIvEELb1EEENS5_IS8_EEE4findIN4base16BasicStringPieceIS7_EEEENS_21__tree_const_iteratorIS8_PNS_11__tree_nodeIS8_PvEElEERKT_
__ZN4base13IsStringASCIIENS_16BasicStringPieceINSt3__112basic_stringIcNS1_11char_traitsIcEENS1_9allocatorIcEEEEEE
__ZN4base33EnableTerminationOnHeapCorruptionEv
__ZN15service_manager30SetProcessTitleFromCommandLineEPPKc
__ZNK4base11CommandLine9HasSwitchEPKc
__ZNK4base11CommandLine9HasSwitchERKNS_16BasicStringPieceINSt3__112basic_stringIcNS2_11char_traitsIcEENS2_9allocatorIcEEEEEE
__ZN4base3mac23ScopedNSAutoreleasePoolC1Ev
__ZN15service_manager13InitializeMacEv
__ZN4base9allocator12_GLOBAL__N_124oom_killer_allocWithZoneEP11objc_objectP13objc_selectorP7_NSZone
__ZZN4base9allocator35MallocZoneFunctionsToReplaceDefaultEvEN3$_48__invokeEP14_malloc_zone_tPv
__ZN4base9allocator12_GLOBAL__N_18FreeImplEPKNS0_17AllocatorDispatchEPvS5_
__ZN7content33ContentServiceManagerMainDelegate25OverrideMojoConfigurationEPN4mojo4core13ConfigurationE
__ZN4mojo4core4InitERKNS0_13ConfigurationE
__ZN4mojo4core14InitializeCoreEv
__ZN4mojo4core4CoreC1Ev
__ZN4mojo4core4CoreC2Ev
__ZN4mojo4core11HandleTableC1Ev
__ZN4base11trace_event17MemoryDumpManager11GetInstanceEv
__ZN4base9SingletonINS_11trace_event17MemoryDumpManagerENS_20LeakySingletonTraitsIS2_EES2_E3getEv
__ZN4base8internal17NeedsLazyInstanceEPl
__ZN4base8internal20CompleteLazyInstanceEPllPFvPvES2_
__ZN4base11trace_event17MemoryDumpManager20RegisterDumpProviderEPNS0_18MemoryDumpProviderEPKc13scoped_refptrINS_22SingleThreadTaskRunnerEE
__ZN4base11trace_event17MemoryDumpManager28RegisterDumpProviderInternalEPNS0_18MemoryDumpProviderEPKc13scoped_refptrINS_19SequencedTaskRunnerEERKNS2_7OptionsE
__ZN4base11trace_event31IsMemoryDumpProviderWhitelistedEPKc
__ZN4base11trace_event22MemoryDumpProviderInfoC1EPNS0_18MemoryDumpProviderEPKc13scoped_refptrINS_19SequencedTaskRunnerEERKNS2_7OptionsEb
__ZNK4base6subtle24RefCountedThreadSafeBase6AddRefEv
__ZNSt3__16__treeI13scoped_refptrIN4base11trace_event22MemoryDumpProviderInfoEENS4_10ComparatorENS_9allocatorIS5_EEE25__emplace_unique_key_argsIS5_JRKS5_EEENS_4pairINS_15__tree_iteratorIS5_PNS_11__tree_nodeIS5_PvEElEEbEERKT_DpOT0_
__ZNK4base6subtle24RefCountedThreadSafeBase7ReleaseEv
__ZN4mojo4core15GetSystemThunksEv
__Z27MojoEmbedderSetSystemThunksPK16MojoSystemThunks
__ZN4base18AutoWritableMemoryC2EPvS1_
__ZN4base12LazyInstanceINS_4LockENS_8internal23LeakyLazyInstanceTraitsIS1_EEE7PointerEv
__ZN4base22LazyInstanceTraitsBaseINS_4LockEE3NewEPv
__ZN4base22AssertMemoryIsReadOnlyEPKv
__ZN4base18AutoWritableMemory18SetMemoryReadWriteEPvS1_
__ZN4base11GetPageSizeEv
__ZN4base18AutoWritableMemoryD2Ev
__ZN4base18AutoWritableMemory17SetMemoryReadOnlyEPvS1_
__ZN2ui20RegisterPathProviderEv
__ZN4base11PathService16RegisterProviderEPFbiPNS_8FilePathEEii
__ZN7content33ContentServiceManagerMainDelegate10InitializeERKN15service_manager12MainDelegate16InitializeParamsE
__ZN7content21ContentMainRunnerImpl10InitializeERKNS_17ContentMainParamsE
__ZN4base17GlobalDescriptors11GetInstanceEv
__ZN4base9SingletonINS_17GlobalDescriptorsENS_20LeakySingletonTraitsIS1_EES1_E3getEv
__ZN4base17GlobalDescriptors3SetEji
__ZN4base17GlobalDescriptors3SetEjiNS_16MemoryMappedFile6RegionE
__ZN4base13AtExitManagerC1Ev
__ZN8electron16AtomMainDelegate20BasicStartupCompleteEPi
__ZN4base11Environment6CreateEv
__ZN4base11Environment6HasVarENS_16BasicStringPieceINSt3__112basic_stringIcNS2_11char_traitsIcEENS2_9allocatorIcEEEEEE
__ZN4base12_GLOBAL__N_115EnvironmentImpl6GetVarENS_16BasicStringPieceINSt3__112basic_stringIcNS3_11char_traitsIcEENS3_9allocatorIcEEEEEEPS9_
__ZN7logging14SetMinLogLevelEi
__ZN7logging37BaseInitLoggingImpl_built_with_NDEBUGERKNS_15LoggingSettingsE
__ZN7logging11SetLogItemsEbbbb
__ZN7tracing22TracingSamplerProfiler18CreateOnMainThreadEv
__ZN4base37GetSamplingProfilerCurrentThreadTokenEv
__ZN4base14PlatformThread9CurrentIdEv
__ZN7tracing22TracingSamplerProfilerC2EN4base27SamplingProfilerThreadTokenE
__ZN7tracing12_GLOBAL__N_132TracingSamplerProfilerDataSource3GetEv
__ZN7tracing21PerfettoTracedProcess14DataSourceBaseC2ERKNSt3__112basic_stringIcNS2_11char_traitsIcEENS2_9allocatorIcEEEE
__ZN8perfetto16DataSourceConfigC1Ev
__ZN8perfetto12ChromeConfigC1Ev
__ZN8perfetto10TestConfigC1Ev
__ZN6chrome20RegisterPathProviderEv
__ZN8electron16AtomMainDelegate24OverrideChildProcessPathEv
__ZN8electron12_GLOBAL__N_117GetFrameworksPathEv
__ZN8electron25MainApplicationBundlePathEv
__ZN4base8FilePathC1Ev
__ZN4base11PathService3GetEiPNS_8FilePathE
__ZN6chrome12PathProviderEiPN4base8FilePathE
__ZN2ui12PathProviderEiPN4base8FilePathE
__ZN4base15PathProviderMacEiPNS_8FilePathE
__ZN4base9WriteIntoEPNSt3__112basic_stringIcNS0_11char_traitsIcEENS0_9allocatorIcEEEEm
__ZNSt3__112basic_stringIcNS_11char_traitsIcEENS_9allocatorIcEEE6resizeEmc
__ZN4base18ThreadRestrictions13ScopedAllowIOC1Ev
__ZN4base18ThreadRestrictions12SetIOAllowedEb
__ZN4base12LazyInstanceINS_12_GLOBAL__N_128ThreadLocalBooleanWithStacksENS_8internal23LeakyLazyInstanceTraitsIS2_EEE3GetEv
__ZN4base18ThreadLocalStorage4SlotC1EPFvPvE
__ZN4base18ThreadLocalStorage4Slot10InitializeEPFvPvE
__ZN12_GLOBAL__N_118ConstructTlsVectorEv
__ZN4base8internal26PlatformThreadLocalStorage8AllocTLSEPm
__ZN4base8internal26PlatformThreadLocalStorage11SetTLSValueEmPv
__Znam
__ZNK4base18ThreadLocalStorage4Slot3GetEv
__ZN4base5debug10StackTraceC1Ev
__ZN4base5debug17CollectStackTraceEPPvm
__ZN4base8internal30CheckedThreadLocalOwnedPointerINS_5debug10StackTraceEE3SetENSt3__110unique_ptrIS3_NS5_14default_deleteIS3_EEEE
__ZN4base18ThreadLocalStorage4Slot3SetEPv
__ZN4base20MakeAbsoluteFilePathERKNS_8FilePathE
__ZN4base8Location14CreateFromHereEPKcS2_i
__ZN4base18ScopedBlockingCallC1ERKNS_8LocationENS_12BlockingTypeE
__ZN4base18ScopedBlockingCallC2ERKNS_8LocationENS_12BlockingTypeE
__ZN4base8internal27UncheckedScopedBlockingCallC2ENS_12BlockingTypeE
__ZN4base12LazyInstanceINS_18ThreadLocalPointerINS_8internal16BlockingObserverEEENS2_23LeakyLazyInstanceTraitsIS4_EEE7PointerEv
__ZN4base22LazyInstanceTraitsBaseINS_18ThreadLocalPointerINS_8internal16BlockingObserverEEEE3NewEPv
__ZN4base12LazyInstanceINS_18ThreadLocalPointerINS_8internal27UncheckedScopedBlockingCallEEENS2_23LeakyLazyInstanceTraitsIS4_EEE7PointerEv
__ZN4base22LazyInstanceTraitsBaseINS_18ThreadLocalPointerINS_8internal27UncheckedScopedBlockingCallEEEE3NewEPv
__ZN4base12LazyInstanceINS_18ThreadLocalBooleanENS_8internal23LeakyLazyInstanceTraitsIS1_EEE7PointerEv
__ZN4base22LazyInstanceTraitsBaseINS_18ThreadLocalBooleanEE3NewEPv
__ZN4base8internal21AssertBlockingAllowedEv
__ZN4base18ScopedBlockingCallD1Ev
__ZN4base8internal27UncheckedScopedBlockingCallD2Ev
__ZN4base8FilePathaSEOS0_
__ZN4base18ThreadRestrictions13ScopedAllowIOD1Ev
__ZNK4base8FilePath16ReferencesParentEv
__ZN4base8FilePathaSERKS0_
__ZNSt3__112basic_stringIcNS_11char_traitsIcEENS_9allocatorIcEEEaSERKS5_
__ZNSt3__112__hash_tableINS_17__hash_value_typeIiN4base8FilePathEEENS_22__unordered_map_hasherIiS4_NS_4hashIiEELb1EEENS_21__unordered_map_equalIiS4_NS_8equal_toIiEELb1EEENS_9allocatorIS4_EEE25__emplace_unique_key_argsIiJRKNS_21piecewise_construct_tENS_5tupleIJRKiEEENSK_IJEEEEEENS_4pairINS_15__hash_iteratorIPNS_11__hash_nodeIS4_PvEEEEbEERKT_DpOT0_
__ZNSt3__112__hash_tableINS_17__hash_value_typeIiN4base8FilePathEEENS_22__unordered_map_hasherIiS4_NS_4hashIiEELb1EEENS_21__unordered_map_equalIiS4_NS_8equal_toIiEELb1EEENS_9allocatorIS4_EEE6rehashEm
__ZNSt3__112__hash_tableINS_17__hash_value_typeIiN4base8FilePathEEENS_22__unordered_map_hasherIiS4_NS_4hashIiEELb1EEENS_21__unordered_map_equalIiS4_NS_8equal_toIiEELb1EEENS_9allocatorIS4_EEE8__rehashEm
__ZN4base3mac10MainBundleEv
__ZN4base8EndsWithENS_16BasicStringPieceINSt3__112basic_stringIcNS1_11char_traitsIcEENS1_9allocatorIcEEEEEES8_NS_11CompareCaseE
__ZN4base9EndsWithTINSt3__112basic_stringIcNS1_11char_traitsIcEENS1_9allocatorIcEEEEEEbNS_16BasicStringPieceIT_EESA_NS_11CompareCaseE
__ZN4base8internal6substrERKNS_16BasicStringPieceINSt3__112basic_stringIcNS2_11char_traitsIcEENS2_9allocatorIcEEEEEEmm
__ZNK4base8FilePath7DirNameEv
__ZNKSt3__112basic_stringIcNS_11char_traitsIcEENS_9allocatorIcEEE12find_last_ofEPKcmm
__ZNK4base8FilePath8BaseNameEv
__ZNSt3__112basic_stringIcNS_11char_traitsIcEENS_9allocatorIcEEE5eraseEmm
__ZNKSt3__112basic_stringIcNS_11char_traitsIcEENS_9allocatorIcEEE7compareEmmPKcm
__ZNK4base8FilePath9ExtensionEv
__ZN4base12_GLOBAL__N_126ExtensionSeparatorPositionERKNSt3__112basic_stringIcNS1_11char_traitsIcEENS1_9allocatorIcEEEE
__ZNKSt3__112basic_stringIcNS_11char_traitsIcEENS_9allocatorIcEEE5rfindEcm
__ZNSt3__112basic_stringIcNS_11char_traitsIcEENS_9allocatorIcEEEC1ERKS5_mmRKS4_
__ZNK4base8FilePath6AppendENS_16BasicStringPieceINSt3__112basic_stringIcNS2_11char_traitsIcEENS2_9allocatorIcEEEEEE
__ZN4base8internal4findERKNS_16BasicStringPieceINSt3__112basic_stringIcNS2_11char_traitsIcEENS2_9allocatorIcEEEEEEcm
__ZNKSt3__112basic_stringIcNS_11char_traitsIcEENS_9allocatorIcEEE7compareEPKc
__ZN4base8internal14AppendToStringERKNS_16BasicStringPieceINSt3__112basic_stringIcNS2_11char_traitsIcEENS2_9allocatorIcEEEEEEPS8_
__ZN8electron12_GLOBAL__N_116GetHelperAppPathERKN4base8FilePathERKNSt3__112basic_stringIcNS5_11char_traitsIcEENS5_9allocatorIcEEEE
__ZN4base10PathExistsERKNS_8FilePathE
__ZN4base11PathService8OverrideEiRKNS_8FilePathE
__ZN4base11PathService25OverrideAndCreateIfNeededEiRKNS_8FilePathEbb
__ZN4base8FilePathC1ERKS0_
__ZNK4base8FilePath10IsAbsoluteEv
__ZN8electron16AtomMainDelegate27OverrideFrameworkBundlePathEv
__ZN4base3mac30SetOverrideFrameworkBundlePathERKNS_8FilePathE
__ZN4base3macL18AssignOverridePathERKNS_8FilePathEPP8NSBundle
__ZN4base17SysUTF8ToNSStringENS_16BasicStringPieceINSt3__112basic_stringIcNS1_11char_traitsIcEENS1_9allocatorIcEEEEEE
__ZN4base3mac10CFToNSCastEPK10__CFString
__ZN8electron16AtomMainDelegate20SetUpBundleOverridesEv
__ZN8electron21MainApplicationBundleEv
__ZN4base3mac18FilePathToNSStringERKNS_8FilePathE
__ZN4base17SysNSStringToUTF8EP8NSString
__ZN4base12_GLOBAL__N_132CFStringToSTLStringWithEncodingTINSt3__112basic_stringIcNS2_11char_traitsIcEENS2_9allocatorIcEEEEEET_PK10__CFStringj
__ZN4base3mac15SetBaseBundleIDEPKc
__ZN4base3mac23ScopedNSAutoreleasePoolD1Ev
__ZN8electron17AtomContentClientC1Ev
__ZN7content13ContentClientC2Ev
__ZN7content16SetContentClientEPNS_13ContentClientE
__ZN4base12_GLOBAL__N_115EnvironmentImplD0Ev
__ZN7content16GetContentClientEv
__ZN7content24ContentClientInitializer3SetERKNSt3__112basic_stringIcNS1_11char_traitsIcEENS1_9allocatorIcEEEEPNS_19ContentMainDelegateE
__ZN8electron16AtomMainDelegate26CreateContentBrowserClientEv
__ZN8electron17AtomBrowserClientC1Ev
__ZN7tracing28EnableStartupTracingIfNeededEv
__ZN4base11trace_event8TraceLog11GetInstanceEv
__ZN4base11trace_event8TraceLogC2Ev
__ZN4base11trace_event11TraceConfigC1Ev
__ZN4base11trace_event25TraceConfigCategoryFilterC1Ev
__ZN4base11trace_event16CategoryRegistry10InitializeEv
__ZN4base16GetCurrentProcIdEv
__ZN4base7Process7CurrentEv
__ZN4base23GetCurrentProcessHandleEv
__ZNK4base7Process12CreationTimeEv
__ZNK4base7Process3PidEv
__ZN4base9GetProcIdEi
__ZN4base4Time11FromTimeValE7timeval
__ZN4base7ProcessD1Ev
__ZN4base11trace_event8TraceLog17CreateTraceBufferEv
__ZN4base11trace_event11TraceBuffer29CreateTraceBufferVectorOfSizeEm
__ZNSt3__16vectorINS_10unique_ptrIN4base11trace_event16TraceBufferChunkENS_14default_deleteIS4_EEEENS_9allocatorIS7_EEE7reserveEm
__ZNK4base11trace_event22MemoryDumpProviderInfo10ComparatorclERK13scoped_refptrIS1_ES6_
__ZN7tracing18TraceStartupConfig11GetInstanceEv
__ZN4base9SingletonIN7tracing18TraceStartupConfigENS_22DefaultSingletonTraitsIS2_EES2_E3getEv
__ZN4base18ThreadRestrictions22AssertSingletonAllowedEv
__ZN7tracing18TraceStartupConfigC2Ev
__ZN7tracing18TraceStartupConfig21EnableFromCommandLineEv
__ZN7tracing18TraceStartupConfig20EnableFromConfigFileEv
__ZN4base13AtExitManager16RegisterCallbackEPFvPvES1_
__ZN4base8internal8BindImplINS_12OnceCallbackERPFvPvEJRS3_EEEDcOT0_DpOT1_
__ZN4base8internal13BindStateBaseC2EPFvvEPFvPKS1_E
__ZN4base8AdoptRefINS_8internal13BindStateBaseEEE13scoped_refptrIT_EPS4_
__ZNK4base6subtle24RefCountedThreadSafeBase9HasOneRefEv
__ZN4base13AtExitManager12RegisterTaskENS_12OnceCallbackIFvvEEE
__ZN4base14circular_dequeINS_12OnceCallbackIFvvEEEE12emplace_backIJS3_EEERS3_DpOT_
__ZN4base14circular_dequeINS_12OnceCallbackIFvvEEEE25ExpandCapacityIfNecessaryEm
__ZN4base14circular_dequeINS_12OnceCallbackIFvvEEEE10MoveBufferERNS_8internal12VectorBufferIS3_EEmmPS7_PmSA_
__ZN4base14circular_dequeINS_12OnceCallbackIFvvEEEE4backEv
__ZNK4base8internal29circular_deque_const_iteratorINS_12OnceCallbackIFvvEEEE18CheckUnstableUsageEv
__ZNK4base8internal29circular_deque_const_iteratorINS_12OnceCallbackIFvvEEEEdeEv
__ZNK4base14circular_dequeINS_12OnceCallbackIFvvEEEE15CheckValidIndexEm
__ZN4base8internal12CallbackBaseD2Ev
__ZNK7tracing18TraceStartupConfig9IsEnabledEv
__ZN4base11trace_event8TraceLog23GetCategoryGroupEnabledEPKc
__ZN4base11trace_event16CategoryRegistry17GetCategoryByNameEPKc
__ZN4base11trace_event16CategoryRegistry25GetOrCreateCategoryLockedEPKcPFvPNS0_13TraceCategoryEEPS5_
__ZZN4base11trace_event8TraceLog23GetCategoryGroupEnabledEPKcEN3$_08__invokeEPNS0_13TraceCategoryE
__ZN4base11trace_event8TraceLog19UpdateCategoryStateEPNS0_13TraceCategoryE
__ZN4base24PowerMonitorDeviceSource21AllocateSystemIOPortsEv
__ZN4base9allocator22IsAllocatorInitializedEv
__ZN7content20RegisterPathProviderEv
__ZN8electron16AtomMainDelegate24ShouldLockSchemeRegistryEv
__ZN7content22RegisterContentSchemesEb
__ZN7content13ContentClient7SchemesC1Ev
__ZN8electron17AtomContentClient20AddAdditionalSchemesEPN7content13ContentClient7SchemesE
__ZN8electron12_GLOBAL__N_129AppendDelimitedSwitchToVectorEN4base16BasicStringPieceINSt3__112basic_stringIcNS3_11char_traitsIcEENS3_9allocatorIcEEEEEEPNS3_6vectorIS9_NS7_IS9_EEEE
__ZNSt3__16vectorINS_12basic_stringIcNS_11char_traitsIcEENS_9allocatorIcEEEENS4_IS6_EEE24__emplace_back_slow_pathIJRA_KcEEEvDpOT_
__ZNSt3__16vectorINS_12basic_stringIcNS_11char_traitsIcEENS_9allocatorIcEEEENS4_IS6_EEE24__emplace_back_slow_pathIJRA17_KcEEEvDpOT_
__ZN3url17AddStandardSchemeEPKcNS_10SchemeTypeE
__ZN3url12_GLOBAL__N_114SchemeRegistryC1Ev
__ZN3url12_GLOBAL__N_119DoAddSchemeWithTypeEPKcNS_10SchemeTypeEPNSt3__16vectorINS_14SchemeWithTypeENS4_9allocatorIS6_EEEE
__ZN3url15AddSecureSchemeEPKc
__ZN3url12_GLOBAL__N_111DoAddSchemeEPKcPNSt3__16vectorINS3_12basic_stringIcNS3_11char_traitsIcEENS3_9allocatorIcEEEENS8_ISA_EEEE
__ZN3url17AddNoAccessSchemeEPKc
__ZN3url20AddCorsEnabledSchemeEPKc
__ZNSt3__16vectorINS_12basic_stringIcNS_11char_traitsIcEENS_9allocatorIcEEEENS4_IS6_EEE6assignIPKPKcEENS_9enable_ifIXaasr21__is_forward_iteratorIT_EE5valuesr16is_constructibleIS6_NS_15iterator_traitsISF_E9referenceEEE5valueEvE4typeESF_SF_
__ZNSt3__16vectorINS_12basic_stringIcNS_11char_traitsIcEENS_9allocatorIcEEEENS4_IS6_EEE6insertINS_11__wrap_iterIPS6_EEEENS_9enable_ifIXaasr21__is_forward_iteratorIT_EE5valuesr16is_constructibleIS6_NS_15iterator_traitsISE_E9referenceEEE5valueESC_E4typeENSA_IPKS6_EESE_SE_
__ZN7content13ContentClient7SchemesD1Ev
__ZN7content13ContentClient7SchemesD2Ev
__ZN4base4i18n13InitializeICUEv
__ZN4base4i18n12_GLOBAL__N_115OpenIcuDataFileERKNSt3__112basic_stringIcNS2_11char_traitsIcEENS2_9allocatorIcEEEE
__ZN4base20SysUTF8ToCFStringRefENS_16BasicStringPieceINSt3__112basic_stringIcNS1_11char_traitsIcEENS1_9allocatorIcEEEEEE
__ZN4base3mac30PathForFrameworkBundleResourceEPK10__CFString
__ZN4base3mac15FrameworkBundleEv
__ZN4base4FileC1ERKNS_8FilePathEj
__ZN4base11FileTracing13ScopedEnablerC1Ev
__ZN4base4File10InitializeERKNS_8FilePathEj
__ZN4base11FileTracing17IsCategoryEnabledEv
__ZN4base11FileTracing11ScopedTraceC1Ev
__ZN4base4File12DoInitializeERKNS_8FilePathEj
__ZN4base11FileTracing11ScopedTraceD1Ev
__ZNK4base4File7IsValidEv
__ZN4base4File16TakePlatformFileEv
__ZN4base4FileD1Ev
__ZN4base4FileD2Ev
__ZN4base4File5CloseEv
__ZN4base11FileTracing13ScopedEnablerD1Ev
__ZN4base4i18n12_GLOBAL__N_111LoadIcuDataEiRKNS_16MemoryMappedFile6RegionEPNSt3__110unique_ptrIS2_NS6_14default_deleteIS2_EEEEP10UErrorCode
__ZN4base16MemoryMappedFileC1Ev
__ZN4base4FileC1Ev
__ZN4base4FileC1Ei
__ZN4base4FileC2Eib
__ZN4base4FileC1EOS0_
__ZN4base16MemoryMappedFile10InitializeENS_4FileERKNS0_6RegionENS0_6AccessE
__ZN4base4FileaSEOS0_
__ZN4base4File15SetPlatformFileEi
__ZN4base16MemoryMappedFile21MapFileRegionToMemoryERKNS0_6RegionENS0_6AccessE
__ZNK4base16MemoryMappedFile6RegioneqERKS1_
__ZN4base4File9GetLengthEv
__ZNK4base4File15GetPlatformFileEv
_udata_setCommonData_64
_UDataMemory_init_64
_UDataMemory_setData_64
_udata_checkCommonData_64
__ZL16setCommonICUDataP11UDataMemoryaP10UErrorCode
_UDataMemory_createNewInstance_64
_uprv_malloc_64
_UDatamemory_assign_64
_umtx_lock_64
__ZN6icu_647UMemorynwEm
__ZNSt3__15mutex4lockEv
_umtx_unlock_64
__ZNSt3__15mutex6unlockEv
_ucln_common_registerCleanup_64
_udata_setFileAccess_64
__ZN3gin13V8Initializer14LoadV8SnapshotENS0_18V8SnapshotFileTypeE
__ZN4base15LinearHistogram10FactoryGetEPKciiji
__ZN4base15LinearHistogram30FactoryGetWithRangeDescriptionERKNSt3__112basic_stringIcNS1_11char_traitsIcEENS1_9allocatorIcEEEEiijiPKNS0_15DescriptionPairE
__ZN4base9Histogram28InspectConstructionArgumentsENS_16BasicStringPieceINSt3__112basic_stringIcNS2_11char_traitsIcEENS2_9allocatorIcEEEEEEPiSA_Pj
__ZN4base9Histogram7Factory5BuildEv
__ZN4base18StatisticsRecorder13FindHistogramENS_16BasicStringPieceINSt3__112basic_stringIcNS2_11char_traitsIcEENS2_9allocatorIcEEEEEE
__ZN4base24GlobalHistogramAllocator3GetEv
__ZN4base18StatisticsRecorder31EnsureGlobalRecorderWhileLockedEv
__ZN4base18StatisticsRecorderC2Ev
__ZN7logging18GetVlogLevelHelperEPKcm
__ZNSt3__112__hash_tableINS_17__hash_value_typeIN4base16BasicStringPieceINS_12basic_stringIcNS_11char_traitsIcEENS_9allocatorIcEEEEEEPNS2_13HistogramBaseEEENS_22__unordered_map_hasherISA_SD_NS2_19StringPieceHashImplISA_EELb1EEENS_21__unordered_map_equalISA_SD_NS_8equal_toISA_EELb1EEENS7_ISD_EEE4findISA_EENS_15__hash_iteratorIPNS_11__hash_nodeISD_PvEEEERKT_
__ZN4base14HashMetricNameENS_16BasicStringPieceINSt3__112basic_stringIcNS1_11char_traitsIcEENS1_9allocatorIcEEEEEE
__ZN4base6MD5SumEPKvmPNS_9MD5DigestE
_MD5
_MD5_Update
_MD5_Final
__ZN4base18StatisticsRecorder21ShouldRecordHistogramEy
__ZN4base15LinearHistogram7Factory12CreateRangesEv
__ZN4base12BucketRangesC1Em
__ZN4base15LinearHistogram22InitializeBucketRangesEiiPNS_12BucketRangesE
__ZN4base12BucketRanges9set_rangeEmi
__ZN4base12BucketRanges13ResetChecksumEv
__ZN4base5Crc32EjPKvm
__ZN4base18StatisticsRecorder31RegisterOrDeleteDuplicateRangesEPKNS_12BucketRangesE
__ZNK4base12BucketRanges16HasValidChecksumEv
__ZNSt3__112__hash_tableIPKN4base12BucketRangesENS1_18StatisticsRecorder16BucketRangesHashENS5_17BucketRangesEqualENS_9allocatorIS4_EEE25__emplace_unique_key_argsIS4_JRKS4_EEENS_4pairINS_15__hash_iteratorIPNS_11__hash_nodeIS4_PvEEEEbEERKT_DpOT0_
__ZNSt3__112__hash_tableIPKN4base12BucketRangesENS1_18StatisticsRecorder16BucketRangesHashENS5_17BucketRangesEqualENS_9allocatorIS4_EEE6rehashEm
__ZNSt3__112__hash_tableIPKN4base12BucketRangesENS1_18StatisticsRecorder16BucketRangesHashENS5_17BucketRangesEqualENS_9allocatorIS4_EEE8__rehashEm
__ZN4base15LinearHistogram7Factory9HeapAllocEPKNS_12BucketRangesE
__ZN4base13HistogramBase16GetPermanentNameERKNSt3__112basic_stringIcNS1_11char_traitsIcEENS1_9allocatorIcEEEE
__ZNSt3__16__treeINS_12basic_stringIcNS_11char_traitsIcEENS_9allocatorIcEEEENS_4lessIS6_EENS4_IS6_EEE12__find_equalIS6_EERPNS_16__tree_node_baseIPvEERPNS_15__tree_end_nodeISF_EERKT_
__ZN4base9HistogramC2EPKciiPKNS_12BucketRangesE
__ZN4base13HistogramBaseC2EPKc
__ZN4base12SampleVectorC1EyPKNS_12BucketRangesE
__ZN4base12SampleVectorC2EyPKNS_12BucketRangesE
__ZN4base16HistogramSamples13LocalMetadataC1Ev
__ZN4base16HistogramSamplesC2EyPNS0_8MetadataE
__ZN4base13HistogramBase8SetFlagsEi
__ZN4base15LinearHistogram7Factory13FillHistogramEPNS_13HistogramBaseE
__ZNK4base15LinearHistogram16GetHistogramTypeEv
__ZN4base18StatisticsRecorder25RegisterOrDeleteDuplicateEPNS_13HistogramBaseE
__ZNSt3__112__hash_tableINS_17__hash_value_typeIN4base16BasicStringPieceINS_12basic_stringIcNS_11char_traitsIcEENS_9allocatorIcEEEEEEPNS2_13HistogramBaseEEENS_22__unordered_map_hasherISA_SD_NS2_19StringPieceHashImplISA_EELb1EEENS_21__unordered_map_equalISA_SD_NS_8equal_toISA_EELb1EEENS7_ISD_EEE25__emplace_unique_key_argsISA_JRKNS_21piecewise_construct_tENS_5tupleIJOSA_EEENSS_IJEEEEEENS_4pairINS_15__hash_iteratorIPNS_11__hash_nodeISD_PvEEEEbEERKT_DpOT0_
__ZNSt3__112__hash_tableINS_17__hash_value_typeIN4base16BasicStringPieceINS_12basic_stringIcNS_11char_traitsIcEENS_9allocatorIcEEEEEEPNS2_13HistogramBaseEEENS_22__unordered_map_hasherISA_SD_NS2_19StringPieceHashImplISA_EELb1EEENS_21__unordered_map_equalISA_SD_NS_8equal_toISA_EELb1EEENS7_ISD_EEE6rehashEm
__ZNSt3__112__hash_tableINS_17__hash_value_typeIN4base16BasicStringPieceINS_12basic_stringIcNS_11char_traitsIcEENS_9allocatorIcEEEEEEPNS2_13HistogramBaseEEENS_22__unordered_map_hasherISA_SD_NS2_19StringPieceHashImplISA_EELb1EEENS_21__unordered_map_equalISA_SD_NS_8equal_toISA_EELb1EEENS7_ISD_EEE8__rehashEm
__ZNSt3__112__hash_tableINS_17__hash_value_typeINS_12basic_stringIcNS_11char_traitsIcEENS_9allocatorIcEEEEN4base17RepeatingCallbackIFviEEEEENS_22__unordered_map_hasherIS7_SC_NS_4hashIS7_EELb1EEENS_21__unordered_map_equalIS7_SC_NS_8equal_toIS7_EELb1EEENS5_ISC_EEE4findIS7_EENS_15__hash_iteratorIPNS_11__hash_nodeISC_PvEEEERKT_
__ZNK4base9Histogram24HasConstructionArgumentsEiij
__ZNK4base9Histogram12bucket_countEv
__ZNK4base13HistogramBase9CheckNameERKNS_16BasicStringPieceINSt3__112basic_stringIcNS2_11char_traitsIcEENS2_9allocatorIcEEEEEE
__ZN4base9Histogram3AddEi
__ZN4base9Histogram8AddCountEii
__ZNK4base9Histogram6rangesEj
__ZN4base16SampleVectorBase10AccumulateEii
__ZNK4base16SampleVectorBase14GetBucketIndexEi
__ZN4base16HistogramSamples22AccumulateSingleSampleEiim
__ZNK4base13HistogramBase18FindAndRunCallbackEi
__ZN3gin13V8Initializer22LoadV8SnapshotFromFileEN4base4FileEPNS1_16MemoryMappedFile6RegionENS0_18V8SnapshotFileTypeE
__ZNK4base12BucketRanges6EqualsEPKS0_
__ZN4base12BucketRangesD1Ev
__ZN5blink19TrialTokenValidator26SetOriginTrialPolicyGetterEN4base17RepeatingCallbackIFPNS_17OriginTrialPolicyEvEEE
__ZN12_GLOBAL__N_112PolicyGetterEv
__ZN4base8internal20CallbackBaseCopyableaSERKS1_
__ZNK4base6subtle24RefCountedThreadSafeBase15AddRefWithCheckEv
__ZN4base8internal9BindStateIZN12_GLOBAL__N_112PolicyGetterEvE3$_1JEE7DestroyEPKNS0_13BindStateBaseE
__ZN4base6subtle24RefCountedThreadSafeBaseD2Ev
__ZN4base5debug27EnableInProcessStackDumpingEv
__ZN4base5debug14VerifyDebuggerEv
__ZN8electron16AtomMainDelegate17PreSandboxStartupEv
__ZN4base11CommandLine12AppendSwitchERKNSt3__112basic_stringIcNS1_11char_traitsIcEENS1_9allocatorIcEEEE
__ZN4base11CommandLine18AppendSwitchNativeERKNSt3__112basic_stringIcNS1_11char_traitsIcEENS1_9allocatorIcEEEES9_
__ZN4base12_GLOBAL__N_121GetSwitchPrefixLengthENS_16BasicStringPieceINSt3__112basic_stringIcNS2_11char_traitsIcEENS2_9allocatorIcEEEEEE
__ZNSt3__16__treeINS_12__value_typeINS_12basic_stringIcNS_11char_traitsIcEENS_9allocatorIcEEEES7_EENS_19__map_value_compareIS7_S8_NS_4lessIvEELb1EEENS5_IS8_EEE12__find_equalIS7_EERPNS_16__tree_node_baseIPvEERPNS_15__tree_end_nodeISJ_EERKT_
__ZNSt3__112basic_stringIcNS_11char_traitsIcEENS_9allocatorIcEEE6insertEmPKcm
__ZNSt3__16vectorINS_12basic_stringIcNS_11char_traitsIcEENS_9allocatorIcEEEENS4_IS6_EEE6insertENS_11__wrap_iterIPKS6_EERSA_
__ZNSt3__114__split_bufferINS_12basic_stringIcNS_11char_traitsIcEENS_9allocatorIcEEEERNS4_IS6_EEE9push_backERKS6_
__ZN7content19ContentMainDelegate18SandboxInitializedERKNSt3__112basic_stringIcNS1_11char_traitsIcEENS1_9allocatorIcEEEE
__ZN7content33ContentServiceManagerMainDelegate20IsEmbedderSubprocessEv
__ZN7content33ContentServiceManagerMainDelegate18RunEmbedderProcessEv
__ZN7content21ContentMainRunnerImpl3RunEb
__ZN7content18UtilityProcessHost32RegisterUtilityMainThreadFactoryEPFPN4base6ThreadERKNS_26InProcessChildThreadParamsEE
__ZN7content21RenderProcessHostImpl33RegisterRendererMainThreadFactoryEPFPN4base6ThreadERKNS_26InProcessChildThreadParamsEiE
__ZN7content28RegisterGpuMainThreadFactoryEPFPN4base6ThreadERKNS_26InProcessChildThreadParamsERKN3gpu14GpuPreferencesEE
__ZN7content21ContentMainRunnerImpl17RunServiceManagerERNS_18MainFunctionParamsEb
__ZN8electron16AtomMainDelegate23ShouldCreateFeatureListEv
__ZN7content20ContentBrowserClient22ShouldCreateThreadPoolEv
__ZN4base18ThreadPoolInstance6CreateENS_16BasicStringPieceINSt3__112basic_stringIcNS2_11char_traitsIcEENS2_9allocatorIcEEEEEE
__ZN4base8internal14ThreadPoolImplC1ENS_16BasicStringPieceINSt3__112basic_stringIcNS3_11char_traitsIcEENS3_9allocatorIcEEEEEE
__ZN4base8internal16TaskTrackerPosixC1ENS_16BasicStringPieceINSt3__112basic_stringIcNS3_11char_traitsIcEENS3_9allocatorIcEEEEEE
__ZN4base8internal11TaskTrackerC2ENS_16BasicStringPieceINSt3__112basic_stringIcNS3_11char_traitsIcEENS3_9allocatorIcEEEEEE
__ZN4base13TaskAnnotatorC1Ev
__ZN4base11CommandLine28InitializedForCurrentProcessEv
__ZN4base8internal15CheckedLockImplC2Ev
__ZN4base8internal15CheckedLockImplC2EPKS1_
__ZN4base12LazyInstanceINS_8internal12_GLOBAL__N_122SafeAcquisitionTrackerENS1_23LeakyLazyInstanceTraitsIS3_EEE3GetEv
__ZNSt3__112__hash_tableINS_17__hash_value_typeIPKN4base8internal15CheckedLockImplES6_EENS_22__unordered_map_hasherIS6_S7_NS_4hashIS6_EELb1EEENS_21__unordered_map_equalIS6_S7_NS_8equal_toIS6_EELb1EEENS_9allocatorIS7_EEE25__emplace_unique_key_argsIS6_JRKNS_21piecewise_construct_tENS_5tupleIJRKS6_EEENSN_IJEEEEEENS_4pairINS_15__hash_iteratorIPNS_11__hash_nodeIS7_PvEEEEbEERKT_DpOT0_
__ZNSt3__112__hash_tableINS_17__hash_value_typeIPKN4base8internal15CheckedLockImplES6_EENS_22__unordered_map_hasherIS6_S7_NS_4hashIS6_EELb1EEENS_21__unordered_map_equalIS6_S7_NS_8equal_toIS6_EELb1EEENS_9allocatorIS7_EEE6rehashEm
__ZNSt3__112__hash_tableINS_17__hash_value_typeIPKN4base8internal15CheckedLockImplES6_EENS_22__unordered_map_hasherIS6_S7_NS_4hashIS6_EELb1EEENS_21__unordered_map_equalIS6_S7_NS_8equal_toIS6_EELb1EEENS_9allocatorIS7_EEE8__rehashEm
__ZN4base8internal15CheckedLockImpl23CreateConditionVariableEv
__ZN4base17ConditionVariableC1EPNS_4LockE
__ZN4base8internal12_GLOBAL__N_119GetLatencyHistogramENS_16BasicStringPieceINSt3__112basic_stringIcNS3_11char_traitsIcEENS3_9allocatorIcEEEEEESA_SA_
__ZN4base10JoinStringESt16initializer_listINS_16BasicStringPieceINSt3__112basic_stringIcNS2_11char_traitsIcEENS2_9allocatorIcEEEEEEES9_
__ZN4base9Histogram26FactoryMicrosecondsTimeGetERKNSt3__112basic_stringIcNS1_11char_traitsIcEENS1_9allocatorIcEEEENS_9TimeDeltaESA_ji
__ZN4base9Histogram10FactoryGetERKNSt3__112basic_stringIcNS1_11char_traitsIcEENS1_9allocatorIcEEEEiiji
__ZN4base9Histogram7Factory12CreateRangesEv
__ZN4base9Histogram22InitializeBucketRangesEiiPNS_12BucketRangesE
__ZN4base5debug5AliasEPKv
__ZN4base9Histogram7Factory9HeapAllocEPKNS_12BucketRangesE
__ZN4base9Histogram7Factory13FillHistogramEPNS_13HistogramBaseE
__ZNK4base9Histogram16GetHistogramTypeEv
__ZN4base8internal12_GLOBAL__N_117GetCountHistogramENS_16BasicStringPieceINSt3__112basic_stringIcNS3_11char_traitsIcEENS3_9allocatorIcEEEEEESA_SA_
__ZN4base8internal14ThreadPoolImplC2ENS_16BasicStringPieceINSt3__112basic_stringIcNS3_11char_traitsIcEENS3_9allocatorIcEEEEEENS3_10unique_ptrINS0_16TaskTrackerPosixENS3_14default_deleteISC_EEEE
__ZN4base8internal24PooledTaskRunnerDelegateC2Ev
__ZN4base8internal8BindImplINS_17RepeatingCallbackEMNS0_14ThreadPoolImplEKFvvEJNS0_17UnretainedWrapperIS3_EEEEEDcOT0_DpOT1_
__ZN4base8internal13ServiceThreadC1EPKNS0_11TaskTrackerENS_17RepeatingCallbackIFvvEEE
__ZN4base6ThreadC2ERKNSt3__112basic_stringIcNS1_11char_traitsIcEENS1_9allocatorIcEEEE
__ZN4base13WaitableEventC1ENS0_11ResetPolicyENS0_12InitialStateE
__ZN4base13WaitableEventC2ENS0_11ResetPolicyENS0_12InitialStateE
__ZN4base19SequenceCheckerImplC2Ev
__ZN4base13SequenceToken19GetForCurrentThreadEv
__ZN4base17ThreadCheckerImplC1Ev
__ZN4base17ThreadCheckerImplC2Ev
__ZN4base9TaskToken19GetForCurrentThreadEv
__ZN4base19SequenceCheckerImpl18DetachFromSequenceEv
__ZN4base17ThreadCheckerImplD1Ev
__ZN4base4LockD1Ev
__ZN4base8internal8LockImplD1Ev
__ZN4base8internal8LockImplD2Ev
__ZN4base14RepeatingTimerC1Ev
__ZN4base8LocationC1Ev
__ZN4base16DefaultTickClock11GetInstanceEv
__ZN4base8internal18DelayedTaskManagerC1EPKNS_9TickClockE
__ZN4base8internal18DelayedTaskManagerC2EPKNS_9TickClockE
__ZN4base8internal8BindImplINS_17RepeatingCallbackEMNS0_18DelayedTaskManagerEFvvEJNS0_17UnretainedWrapperIS3_EEEEEDcOT0_DpOT1_
__ZNSt3__16vectorIN4base8internal18DelayedTaskManager11DelayedTaskENS_9allocatorIS4_EEE7reserveEm
__ZN4base8internal35PooledSingleThreadTaskRunnerManagerC1ENS0_10TrackedRefINS0_11TaskTrackerEEEPNS0_18DelayedTaskManagerE
__ZN4base8internal35PooledSingleThreadTaskRunnerManagerC2ENS0_10TrackedRefINS0_11TaskTrackerEEEPNS0_18DelayedTaskManagerE
__ZN4base8internal10TrackedRefINS0_11TaskTrackerEED2Ev
__ZN4base10AtomicFlagC1Ev
__ZN4base8internal15ThreadGroupImplC1ENS_16BasicStringPieceINSt3__112basic_stringIcNS3_11char_traitsIcEENS3_9allocatorIcEEEEEESA_NS_14ThreadPriorityENS0_10TrackedRefINS0_11TaskTrackerEEENSC_INS0_11ThreadGroup8DelegateEEE
__ZN4base8internal15ThreadGroupImplC2ENS_16BasicStringPieceINSt3__112basic_stringIcNS3_11char_traitsIcEENS3_9allocatorIcEEEEEESA_NS_14ThreadPriorityENS0_10TrackedRefINS0_11TaskTrackerEEENSC_INS0_11ThreadGroup8DelegateEEE
__ZN4base8internal11ThreadGroupC2ENS0_10TrackedRefINS0_11TaskTrackerEEENS2_INS1_8DelegateEEEPS1_
__ZN4base8internal13PriorityQueueC1Ev
__ZNSt3__16vectorIN4base8internal13PriorityQueue20TaskSourceAndSortKeyENS_9allocatorIS4_EEE7reserveEm
__ZN4base8internal10TrackedRefINS0_11ThreadGroup8DelegateEED2Ev
__ZN4base8internal17WorkerThreadStackC1Ev
__ZN4base9Histogram14FactoryTimeGetERKNSt3__112basic_stringIcNS1_11char_traitsIcEENS1_9allocatorIcEEEENS_9TimeDeltaESA_ji
__ZNK4base9TimeDelta14InMillisecondsEv
__ZN4base8internal39CanUseBackgroundPriorityForWorkerThreadEv
__ZN4base8internal8LockImpl28PriorityInheritanceAvailableEv
__ZN4base14PlatformThread25CanIncreaseThreadPriorityENS_14ThreadPriorityE
__ZN8electron16AtomMainDelegate24PreCreateMainMessageLoopEv
__ZN8electron21InitializeFeatureListEv
__ZN4base11FeatureList18InitializeInstanceERKNSt3__112basic_stringIcNS1_11char_traitsIcEENS1_9allocatorIcEEEES9_
__ZN4base11FeatureList18InitializeInstanceERKNSt3__112basic_stringIcNS1_11char_traitsIcEENS1_9allocatorIcEEEES9_RKNS1_6vectorINS1_4pairIKNS1_17reference_wrapperIKNS_7FeatureEEENS0_13OverrideStateEEENS5_ISI_EEEE
__ZN4base11FeatureList32RegisterOverridesFromCommandLineERKNSt3__112basic_stringIcNS1_11char_traitsIcEENS1_9allocatorIcEEEENS0_13OverrideStateE
__ZN4base16SplitStringPieceENS_16BasicStringPieceINSt3__112basic_stringIcNS1_11char_traitsIcEENS1_9allocatorIcEEEEEES8_NS_18WhitespaceHandlingENS_11SplitResultE
__ZN4base8internal13find_first_ofERKNS_16BasicStringPieceINSt3__112basic_stringIcNS2_11char_traitsIcEENS2_9allocatorIcEEEEEESB_m
__ZN4base10TrimStringENS_16BasicStringPieceINSt3__112basic_stringIcNS1_11char_traitsIcEENS1_9allocatorIcEEEEEES8_NS_13TrimPositionsE
__ZN4base11FeatureList16RegisterOverrideENS_16BasicStringPieceINSt3__112basic_stringIcNS2_11char_traitsIcEENS2_9allocatorIcEEEEEENS0_13OverrideStateEPNS_10FieldTrialE
__ZNSt3__16__treeINS_12__value_typeINS_12basic_stringIcNS_11char_traitsIcEENS_9allocatorIcEEEEN4base11FeatureList13OverrideEntryEEENS_19__map_value_compareIS7_SB_NS_4lessIvEELb1EEENS5_ISB_EEE12__find_equalIS7_EERPNS_16__tree_node_baseIPvEERPNS_15__tree_end_nodeISM_EERKT_
__ZN4base11FeatureList11SetInstanceENSt3__110unique_ptrIS0_NS1_14default_deleteIS0_EEEE
__ZN4base14FieldTrialList11GetInstanceEv
__ZN8electron17RegisterAtomCrAppEv
+[AtomApplication
-[AtomApplication
__ZZN4base9allocator35MallocZoneFunctionsToReplaceDefaultEvEN3$_88__invokeEP14_malloc_zone_tmm
__ZN4base9allocator12_GLOBAL__N_112MemalignImplEPKNS0_17AllocatorDispatchEmmPv
__ZZN4base9allocator35MallocZoneFunctionsToReplaceDefaultEvEN3$_38__invokeEP14_malloc_zone_tm
__ZN7content19BrowserTaskExecutor6CreateEv
__ZN4base22ThreadTaskRunnerHandle5IsSetEv
__ZN4base12LazyInstanceINS_18ThreadLocalPointerINS_22ThreadTaskRunnerHandleEEENS_8internal23LeakyLazyInstanceTraitsIS3_EEE7PointerEv
__ZN4base22LazyInstanceTraitsBaseINS_18ThreadLocalPointerINS_22ThreadTaskRunnerHandleEEEE3NewEPv
__ZN7content24BrowserUIThreadSchedulerC1Ev
__ZN7content24BrowserUIThreadSchedulerC2Ev
__ZN4base16sequence_manager15SequenceManager8Settings7BuilderC1Ev
__ZN4base16sequence_manager15SequenceManager8Settings7Builder18SetMessagePumpTypeENS_15MessagePumpTypeE
__ZN4base16sequence_manager15SequenceManager8Settings7Builder5BuildEv
__ZN4base16sequence_manager28CreateUnboundSequenceManagerENS0_15SequenceManager8SettingsE
__ZN4base16sequence_manager15SequenceManager8SettingsC1EOS2_
__ZN4base16sequence_manager8internal19SequenceManagerImpl13CreateUnboundENS0_15SequenceManager8SettingsE
__ZN4base16sequence_manager8internal35ThreadControllerWithMessagePumpImpl13CreateUnboundERKNS0_15SequenceManager8SettingsE
__ZN4base16sequence_manager8internal35ThreadControllerWithMessagePumpImplC2ERKNS0_15SequenceManager8SettingsE
__ZN4base7RunLoop8DelegateC2Ev
__ZN4base17ThreadCheckerImpl16DetachFromThreadEv
__ZN4base16sequence_manager8internal18AssociatedThreadIdC1Ev
__ZN4base16sequence_manager8internal16WorkDeduplicatorC1E13scoped_refptrINS1_18AssociatedThreadIdEE
__ZN4base8internal23SequenceLocalStorageMapC1Ev
__ZN4base16sequence_manager8internal19SequenceManagerImplC2ENSt3__110unique_ptrINS1_16ThreadControllerENS3_14default_deleteIS5_EEEENS0_15SequenceManager8SettingsE
__ZNK4base16sequence_manager8internal35ThreadControllerWithMessagePumpImpl19GetAssociatedThreadEv
__ZN4base16sequence_manager8internal21EnqueueOrderGeneratorC1Ev
__ZN4base16sequence_manager15SequenceManager23MetricRecordingSettingsC1Ed
__ZN4base16sequence_manager8internal13AtomicFlagSetC1E13scoped_refptrINS1_18AssociatedThreadIdEE
__ZN4base16sequence_manager8internal19SequenceManagerImpl14MainThreadOnlyC2ERK13scoped_refptrINS1_18AssociatedThreadIdEERKNS0_15SequenceManager8SettingsE
__ZN4base16sequence_manager8internal17TaskQueueSelectorC1E13scoped_refptrINS1_18AssociatedThreadIdEERKNS0_15SequenceManager8SettingsE
__ZN4base16sequence_manager8internal13WorkQueueSetsC1EPKcPNS2_8ObserverERKNS0_15SequenceManager8SettingsE
__ZN4base16sequence_manager8internal14RealTimeDomainC1Ev
__ZN4base16sequence_manager10TimeDomainC2Ev
__ZNSt3__16__treeIN4base16sequence_manager9TaskQueue13QueuePriorityENS_4lessIS4_EENS_9allocatorIS4_EEE20__emplace_hint_multiIJRKS4_EEENS_15__tree_iteratorIS4_PNS_11__tree_nodeIS4_PvEElEENS_21__tree_const_iteratorIS4_SH_lEEDpOT_
__ZNSt3__16vectorIN4base16sequence_manager8internal19SequenceManagerImpl13ExecutingTaskENS_9allocatorIS5_EEE7reserveEm
__ZN4base8internal18WeakPtrFactoryBaseC2Em
__ZN4base16sequence_manager8internal19SequenceManagerImpl16main_thread_onlyEv
__ZNK4base17ThreadCheckerImpl19CalledOnValidThreadEv
__ZN4base18ThreadLocalStorage16HasBeenDestroyedEv
__ZNK4base9TaskTokeneqERKS0_
__ZNK4base13SequenceToken7IsValidEv
__ZN4base16sequence_manager8internal17TaskQueueSelector28SetTaskQueueSelectorObserverEPNS2_8ObserverE
__ZNK4base16DefaultTickClock8NowTicksEv
__ZN4base9TimeTicks3NowEv
__ZN4base6subtle28TimeTicksNowIgnoringOverrideEv
__ZN12_GLOBAL__N_123MachAbsoluteTimeToTicksEy
__ZN4base13time_internal12SaturatedAddExNS_9TimeDeltaE
__ZN4base16sequence_manager8internal19SequenceManagerImpl18RegisterTimeDomainEPNS0_10TimeDomainE
__ZN4base16sequence_manager8internal14RealTimeDomain29OnRegisterWithSequenceManagerEPNS1_19SequenceManagerImplE
__ZN4base16sequence_manager10TimeDomain29OnRegisterWithSequenceManagerEPNS0_8internal19SequenceManagerImplE
__ZN4base16sequence_manager8internal18AssociatedThreadIdD1Ev
__ZN4base19SequenceCheckerImplD2Ev
__ZN4base17ThreadCheckerImplD2Ev
__ZNK4base16sequence_manager8internal19SequenceManagerImpl12GetTickClockEv
__ZN4base16sequence_manager8internal35ThreadControllerWithMessagePumpImpl8GetClockEv
__ZN4base16sequence_manager8internal35ThreadControllerWithMessagePumpImpl22SetSequencedTaskSourceEPNS1_19SequencedTaskSourceE
__ZN4base16sequence_manager8internal35ThreadControllerWithMessagePumpImpl16main_thread_onlyEv
__ZN4base16sequence_manager15SequenceManager8Settings7BuilderD1Ev
__ZNK4base16sequence_manager8internal19SequenceManagerImpl17GetRealTimeDomainEv
__ZNK4base16sequence_manager8internal19SequenceManagerImpl16main_thread_onlyEv
__ZN7content17BrowserTaskQueuesC1ENS_13BrowserThread2IDEPN4base16sequence_manager15SequenceManagerEPNS4_10TimeDomainE
__ZN7content17BrowserTaskQueuesC2ENS_13BrowserThread2IDEPN4base16sequence_manager15SequenceManagerEPNS4_10TimeDomainE
__ZN4base16sequence_manager8internal19SequenceManagerImpl15CreateTaskQueueERKNS0_9TaskQueue4SpecE
__ZN4base16sequence_manager8internal19SequenceManagerImpl19CreateTaskQueueImplERKNS0_9TaskQueue4SpecE
__ZN4base16sequence_manager8internal13TaskQueueImplC1EPNS1_19SequenceManagerImplEPNS0_10TimeDomainERKNS0_9TaskQueue4SpecE
__ZN4base16sequence_manager8internal13TaskQueueImplC2EPNS1_19SequenceManagerImplEPNS0_10TimeDomainERKNS0_9TaskQueue4SpecE
__ZN4base8internal20OperationsControllerC1Ev
__ZN4base16sequence_manager8internal9WorkQueueC1EPNS1_13TaskQueueImplEPKcNS3_13WorkQueueTypeE
__ZN4base16sequence_manager8internal19SequenceManagerImpl35GetFlagToRequestReloadForEmptyQueueEPNS1_13TaskQueueImplE
__ZN4base8internal8BindImplINS_17RepeatingCallbackEMNS_16sequence_manager8internal13TaskQueueImplEFvvEJNS0_17UnretainedWrapperIS5_EEEEEDcOT0_DpOT1_
__ZN4base16sequence_manager8internal13AtomicFlagSet7AddFlagENS_17RepeatingCallbackIFvvEEE
__ZN4base16sequence_manager8internal13AtomicFlagSet14AddToAllocListENSt3__110unique_ptrINS2_5GroupENS3_14default_deleteIS5_EEEE
__ZN4base16sequence_manager8internal13AtomicFlagSet22AddToPartiallyFreeListEPNS2_5GroupE
__ZNK4base16sequence_manager8internal13AtomicFlagSet5Group24FindFirstUnallocatedFlagEv
__ZN4base8internal20CallbackBaseCopyableaSEOS1_
__ZN4base16sequence_manager8internal13TaskQueueImpl33UpdateCrossThreadQueueStateLockedEv
__ZN4base16sequence_manager8internal13TaskQueueImpl16main_thread_onlyEv
__ZNK4base16sequence_manager8internal13TaskQueueImpl16main_thread_onlyEv
__ZN4base8internal20OperationsController24StartAcceptingOperationsEv
__ZN4base8internal20OperationsController11DecrementByEj
__ZN4base16sequence_manager8internal17TaskQueueSelector8AddQueueEPNS1_13TaskQueueImplE
__ZNK4base16sequence_manager8internal13TaskQueueImpl14IsQueueEnabledEv
__ZN4base16sequence_manager8internal17TaskQueueSelector12AddQueueImplEPNS1_13TaskQueueImplENS0_9TaskQueue13QueuePriorityE
__ZNK4base16sequence_manager8internal17TaskQueueSelector25CheckContainsQueueForTestEPKNS1_13TaskQueueImplE
__ZNK4base16sequence_manager8internal13WorkQueueSets24ContainsWorkQueueForTestEPKNS1_9WorkQueueE
__ZNK4base16sequence_manager8internal9WorkQueue24GetFrontTaskEnqueueOrderEPNS0_12EnqueueOrderE
__ZN4base16sequence_manager8internal13WorkQueueSets8AddQueueEPNS1_9WorkQueueEm
__ZN4base16sequence_manager8internal9WorkQueue21AssignToWorkQueueSetsEPNS1_13WorkQueueSetsE
__ZN4base16sequence_manager8internal9WorkQueue14AssignSetIndexEm
__ZN4base16sequence_manager9TaskQueueC1ENSt3__110unique_ptrINS0_8internal13TaskQueueImplENS2_14default_deleteIS5_EEEERKNS1_4SpecE
__ZN4base16sequence_manager9TaskQueueC2ENSt3__110unique_ptrINS0_8internal13TaskQueueImplENS2_14default_deleteIS5_EEEERKNS1_4SpecE
__ZN4base8internal15CheckedLockImplC2ENS0_20UniversalPredecessorE
__ZN4base16sequence_manager8internal13TaskQueueImpl25GetSequenceManagerWeakPtrEv
__ZN4base16sequence_manager8internal19SequenceManagerImpl10GetWeakPtrEv
__ZNK4base8internal18WeakReferenceOwner6GetRefEv
__ZN4base8internal11WeakPtrBaseC2ERKNS0_13WeakReferenceEm
__ZN4base8internal13WeakReferenceD1Ev
__ZNK4base16sequence_manager8internal13TaskQueueImpl16CreateTaskRunnerEh
__ZN4base10TaskRunnerC2Ev
__ZNK4base16sequence_manager8internal13TaskQueueImpl7GetNameEv
__ZN4base16sequence_manager9TaskQueue23CreateQueueEnabledVoterEv
__ZN4base16sequence_manager9TaskQueue20AddQueueEnabledVoterEb
__ZN4base16sequence_manager9TaskQueue17QueueEnabledVoter15SetVoteToEnableEb
__ZN4base16sequence_manager9TaskQueue25OnQueueEnabledVoteChangedEb
__ZN4base16sequence_manager8internal13TaskQueueImpl15SetQueueEnabledEb
__ZNK4base16sequence_manager8internal14RealTimeDomain3NowEv
__ZNK4base16sequence_manager8internal14RealTimeDomain13CreateLazyNowEv
__ZN4base16sequence_manager7LazyNowC1EPKNS_9TickClockE
__ZN4base16sequence_manager8internal13TaskQueueImpl23UpdateDelayedWakeUpImplEPNS0_7LazyNowENS_8OptionalINS1_13DelayedWakeUpEEE
__ZN4base8internal15CheckedLockImpl7AcquireEv
__ZN4base8internal30CheckedThreadLocalOwnedPointerINSt3__16vectorIPKNS0_15CheckedLockImplENS2_9allocatorIS6_EEEEE3SetENS2_10unique_ptrIS9_NS2_14default_deleteIS9_EEEE
__ZNK4base8internal15CheckedLockImpl14AssertAcquiredEv
__ZN4base8internal15CheckedLockImpl7ReleaseEv
__ZN4base16sequence_manager8internal17TaskQueueSelector12DisableQueueEPNS1_13TaskQueueImplE
__ZN4base16sequence_manager8internal17TaskQueueSelector15RemoveQueueImplEPNS1_13TaskQueueImplE
__ZN4base16sequence_manager8internal13WorkQueueSets11RemoveQueueEPNS1_9WorkQueueE
__ZN4base16sequence_manager9TaskQueue16SetQueuePriorityENS1_13QueuePriorityE
__ZN4base16sequence_manager8internal13TaskQueueImpl16SetQueuePriorityENS0_9TaskQueue13QueuePriorityE
__ZNK4base16sequence_manager8internal13TaskQueueImpl16GetQueuePriorityEv
__ZN4base16sequence_manager8internal17TaskQueueSelector16SetQueuePriorityEPNS1_13TaskQueueImplENS0_9TaskQueue13QueuePriorityE
__ZN4base16sequence_manager8internal17TaskQueueSelector14ChangeSetIndexEPNS1_13TaskQueueImplENS0_9TaskQueue13QueuePriorityE
__ZN4base16sequence_manager8internal13WorkQueueSets14ChangeSetIndexEPNS1_9WorkQueueEm
__ZN7content17BrowserTaskQueues6HandleC2EPS0_
__ZNK7content17BrowserTaskQueues24CreateBrowserTaskRunnersEv
__ZN4base8AdoptRefIN7content17BrowserTaskQueues6HandleEEE13scoped_refptrIT_EPS5_
__ZN4base16sequence_manager9TaskQueue11SetObserverEPNS1_8ObserverE
__ZN4base16sequence_manager8internal13TaskQueueImpl11SetObserverEPNS0_9TaskQueue8ObserverE
__ZN4base16sequence_manager8internal19SequenceManagerImpl15EnableCrashKeysEPKc
__ZN4base5debug22AllocateCrashKeyStringEPKcNS0_12CrashKeySizeE
__ZN4base16sequence_manager8internal19SequenceManagerImpl20SetDefaultTaskRunnerE13scoped_refptrINS_22SingleThreadTaskRunnerEE
__ZN4base16sequence_manager8internal35ThreadControllerWithMessagePumpImpl20SetDefaultTaskRunnerE13scoped_refptrINS_22SingleThreadTaskRunnerEE
__ZN4base11MessagePump6CreateENS_15MessagePumpTypeE
__ZN4base14MessagePumpMac6CreateEv
__ZN4base24MessagePumpNSApplicationC2Ev
__ZN4base24MessagePumpCFRunLoopBaseC2Ei
__ZN4base11MessagePumpC2Ev
__ZN4base24MessagePumpCFRunLoopBase11SetModeMaskEi
__ZN4base24MessagePumpCFRunLoopBase17ScopedModeEnablerC2EPS0_i
__ZN4base16sequence_manager8internal19SequenceManagerImpl17BindToMessagePumpENSt3__110unique_ptrINS_11MessagePumpENS3_14default_deleteIS5_EEEE
__ZN4base16sequence_manager8internal35ThreadControllerWithMessagePumpImpl19BindToCurrentThreadENSt3__110unique_ptrINS_11MessagePumpENS3_14default_deleteIS5_EEEE
__ZN4base16sequence_manager8internal18AssociatedThreadId19BindToCurrentThreadEv
__ZNK4base19SequenceCheckerImpl21CalledOnValidSequenceEv
__ZN4base14WorkIdProvider19GetForCurrentThreadEv
__ZN4base8internal30CheckedThreadLocalOwnedPointerINS_14WorkIdProviderEE3SetENSt3__110unique_ptrIS2_NS4_14default_deleteIS2_EEEE
__ZN4base7RunLoop32RegisterDelegateForCurrentThreadEPNS0_8DelegateE
__ZN4base8internal48ScopedSetSequenceLocalStorageMapForCurrentThreadC1EPNS0_23SequenceLocalStorageMapE
__ZN4base8internal48ScopedSetSequenceLocalStorageMapForCurrentThreadC2EPNS0_23SequenceLocalStorageMapE
__ZN4base12LazyInstanceINS_18ThreadLocalPointerINS_8internal23SequenceLocalStorageMapEEENS2_23LeakyLazyInstanceTraitsIS4_EEE7PointerEv
__ZN4base22LazyInstanceTraitsBaseINS_18ThreadLocalPointerINS_8internal23SequenceLocalStorageMapEEEE3NewEPv
__ZN4base16sequence_manager8internal35ThreadControllerWithMessagePumpImpl32InitializeThreadTaskRunnerHandleEv
__ZN4base22ThreadTaskRunnerHandleC1E13scoped_refptrINS_22SingleThreadTaskRunnerEE
__ZN4base22ThreadTaskRunnerHandleC2E13scoped_refptrINS_22SingleThreadTaskRunnerEE
__ZN4base25SequencedTaskRunnerHandleC1E13scoped_refptrINS_19SequencedTaskRunnerEE
__ZN4base25SequencedTaskRunnerHandleC2E13scoped_refptrINS_19SequencedTaskRunnerEE
__ZNK4base16sequence_manager8internal13TaskQueueImpl10TaskRunner26RunsTasksInCurrentSequenceEv
__ZN4base12LazyInstanceINS_18ThreadLocalPointerINS_25SequencedTaskRunnerHandleEEENS_8internal23LeakyLazyInstanceTraitsIS3_EEE7PointerEv
__ZN4base22LazyInstanceTraitsBaseINS_18ThreadLocalPointerINS_25SequencedTaskRunnerHandleEEEE3NewEPv
__ZN4base16sequence_manager8internal16WorkDeduplicator19BindToCurrentThreadEv
__ZN4base16sequence_manager8internal19SequenceManagerImpl35CompleteInitializationOnBoundThreadEv
__ZN4base16sequence_manager8internal35ThreadControllerWithMessagePumpImpl18AddNestingObserverEPNS_7RunLoop15NestingObserverE
__ZN4base7RunLoop33AddNestingObserverOnCurrentThreadEPNS0_15NestingObserverE
__ZN4base12ObserverListINS_7RunLoop15NestingObserverELb0ELb1ENS_8internal24UncheckedObserverAdapterEE11AddObserverEPS2_
__ZNK4base16sequence_manager8internal35ThreadControllerWithMessagePumpImpl19GetBoundMessagePumpEv
__ZN7content23BrowserIOThreadDelegateC1Ev
__ZN7content23BrowserIOThreadDelegate4InitEv
__ZN7content19BrowserTaskExecutor14CreateInternalENSt3__110unique_ptrINS_24BrowserUIThreadSchedulerENS1_14default_deleteIS3_EEEENS2_INS_23BrowserIOThreadDelegateENS4_IS7_EEEE
__ZN7content19BrowserTaskExecutorC2ENSt3__110unique_ptrINS_24BrowserUIThreadSchedulerENS1_14default_deleteIS3_EEEENS2_INS_23BrowserIOThreadDelegateENS4_IS7_EEEE
__ZN7content23BrowserIOThreadDelegate15SetTaskExecutorEPN4base12TaskExecutorE
__ZN4base20RegisterTaskExecutorEhPNS_12TaskExecutorE
__ZN7content17BrowserTaskQueues6Handle31EnableAllExceptBestEffortQueuesEv
__ZN4base8internal8BindImplINS_12OnceCallbackEMN7content17BrowserTaskQueuesEFvvEJNS0_17UnretainedWrapperIS4_EEEEEDcOT0_DpOT1_
__ZN4base10TaskRunner8PostTaskERKNS_8LocationENS_12OnceCallbackIFvvEEE
__ZN4base16sequence_manager8internal13TaskQueueImpl10TaskRunner15PostDelayedTaskERKNS_8LocationENS_12OnceCallbackIFvvEEENS_9TimeDeltaE
__ZN4base8LocationC1ERKS0_
__ZN4base16sequence_manager8internal10PostedTaskC1E13scoped_refptrINS_19SequencedTaskRunnerEENS_12OnceCallbackIFvvEEENS_8LocationENS_9TimeDeltaENS_8NestableEh
__ZN4base16sequence_manager8internal13TaskQueueImpl17GuardedTaskPoster8PostTaskENS1_10PostedTaskE
__ZN4base22ScopedDeferTaskPostingC1Ev
__ZN4base22ScopedDeferTaskPosting3SetEPS0_
__ZN4base8internal20OperationsController17TryBeginOperationEv
__ZN4base16sequence_manager8internal10PostedTaskC1EOS2_
__ZN4base16sequence_manager8internal13TaskQueueImpl8PostTaskENS1_10PostedTaskE
__ZN4base16sequence_manager8internal13TaskQueueImpl16MaybeLogPostTaskEPNS1_10PostedTaskE
__ZN4base16sequence_manager8internal13TaskQueueImpl20MaybeAdjustTaskDelayEPNS1_10PostedTaskENS2_13CurrentThreadE
__ZN4base16sequence_manager8internal13TaskQueueImpl21PostImmediateTaskImplENS1_10PostedTaskENS2_13CurrentThreadE
__ZN4base16sequence_manager8internal19SequenceManagerImpl22GetAddQueueTimeToTasksEv
__ZN4base16sequence_manager8internal19SequenceManagerImpl21GetNextSequenceNumberEv
__ZN4base16sequence_manager4TaskC1ENS0_8internal10PostedTaskENS_9TimeTicksENS0_12EnqueueOrderES5_NS2_16WakeUpResolutionE
__ZN4base11PendingTaskC2ERKNS_8LocationENS_12OnceCallbackIFvvEEENS_9TimeTicksENS_8NestableE
__ZN4base16sequence_manager8internal22LazilyDeallocatedDequeINS0_4TaskEXadL_ZNS_6subtle28TimeTicksNowIgnoringOverrideEvEEE9push_backES3_
__ZN4base16sequence_manager8internal22LazilyDeallocatedDequeINS0_4TaskEXadL_ZNS_6subtle28TimeTicksNowIgnoringOverrideEvEEE4Ring9push_backEOS3_
__ZN4base16sequence_manager4TaskC1EOS1_
__ZN4base11PendingTaskC2EOS0_
__ZN4base16sequence_manager4TaskD1Ev
__ZN4base11PendingTaskD2Ev
__ZN4base16sequence_manager8internal10PostedTaskD1Ev
__ZN4base16sequence_manager8internal22LazilyDeallocatedDequeINS0_4TaskEXadL_ZNS_6subtle28TimeTicksNowIgnoringOverrideEvEEE4backEv
__ZN4base16sequence_manager8internal19SequenceManagerImpl13WillQueueTaskEPNS0_4TaskEPKc
__ZN4base16sequence_manager8internal35ThreadControllerWithMessagePumpImpl13WillQueueTaskEPNS_11PendingTaskEPKc
__ZN4base13TaskAnnotator13WillQueueTaskEPKcPNS_11PendingTaskES2_
__ZN4base16sequence_manager8internal13TaskQueueImpl43MaybeReportIpcTaskQueuedFromAnyThreadLockedEPNS0_4TaskEPKc
__ZN4base16sequence_manager8internal13AtomicFlagSet10AtomicFlag9SetActiveEb
__ZN4base16sequence_manager8internal19SequenceManagerImpl12ScheduleWorkEv
__ZN4base16sequence_manager8internal35ThreadControllerWithMessagePumpImpl12ScheduleWorkEv
__ZN4base8internal15CheckedLockImpl31AssertNoLockHeldOnCurrentThreadEv
__ZN4base16sequence_manager8internal16WorkDeduplicator15OnWorkRequestedEv
__ZN4base24MessagePumpCFRunLoopBase12ScheduleWorkEv
__ZNK4base16sequence_manager8internal13TaskQueueImpl14TraceQueueSizeEv
__ZN4base22ScopedDeferTaskPostingD1Ev
__ZN4base22ScopedDeferTaskPostingD2Ev
__ZN4base31SetTaskExecutorForCurrentThreadEPNS_12TaskExecutorE
__ZN8electron16AtomMainDelegate23PostEarlyInitializationEb
__ZN2ui14ResourceBundle28InitSharedInstanceWithLocaleERKNSt3__112basic_stringIcNS1_11char_traitsIcEENS1_9allocatorIcEEEEPNS0_8DelegateENS0_13LoadResourcesE
__ZN2ui14ResourceBundle18InitSharedInstanceEPNS0_8DelegateE
__ZN3gfx5ImageC1Ev
__ZN2ui24SetSupportedScaleFactorsERKNSt3__16vectorINS_11ScaleFactorENS0_9allocatorIS2_EEEE
__ZNSt3__16__sortIRZN2ui24SetSupportedScaleFactorsERKNS_6vectorINS1_11ScaleFactorENS_9allocatorIS3_EEEEE3$_0PS3_EEvT0_SC_T_
__ZN2ui22GetScaleForScaleFactorENS_11ScaleFactorE
__ZN3gfx9ImageSkia18SetSupportedScalesERKNSt3__16vectorIfNS1_9allocatorIfEEEE
__ZNSt3__16__sortIRNS_6__lessIffEEPfEEvT0_S5_T_
__ZN2ui14ResourceBundle19LoadCommonResourcesEv
__ZN2ui12_GLOBAL__N_123GetResourcesPakFilePathEP8NSStringS2_
__ZN2ui14ResourceBundle19AddDataPackFromPathERKN4base8FilePathENS_11ScaleFactorE
__ZN2ui14ResourceBundle27AddDataPackFromPathInternalERKN4base8FilePathENS_11ScaleFactorEb
__ZN2ui8DataPackC1ENS_11ScaleFactorE
__ZN2ui8DataPack12LoadFromPathERKN4base8FilePathE
__ZN4base16MemoryMappedFile10InitializeERKNS_8FilePathENS0_6AccessE
__ZN2ui8DataPack8LoadImplENSt3__110unique_ptrINS0_10DataSourceENS1_14default_deleteIS3_EEEE
__ZNK2ui8DataPack22MemoryMappedDataSource7GetDataEv
__ZNK2ui8DataPack22MemoryMappedDataSource9GetLengthEv
__ZN2ui14ResourceBundle11AddDataPackENSt3__110unique_ptrINS_8DataPackENS1_14default_deleteIS3_EEEE
__ZN2ui8DataPack26CheckForDuplicateResourcesERKNSt3__16vectorINS1_10unique_ptrINS_14ResourceHandleENS1_14default_deleteIS4_EEEENS1_9allocatorIS7_EEEE
__ZNK2ui8DataPack14GetScaleFactorEv
__ZNSt3__16vectorINS_10unique_ptrIN2ui14ResourceHandleENS_14default_deleteIS3_EEEENS_9allocatorIS6_EEE21__push_back_slow_pathIS6_EEvOT_
__ZN2ui14ResourceBundle22IsScaleFactorSupportedENS_11ScaleFactorE
__ZN2ui24GetSupportedScaleFactorsEv
__ZN2ui14ResourceBundle19LoadLocaleResourcesERKNSt3__112basic_stringIcNS1_11char_traitsIcEENS1_9allocatorIcEEEE
__ZN9l10n_util20GetApplicationLocaleERKNSt3__112basic_stringIcNS0_11char_traitsIcEENS0_9allocatorIcEEEE
__ZN9l10n_util20GetApplicationLocaleERKNSt3__112basic_stringIcNS0_11char_traitsIcEENS0_9allocatorIcEEEEb
__ZN9l10n_util17GetLocaleOverrideEv
__ZN4base22LazyInstanceTraitsBaseINSt3__112basic_stringIcNS1_11char_traitsIcEENS1_9allocatorIcEEEEE3NewEPv
__ZN4base4i18n19SetICUDefaultLocaleERKNSt3__112basic_stringIcNS1_11char_traitsIcEENS1_9allocatorIcEEEE
__ZN4base4i18n13ICULocaleNameERKNSt3__112basic_stringIcNS1_11char_traitsIcEENS1_9allocatorIcEEEE
__ZN6icu_646LocaleC1EPKcS2_S2_S2_
__ZN6icu_646LocaleC2EPKcS2_S2_S2_
__ZN6icu_6410CharString6appendEPKciR10UErrorCode
__ZN6icu_6410CharString14ensureCapacityEiiR10UErrorCode
__ZN6icu_646Locale4initEPKca
_uprv_free_64
_uloc_getName_64
__ZL13_canonicalizePKcPcijP10UErrorCode
_ulocimp_getLanguage_64
_uprv_stricmp_64
_uprv_strnicmp_64
_uprv_asciitolower_64
_ulocimp_getScript_64
_uprv_isASCIILetter_64
_ulocimp_getCountry_64
_uprv_toupper_64
_u_terminateChars_64
__ZN6icu_646Locale12initBaseNameER10UErrorCode
__ZN6icu_646Locale10setDefaultERKS0_R10UErrorCode
__ZN6icu_6427locale_set_default_internalEPKcR10UErrorCode
_uhash_open_64
_uhash_setValueDeleter_64
_uhash_get_64
_uhash_hashChars_64
_ustr_hashCharsN_64
_uhash_put_64
__ZL10_uhash_putP10UHashtable8UElementS1_aP10UErrorCode
__ZN6icu_646LocaleD1Ev
__ZN6icu_647UObjectD2Ev
__ZN2ui14ResourceBundle17GetLocaleFilePathERKNSt3__112basic_stringIcNS1_11char_traitsIcEENS1_9allocatorIcEEEEb
__ZN2ui14ResourceBundle17HasSharedInstanceEv
__ZN2ui14ResourceBundle17GetSharedInstanceEv
__ZN4base8FilePathC1EOS0_
__ZN3gfx8FontList25SetDefaultFontDescriptionERKNSt3__112basic_stringIcNS1_11char_traitsIcEENS1_9allocatorIcEEEE
__ZN4base12LazyInstanceINSt3__112basic_stringIcNS1_11char_traitsIcEENS1_9allocatorIcEEEENS_8internal23LeakyLazyInstanceTraitsIS7_EEE7PointerEv
__ZN9l10n_util29OverrideLocaleWithCocoaLocaleEv
__ZN4base3mac11OuterBundleEv
__ZN8electron18LoadResourceBundleERKNSt3__112basic_stringIcNS0_11char_traitsIcEENS0_9allocatorIcEEEE
__ZN2ui14ResourceBundle21CleanupSharedInstanceEv
__ZN2ui14ResourceBundleD2Ev
__ZNSt3__16__treeINS_12__value_typeIiN3gfx5ImageEEENS_19__map_value_compareIiS4_NS_4lessIiEELb1EEENS_9allocatorIS4_EEE7destroyEPNS_11__tree_nodeIS4_PvEE
__ZN2ui8DataPackD0Ev
__ZN2ui8DataPack22MemoryMappedDataSourceD0Ev
__ZN4base16MemoryMappedFileD1Ev
__ZN4base16MemoryMappedFile12CloseHandlesEv
__ZN4base8internal19ScopedFDCloseTraits4FreeEi
_close
__ZNSt3__16__treeINS_12__value_typeIN2ui14ResourceBundle7FontKeyEN3gfx8FontListEEENS_19__map_value_compareIS4_S7_NS_4lessIS4_EELb1EEENS_9allocatorIS7_EEE7destroyEPNS_11__tree_nodeIS7_PvEE
__ZN3gfx5ImageD1Ev
__ZN4base3mac19FrameworkBundlePathEv
__ZN4base3mac18NSStringToFilePathEP8NSString
_uhash_compareChars_64
__ZN2ui14ResourceBundle21ReloadLocaleResourcesERKNSt3__112basic_stringIcNS1_11char_traitsIcEENS1_9allocatorIcEEEE
__ZNK2ui8DataPack11HasResourceEt
__ZN2ui8DataPack5Entry11CompareByIdEPKvS3_
__ZN2ui8DataPack5Alias11CompareByIdEPKvS3_
__ZN8electron17AtomBrowserClient20SetApplicationLocaleERKNSt3__112basic_stringIcNS1_11char_traitsIcEENS1_9allocatorIcEEEE
__ZN7content13BrowserThread19IsThreadInitializedENS0_2IDE
__ZN4base12LazyInstanceINSt3__112basic_stringIcNS1_11char_traitsIcEENS1_9allocatorIcEEEENS_8internal34DestructorAtExitLazyInstanceTraitsIS7_EEE7PointerEv
__ZN7content22StartBrowserThreadPoolEv
__ZN4base42RecommendedMaxNumberOfThreadsInThreadGroupEiidi
__ZN4base7SysInfo18NumberOfProcessorsEv
__ZN4base18ThreadPoolInstance10InitParamsC1Ei
__ZN4base18ThreadPoolInstance3GetEv
__ZN4base8internal14ThreadPoolImpl5StartERKNS_18ThreadPoolInstance10InitParamsEPNS_20WorkerThreadObserverE
__ZN4base8internal33InitializeThreadPrioritiesFeatureEv
__ZN4base11FeatureList11GetInstanceEv
__ZN4base11FeatureList9IsEnabledERKNS_7FeatureE
__ZN4base11FeatureList16IsFeatureEnabledERKNS_7FeatureE
__ZN4base11FeatureList20CheckFeatureIdentityERKNS_7FeatureE
__ZNSt3__16__treeINS_12__value_typeINS_12basic_stringIcNS_11char_traitsIcEENS_9allocatorIcEEEEPKN4base7FeatureEEENS_19__map_value_compareIS7_SC_NS_4lessIS7_EELb1EEENS5_ISC_EEE4findIS7_EENS_15__tree_iteratorISC_PNS_11__tree_nodeISC_PvEElEERKT_
__ZNSt3__16__treeINS_12__value_typeINS_12basic_stringIcNS_11char_traitsIcEENS_9allocatorIcEEEEPKN4base7FeatureEEENS_19__map_value_compareIS7_SC_NS_4lessIS7_EELb1EEENS5_ISC_EEE12__find_equalIS7_EERPNS_16__tree_node_baseIPvEERPNS_15__tree_end_nodeISN_EERKT_
__ZN4base6Thread7OptionsC1Ev
__ZN4base6Thread16StartWithOptionsERKNS0_7OptionsE
__ZN4base13WaitableEvent5ResetEv
__ZN4base13WaitableEvent8PeekPortEjb
__ZN4base12_GLOBAL__N_129SequenceManagerThreadDelegateC1ENS_15MessagePumpTypeENS_12OnceCallbackIFNSt3__110unique_ptrINS_11MessagePumpENS4_14default_deleteIS6_EEEEvEEE
__ZN4base14PlatformThread18CreateWithPriorityEmPNS0_8DelegateEPNS_20PlatformThreadHandleENS_14ThreadPriorityE
__ZN4base12_GLOBAL__N_112CreateThreadEmbPNS_14PlatformThread8DelegateEPNS_20PlatformThreadHandleENS_14ThreadPriorityE
__ZN4base13InitThreadingEv
__ZN4base25GetDefaultThreadStackSizeERK22_opaque_pthread_attr_t
__ZNK4base6Thread11task_runnerEv
__ZN4base12_GLOBAL__N_129SequenceManagerThreadDelegate20GetDefaultTaskRunnerEv
__ZN4base16sequence_manager8internal19SequenceManagerImpl13GetTaskRunnerEv
__ZN4base16sequence_manager8internal35ThreadControllerWithMessagePumpImpl20GetDefaultTaskRunnerEv
__ZN4base8internal18DelayedTaskManager5StartE13scoped_refptrINS_10TaskRunnerEE
__ZN4base8internal18DelayedTaskManager39ScheduleProcessRipeTasksOnServiceThreadENS_9TimeTicksE
__ZN4base8internal35PooledSingleThreadTaskRunnerManager5StartEPNS_20WorkerThreadObserverE
__ZNSt3__16vectorI13scoped_refptrIN4base8internal12WorkerThreadEENS_9allocatorIS5_EEE6assignIPS5_EENS_9enable_ifIXaasr21__is_forward_iteratorIT_EE5valuesr16is_constructibleIS5_NS_15iterator_traitsISC_E9referenceEEE5valueEvE4typeESC_SC_
__ZN4base12_GLOBAL__N_110ThreadFuncEPv
__ZN4base14PlatformThread24SetCurrentThreadPriorityENS_14ThreadPriorityE
__ZN4base8internal15ThreadGroupImpl5StartEiiNS_9TimeDeltaE13scoped_refptrINS_10TaskRunnerEEPNS_20WorkerThreadObserverENS0_11ThreadGroup17WorkerEnvironmentENS_8OptionalIS2_EE
__ZN4base14PlatformThread28SetCurrentThreadPriorityImplENS_14ThreadPriorityE
__ZN4base8internal11ThreadGroup25BaseScopedWorkersExecutorC2Ev
__ZN4base8internal15ThreadGroupImpl31EnsureEnoughWorkersLockRequiredEPNS0_11ThreadGroup25BaseScopedWorkersExecutorE
__ZNK4base8internal11ThreadGroup59GetNumAdditionalWorkersForBestEffortTaskSourcesLockRequiredEv
__ZNK4base8internal11ThreadGroup59GetNumAdditionalWorkersForForegroundTaskSourcesLockRequiredEv
__ZNK4base8internal15ThreadGroupImpl30GetNumAwakeWorkersLockRequiredEv
__ZN4base8internal15ThreadGroupImpl40MaintainAtLeastOneIdleWorkerLockRequiredEPNS1_21ScopedWorkersExecutorE
__ZN4base8internal15ThreadGroupImpl35CreateAndRegisterWorkerLockRequiredEPNS1_21ScopedWorkersExecutorE
__ZN4base8internal10TrackedRefINS0_15ThreadGroupImplEED2Ev
__ZN4base8internal12WorkerThreadC1ENS_14ThreadPriorityENSt3__110unique_ptrINS1_8DelegateENS3_14default_deleteIS5_EEEENS0_10TrackedRefINS0_11TaskTrackerEEEPKNS0_11CheckedLockE
__ZN4base8internal12WorkerThreadC2ENS_14ThreadPriorityENSt3__110unique_ptrINS1_8DelegateENS3_14default_deleteIS5_EEEENS0_10TrackedRefINS0_11TaskTrackerEEEPKNS0_11CheckedLockE
__ZNK4base8internal11TaskTracker18HasShutdownStartedEv
__ZNSt3__16vectorI13scoped_refptrIN4base8internal12WorkerThreadEENS_9allocatorIS5_EEE21__push_back_slow_pathIRKS5_EEvOT_
__ZN4base8internal17WorkerThreadStack4PushEPNS0_12WorkerThreadE
__ZNK4base8internal13PriorityQueue7IsEmptyEv
__ZN4base8internal15ThreadGroupImpl39MaybeScheduleAdjustMaxTasksLockRequiredEPNS1_21ScopedWorkersExecutorE
__ZN4base8internal15ThreadGroupImpl21ScopedWorkersExecutorD2Ev
__ZN4base8internal15ThreadGroupImpl21ScopedWorkersExecutor15WorkerContainer13ForEachWorkerIZNS2_9FlushImplEvEUlPNS0_12WorkerThreadEE_EEvT_
__ZN4base8internal15ThreadGroupImpl21ScopedWorkersExecutor15WorkerContainer13ForEachWorkerIZNS2_9FlushImplEvEUlPNS0_12WorkerThreadEE0_EEvT_
__ZN4base8internal12WorkerThread5StartEPNS_20WorkerThreadObserverE
__ZN4base8internal11ThreadGroup25BaseScopedWorkersExecutorD2Ev
__ZN4base19ThreadIdNameManager11GetInstanceEv
__ZN4base9SingletonINS_19ThreadIdNameManagerENS_20LeakySingletonTraitsIS1_EES1_E3getEv
__ZN4base19ThreadIdNameManagerC2Ev
__ZNSt3__16__treeINS_12__value_typeINS_12basic_stringIcNS_11char_traitsIcEENS_9allocatorIcEEEEPS7_EENS_19__map_value_compareIS7_S9_NS_4lessIS7_EELb1EEENS5_IS9_EEE12__find_equalIS7_EERPNS_16__tree_node_baseIPvEERPNS_15__tree_end_nodeISK_EERKT_
__ZN4base19ThreadIdNameManager14RegisterThreadEP17_opaque_pthread_tj
__ZN4base6Thread10ThreadMainEv
__ZN4base13WaitableEvent10IsSignaledEv
__ZN4base6Thread7OptionsD1Ev
__ZN4base18ThreadPoolInstance10InitParamsD1Ev
__ZN7content19BrowserTaskExecutor20PostFeatureListSetupEv
__ZN7content17BrowserTaskQueues6Handle34PostFeatureListInitializationSetupEv
__ZN7tracing44InitTracingPostThreadPoolStartAndFeatureListEv
__ZN4base8internal12WorkerThread10ThreadMainEv
__ZN7tracing20TraceEventDataSource11GetInstanceEv
__ZN7tracing20TraceEventDataSourceC2Ev
__ZNK4base8internal15ThreadGroupImpl24WorkerThreadDelegateImpl14GetThreadLabelEv
__ZN4base8internal12WorkerThread15RunPooledWorkerEv
__ZN4base8internal12WorkerThread9RunWorkerEv
__ZN4base12OneShotTimerC1Ev
__ZN4base8internal15ThreadGroupImpl24WorkerThreadDelegateImpl11OnMainEntryEPKNS0_12WorkerThreadE
__ZN4base13WaitableEvent6SignalEv
__ZN4base14PlatformThread7SetNameERKNSt3__112basic_stringIcNS1_11char_traitsIcEENS1_9allocatorIcEEEE
__ZN4base19ThreadIdNameManager7SetNameERKNSt3__112basic_stringIcNS1_11char_traitsIcEENS1_9allocatorIcEEEE
__ZN7tracing20TraceEventDataSource24OnTaskSchedulerAvailableEv
__ZNSt3__16__treeINS_12__value_typeINS_12basic_stringIcNS_11char_traitsIcEENS_9allocatorIcEEEEPS7_EENS_19__map_value_compareIS7_S9_NS_4lessIS7_EELb1EEENS5_IS9_EEE4findIS7_EENS_15__tree_iteratorIS9_PNS_11__tree_nodeIS9_PvEElEERKT_
__ZN7tracing20IsTracingInitializedEv
__ZN7tracing24ShouldSetupSystemTracingEv
__ZN4base12StringPrintfEPKcz
__ZN4base13StringAppendVEPNSt3__112basic_stringIcNS0_11char_traitsIcEENS0_9allocatorIcEEEEPKcP13__va_list_tag
__ZN4base11trace_event24AllocationContextTracker20SetCurrentThreadNameEPKc
__ZN18discardable_memory30DiscardableSharedMemoryManagerC1Ev
__ZN18discardable_memory30DiscardableSharedMemoryManagerC2Ev
__ZN4base7SysInfo14IsLowEndDeviceEv
__ZN4base18DetectLowEndDeviceEv
__ZN4base8internal12WorkerThread25RunBackgroundPooledWorkerEv
__ZN4base7SysInfo26AmountOfPhysicalMemoryImplEv
__ZN4base12_GLOBAL__N_129SequenceManagerThreadDelegate19BindToCurrentThreadENS_10TimerSlackE
__ZN4base8internal7InvokerINS0_9BindStateIZNS_6Thread16StartWithOptionsERKNS3_7OptionsEE3$_0JNS_15MessagePumpTypeEEEEFNSt3__110unique_ptrINS_11MessagePumpENSA_14default_deleteISC_EEEEvEE7RunOnceEPNS0_13BindStateBaseE
__ZN4base17MessagePumpKqueueC1Ev
__ZN4base8internal11ThreadGroup19BindToCurrentThreadEv
__ZN4base12LazyInstanceINS_18ThreadLocalPointerIKNS_8internal11ThreadGroupEEENS2_23LeakyLazyInstanceTraitsIS5_EEE7PointerEv
__ZN4base22LazyInstanceTraitsBaseINS_18ThreadLocalPointerIKNS_8internal11ThreadGroupEEEE3NewEPv
__ZN4base8internal35SetBlockingObserverForCurrentThreadEPNS0_16BlockingObserverE
__ZN4base17MessagePumpKqueueC2Ev
__ZN4base8internal12WorkerThread8Delegate11WaitForWorkEPNS_13WaitableEventE
__ZN4base8internal15ThreadGroupImpl24WorkerThreadDelegateImpl15GetSleepTimeoutEv
__ZN4base13WaitableEvent9TimedWaitERKNS_9TimeDeltaE
__ZNK4base9TimeDelta23InMillisecondsRoundedUpEv
__ZN4base3mac8internal15SendRightTraits4FreeEj
__ZNK4base12FeatureParamIiLb0EE3GetEv
__ZN4base32GetFieldTrialParamByFeatureAsIntERKNS_7FeatureERKNSt3__112basic_stringIcNS3_11char_traitsIcEENS3_9allocatorIcEEEEi
__ZN4base32GetFieldTrialParamValueByFeatureERKNS_7FeatureERKNSt3__112basic_stringIcNS3_11char_traitsIcEENS3_9allocatorIcEEEE
__ZN4base7SysInfo22AmountOfPhysicalMemoryEv
__ZN4base8internal9BindStateIZNS_6Thread16StartWithOptionsERKNS2_7OptionsEE3$_0JNS_15MessagePumpTypeEEE7DestroyEPKNS0_13BindStateBaseE
__ZN4base8internal8BindImplINS_17RepeatingCallbackEMN18discardable_memory30DiscardableSharedMemoryManagerEFvNS_22MemoryPressureListener19MemoryPressureLevelEEJNS0_17UnretainedWrapperIS4_EEEEEDcOT0_DpOT1_
__ZN4base16sequence_manager8internal19SequenceManagerImpl13SetTimerSlackENS_10TimerSlackE
__ZN4base16sequence_manager8internal35ThreadControllerWithMessagePumpImpl13SetTimerSlackENS_10TimerSlackE
__ZN4base22MemoryPressureListenerC1ERKNS_17RepeatingCallbackIFvNS0_19MemoryPressureLevelEEEE
__ZN4base16sequence_manager8internal35ThreadControllerWithMessagePumpImpl26RunsTasksInCurrentSequenceEv
__ZN4base22MemoryPressureListenerC2ERKNS_17RepeatingCallbackIFvNS0_19MemoryPressureLevelEEEE
__ZN4base8internal20CallbackBaseCopyableC2ERKS1_
__ZN4base11MessagePump13SetTimerSlackENS_10TimerSlackE
__ZN4base12_GLOBAL__N_125GetMemoryPressureObserverEv
__ZN4base8internal19OptionalStorageBaseINS_18SimpleTaskExecutorELb0EE4InitIJPNS_16sequence_manager8internal19SequenceManagerImplE13scoped_refptrINS_22SingleThreadTaskRunnerEEEEEvDpOT_
__ZN4base22ObserverListThreadSafeINS_22MemoryPressureListenerEE11AddObserverEPS1_
__ZN4base25SequencedTaskRunnerHandle5IsSetEv
__ZN4base25SequencedTaskRunnerHandle3GetEv
__ZN4base18SimpleTaskExecutorC1EPNS_16sequence_manager15SequenceManagerE13scoped_refptrINS_22SingleThreadTaskRunnerEE
__ZN4base18SimpleTaskExecutorC2EPNS_16sequence_manager15SequenceManagerE13scoped_refptrINS_22SingleThreadTaskRunnerEE
__ZN4base31GetTaskExecutorForCurrentThreadEv
__ZN4base18MessageLoopCurrent3GetEv
__ZN4base16sequence_manager8internal19SequenceManagerImpl10GetCurrentEv
__ZN4base23MessageLoopCurrentForIO5IsSetEv
__ZNK4base16sequence_manager8internal19SequenceManagerImpl6IsTypeENS_15MessagePumpTypeE
__ZNSt3__112__hash_tableINS_17__hash_value_typeIPN4base22MemoryPressureListenerE13scoped_refptrINS2_19SequencedTaskRunnerEEEENS_22__unordered_map_hasherIS4_S8_NS_4hashIS4_EELb1EEENS_21__unordered_map_equalIS4_S8_NS_8equal_toIS4_EELb1EEENS_9allocatorIS8_EEE25__emplace_unique_key_argsIS4_JRKNS_21piecewise_construct_tENS_5tupleIJRKS4_EEENSO_IJEEEEEENS_4pairINS_15__hash_iteratorIPNS_11__hash_nodeIS8_PvEEEEbEERKT_DpOT0_
__ZNSt3__112__hash_tableINS_17__hash_value_typeIPN4base22MemoryPressureListenerE13scoped_refptrINS2_19SequencedTaskRunnerEEEENS_22__unordered_map_hasherIS4_S8_NS_4hashIS4_EELb1EEENS_21__unordered_map_equalIS4_S8_NS_8equal_toIS4_EELb1EEENS_9allocatorIS8_EEE6rehashEm
__ZNSt3__112__hash_tableINS_17__hash_value_typeIPN4base22MemoryPressureListenerE13scoped_refptrINS2_19SequencedTaskRunnerEEEENS_22__unordered_map_hasherIS4_S8_NS_4hashIS4_EELb1EEENS_21__unordered_map_equalIS4_S8_NS_8equal_toIS4_EELb1EEENS_9allocatorIS8_EEE8__rehashEm
__ZN4base22ThreadTaskRunnerHandle3GetEv
__ZN4base18MessageLoopCurrent7GetNullEv
__ZN4base21FileDescriptorWatcherC1E13scoped_refptrINS_22SingleThreadTaskRunnerEE
__ZN4base21FileDescriptorWatcherC2E13scoped_refptrINS_22SingleThreadTaskRunnerEE
__ZN4base12LazyInstanceINS_18ThreadLocalPointerINS_21FileDescriptorWatcherEEENS_8internal23LeakyLazyInstanceTraitsIS3_EEE7PointerEv
__ZN4base22LazyInstanceTraitsBaseINS_18ThreadLocalPointerINS_21FileDescriptorWatcherEEEE3NewEPv
__ZN4base8internal13ServiceThread4InitEv
__ZN4base8internal8BindImplINS_17RepeatingCallbackEMNS0_13ServiceThreadEKFvvEJNS0_17UnretainedWrapperIS3_EEEEEDcOT0_DpOT1_
__ZN4base8internal9BindStateIMN18discardable_memory30DiscardableSharedMemoryManagerEFvvEJNS_7WeakPtrIS3_EEEE6CreateIS5_JS7_EEEPS8_PFvvEOT_DpOT0_
__ZN4base8internal13BindStateBaseC2EPFvvEPFvPKS1_EPFbS5_NS1_21CancellationQueryModeEE
__ZN4base14RepeatingTimer5StartERKNS_8LocationENS_9TimeDeltaENS_17RepeatingCallbackIFvvEEE
__ZN4base8internal13WeakReferenceC1EOS1_
__ZN4base8internal11WeakPtrBaseD2Ev
__ZN4base8internal9TimerBase5ResetEv
__ZN4base8internal9TimerBase20PostNewScheduledTaskENS_9TimeDeltaE
__ZN4base8internal8BindImplINS_12OnceCallbackEMNS0_21BaseTimerTaskInternalEFvvEJNS0_12OwnedWrapperIS3_EEEEEDcOT0_DpOT1_
__ZN4base16sequence_manager8internal13TaskQueueImpl19PostDelayedTaskImplENS1_10PostedTaskENS2_13CurrentThreadE
__ZN4base24PowerMonitorDeviceSourceC1Ev
__ZN4base18PowerMonitorSourceC2Ev
__ZN4base24PowerMonitorDeviceSource12PlatformInitEv
__ZN4base16sequence_manager8internal13TaskQueueImpl42PushOntoDelayedIncomingQueueFromMainThreadENS0_4TaskENS_9TimeTicksEb
__ZN4base16sequence_manager8internal13TaskQueueImpl38MaybeReportIpcTaskQueuedFromMainThreadEPNS0_4TaskEPKc
__ZNSt3__16vectorIN4base16sequence_manager4TaskENS_9allocatorIS3_EEE21__push_back_slow_pathIS3_EEvOT_
__ZNSt3__19__sift_upIRNS_4lessIN4base16sequence_manager4TaskEEENS_11__wrap_iterIPS4_EEEEvT0_SA_T_NS_15iterator_traitsISA_E15difference_typeE
__ZN4base16sequence_manager7LazyNowC1ENS_9TimeTicksE
__ZN4base16sequence_manager10TimeDomain21SetNextWakeUpForQueueEPNS0_8internal13TaskQueueImplENS_8OptionalINS2_13DelayedWakeUpEEENS2_16WakeUpResolutionEPNS0_7LazyNowE
__ZNK4base16sequence_manager8internal13TaskQueueImpl13GetTimeDomainEv
__ZN4base13IntrusiveHeapINS_16sequence_manager10TimeDomain22ScheduledDelayedWakeUpENS_8internal17IntrusiveHeapImplIS3_E21GreaterUsingLessEqualENS_25DefaultHeapHandleAccessorIS3_EEE17MoveHoleUpAndFillIS3_EEmmT_
__ZN4base13IntrusiveHeapINS_16sequence_manager10TimeDomain22ScheduledDelayedWakeUpENS_8internal17IntrusiveHeapImplIS3_E21GreaterUsingLessEqualENS_25DefaultHeapHandleAccessorIS3_EEE8FillHoleIS3_EEvmT_
__ZN4base13IntrusiveHeapINS_16sequence_manager10TimeDomain22ScheduledDelayedWakeUpENS_8internal17IntrusiveHeapImplIS3_E21GreaterUsingLessEqualENS_25DefaultHeapHandleAccessorIS3_EEE13SetHeapHandleEm
__ZN4base16sequence_manager7LazyNow3NowEv
__ZN4base16sequence_manager10TimeDomain20SetNextDelayedDoWorkEPNS0_7LazyNowENS_9TimeTicksE
__ZN4base16sequence_manager8internal19SequenceManagerImpl20SetNextDelayedDoWorkEPNS0_7LazyNowENS_9TimeTicksE
__ZN4base16sequence_manager8internal35ThreadControllerWithMessagePumpImpl20SetNextDelayedDoWorkEPNS0_7LazyNowENS_9TimeTicksE
__ZNK4base16sequence_manager8internal16WorkDeduplicator22OnDelayedWorkRequestedEv
__ZN4base17MessagePumpKqueue19ScheduleDelayedWorkERKNS_9TimeTicksE
__ZN4base7RunLoopC1ENS0_4TypeE
__ZN4base7RunLoopC2ENS0_4TypeE
__ZN4base8internal13ServiceThread3RunEPNS_7RunLoopE
__ZN4base6Thread3RunEPNS_7RunLoopE
__ZN4base7RunLoop3RunEv
__ZN4base7RunLoop9BeforeRunEv
__ZNSt3__15stackIPN4base7RunLoopENS_6vectorIS3_NS_9allocatorIS3_EEEEE4pushEOS3_
__ZN4base16sequence_manager8internal35ThreadControllerWithMessagePumpImpl3RunEbNS_9TimeDeltaE
__ZN4base17MessagePumpKqueue3RunEPNS_11MessagePump8DelegateE
__ZN4base17MessagePumpKqueue14DoInternalWorkEPNS_11MessagePump8Delegate12NextWorkInfoE
__ZN4base17MessagePumpKqueue13ProcessEventsEi
__ZN4base16sequence_manager8internal35ThreadControllerWithMessagePumpImpl10DoSomeWorkEv
__ZN4base16sequence_manager8internal16WorkDeduplicator13OnWorkStartedEv
__ZN4base16sequence_manager8internal35ThreadControllerWithMessagePumpImpl10DoWorkImplEPNS0_7LazyNowEPb
__ZN4base16sequence_manager8internal19SequenceManagerImpl14SelectNextTaskEv
__ZN4base16sequence_manager8internal19SequenceManagerImpl18SelectNextTaskImplEv
__ZN4base16sequence_manager8internal19SequenceManagerImpl8ValidateEv
__ZNK4base16sequence_manager8internal13AtomicFlagSet18RunActiveCallbacksEv
__ZN4base16sequence_manager8internal19SequenceManagerImpl33MoveReadyDelayedTasksToWorkQueuesEPNS0_7LazyNowE
__ZN4base16sequence_manager10TimeDomain33MoveReadyDelayedTasksToWorkQueuesEPNS0_7LazyNowE
__ZN4base16sequence_manager8internal17TaskQueueSelector24SelectWorkQueueToServiceEv
__ZN4base16sequence_manager8internal16WorkDeduplicator20WillCheckForMoreWorkEv
__ZNK4base16sequence_manager8internal19SequenceManagerImpl17DelayTillNextTaskEPNS0_7LazyNowE
__ZNK4base16sequence_manager8internal17TaskQueueSelector25GetHighestPendingPriorityEv
__ZNK4base16sequence_manager8internal19SequenceManagerImpl27GetDelayTillNextDelayedTaskEPNS0_7LazyNowE
__ZN4base16sequence_manager8internal14RealTimeDomain17DelayTillNextTaskEPNS0_7LazyNowE
__ZNK4base16sequence_manager10TimeDomain20NextScheduledRunTimeEv
__ZN4base16sequence_manager8internal16WorkDeduplicator19DidCheckForMoreWorkENS2_8NextTaskE
__ZN4base16sequence_manager8internal35ThreadControllerWithMessagePumpImpl10DoIdleWorkEv
__ZN4base14WorkIdProvider15IncrementWorkIdEv
__ZN4base16sequence_manager8internal35ThreadControllerWithMessagePumpImpl25ShouldQuitRunLoopWhenIdleEv
__ZN4base7RunLoop8Delegate18ShouldQuitWhenIdleEv
__ZN4base16sequence_manager8internal14RealTimeDomain26MaybeFastForwardToNextTaskEb
__ZN4base16sequence_manager8internal19SequenceManagerImpl18MaybeReclaimMemoryEv
__ZNK4base11MessagePump8Delegate12NextWorkInfo15remaining_delayEv
__ZNK4base9TimeDelta10ToTimeSpecEv
__ZNK4base9TimeDelta9InSecondsEv
__ZN4base24PowerMonitorDeviceSource20IsOnBatteryPowerImplEv
__ZN4base18PowerMonitorSource29SetInitialOnBatteryPowerStateEb
__ZN4base12PowerMonitor6SourceEv
__ZN4base12PowerMonitor10InitializeENSt3__110unique_ptrINS_18PowerMonitorSourceENS1_14default_deleteIS3_EEEE
__ZN7content19BrowserTaskExecutor14CreateIOThreadEv
__ZN7content23BrowserProcessSubThreadC1ENS_13BrowserThread2IDE
__ZN7content23BrowserProcessSubThreadC2ENS_13BrowserThread2IDE
__ZN7content17BrowserThreadImpl13GetThreadNameENS_13BrowserThread2IDE
__ZN7content25ServiceManagerEnvironmentC1ENSt3__110unique_ptrINS_23BrowserProcessSubThreadENS1_14default_deleteIS3_EEEE
__ZN7content25ServiceManagerEnvironmentC2ENSt3__110unique_ptrINS_23BrowserProcessSubThreadENS1_14default_deleteIS3_EEEE
__ZN7content23BrowserIOThreadDelegate20GetDefaultTaskRunnerEv
__ZN4mojo4core16ScopedIPCSupportC1E13scoped_refptrIN4base10TaskRunnerEENS1_14ShutdownPolicyE
__ZN4mojo4core4Core3GetEv
__ZN4mojo4core4Core15SetIOTaskRunnerE13scoped_refptrIN4base10TaskRunnerEE
__ZN4mojo4core4Core17GetNodeControllerEv
__ZN4mojo4core14NodeControllerC1EPNS0_4CoreE
__ZN4mojo4core14NodeControllerC2EPNS0_4CoreE
__ZN6crypto9RandBytesEPvm
__ZN4base9RandBytesEPvm
__ZN4base12LazyInstanceIN12_GLOBAL__N_19URandomFdENS_8internal23LeakyLazyInstanceTraitsIS2_EEE7PointerEv
__ZN7content23BrowserIOThreadDelegate19BindToCurrentThreadEN4base10TimerSlackE
__ZN4base10ReadFromFDEiPcm
__ZN4base17MessagePumpKqueue12ScheduleWorkEv
__ZN7content23BrowserProcessSubThread4InitEv
__ZN4base25DisallowUnresponsiveTasksEv
__ZN4mojo4core5ports4NodeC1ERKNS1_8NodeNameEPNS1_12NodeDelegateE
__ZN4mojo4core14NodeController15SetIOTaskRunnerE13scoped_refptrIN4base10TaskRunnerEE
__ZN7content23BrowserProcessSubThread3RunEPN4base7RunLoopE
__ZN7content23BrowserProcessSubThread11IOThreadRunEPN4base7RunLoopE
__ZN4base8internal8BindImplINS_17RepeatingCallbackEMN4mojo4core14NodeControllerEFvvEJNS0_17UnretainedWrapperIS5_EEEEEDcOT0_DpOT1_
__ZN4mojo4core12_GLOBAL__N_125ThreadDestructionObserver6CreateE13scoped_refptrIN4base10TaskRunnerEERKNS4_17RepeatingCallbackIFvvEEE
__ZN4base8internal9BindStateIPFv13scoped_refptrINS_10TaskRunnerEERKNS_17RepeatingCallbackIFvvEEEEJS4_S7_EEC2ISB_JRS4_S9_EEENSt3__117integral_constantIbLb0EEEPS6_OT_DpOT0_
__ZN7content17BrowserTaskQueues12ValidatorSet10OnPostTaskEN4base8LocationENS2_9TimeDeltaE
__ZN7content21ServiceManagerContextC1E13scoped_refptrIN4base22SingleThreadTaskRunnerEE
__ZN7content21ServiceManagerContextC2E13scoped_refptrIN4base22SingleThreadTaskRunnerEE
__ZN4base8internal7InvokerINS0_9BindStateIMNS_16sequence_manager8internal13TaskQueueImplEFvvEJNS0_17UnretainedWrapperIS5_EEEEEFvvEE3RunEPNS0_13BindStateBaseE
__ZN4base16sequence_manager8internal13TaskQueueImpl29ReloadEmptyImmediateWorkQueueEv
__ZN4base16sequence_manager8internal9WorkQueue31TakeImmediateIncomingQueueTasksEv
__ZN4base16sequence_manager8internal13TaskQueueImpl31TakeImmediateIncomingQueueTasksEPNS1_22LazilyDeallocatedDequeINS0_4TaskEXadL_ZNS_6subtle28TimeTicksNowIgnoringOverrideEvEEEE
__ZN4base16sequence_manager8internal22LazilyDeallocatedDequeINS0_4TaskEXadL_ZNS_6subtle28TimeTicksNowIgnoringOverrideEvEEE16MaybeShrinkQueueEv
__ZN7content26GetBuiltinServiceManifestsEv
__ZNK4base16sequence_manager8internal9WorkQueue14BlockedByFenceEv
__ZN4base16sequence_manager8internal13WorkQueueSets24OnTaskPushedToEmptyQueueEPNS1_9WorkQueueE
__ZN4base16sequence_manager8internal22LazilyDeallocatedDequeINS0_4TaskEXadL_ZNS_6subtle28TimeTicksNowIgnoringOverrideEvEEE4Ring5frontEv
__ZNK4base16sequence_manager8internal22LazilyDeallocatedDequeINS0_4TaskEXadL_ZNS_6subtle28TimeTicksNowIgnoringOverrideEvEEE4backEv
__ZN4base13IntrusiveHeapINS_16sequence_manager8internal13WorkQueueSets22OldestTaskEnqueueOrderENS_8internal17IntrusiveHeapImplIS4_E21GreaterUsingLessEqualENS_25DefaultHeapHandleAccessorIS4_EEE17MoveHoleUpAndFillIS4_EEmmT_
__ZN4base13IntrusiveHeapINS_16sequence_manager8internal13WorkQueueSets22OldestTaskEnqueueOrderENS_8internal17IntrusiveHeapImplIS4_E21GreaterUsingLessEqualENS_25DefaultHeapHandleAccessorIS4_EEE8FillHoleIS4_EEvmT_
__ZN4base16sequence_manager8internal17TaskQueueSelector26WorkQueueSetBecameNonEmptyEm
__ZN4base16sequence_manager8internal17TaskQueueSelector18SmallPriorityQueue6insertExNS0_9TaskQueue13QueuePriorityE
__ZN7content17BrowserTaskQueues12ValidatorSet24OnQueueNextWakeUpChangedEN4base9TimeTicksE
__ZN7content25GetContentBrowserManifestEv
__ZNK4base16sequence_manager8internal13WorkQueueSets34GetOldestQueueAndEnqueueOrderInSetEmPNS0_12EnqueueOrderE
__ZN4base16sequence_manager8internal17TaskQueueSelector18SmallPriorityQueue12ChangeMinKeyEx
__ZN4base16sequence_manager8internal9WorkQueue31RemoveAllCanceledTasksFromFrontEv
__ZNK4base8internal12CallbackBase11IsCancelledEv
__ZN4base8internal12_GLOBAL__N_141QueryCancellationTraitsForNonCancellablesEPKNS0_13BindStateBaseENS2_21CancellationQueryModeE
__ZNK4base16sequence_manager8internal9WorkQueue12GetFrontTaskEv
__ZNK4base16sequence_manager8internal19SequenceManagerImpl16LogTaskDebugInfoEPKNS1_9WorkQueueE
__ZN4base16sequence_manager8internal9WorkQueue21TakeTaskFromWorkQueueEv
__ZN4base16sequence_manager8internal22LazilyDeallocatedDequeINS0_4TaskEXadL_ZNS_6subtle28TimeTicksNowIgnoringOverrideEvEEE9pop_frontEv
__ZN4base16sequence_manager8internal22LazilyDeallocatedDequeINS0_4TaskEXadL_ZNS_6subtle28TimeTicksNowIgnoringOverrideEvEEE4Ring9pop_frontEv
__ZN4base16sequence_manager8internal13WorkQueueSets24OnQueuesFrontTaskChangedEPNS1_9WorkQueueE
__ZN4base13IntrusiveHeapINS_16sequence_manager8internal13WorkQueueSets22OldestTaskEnqueueOrderENS_8internal17IntrusiveHeapImplIS4_E21GreaterUsingLessEqualENS_25DefaultHeapHandleAccessorIS4_EEE5eraseEm
__ZN4base13IntrusiveHeapINS_16sequence_manager8internal13WorkQueueSets22OldestTaskEnqueueOrderENS_8internal17IntrusiveHeapImplIS4_E21GreaterUsingLessEqualENS_25DefaultHeapHandleAccessorIS4_EEE8MakeHoleEm
__ZN4base16sequence_manager8internal17TaskQueueSelector23WorkQueueSetBecameEmptyEm
__ZN15service_manager15ManifestBuilderC1Ev
__ZN4base16sequence_manager8internal17TaskQueueSelector18SmallPriorityQueue5eraseENS0_9TaskQueue13QueuePriorityE
__ZNK4base16sequence_manager8internal13TaskQueueImpl18RequiresTaskTimingEv
__ZN4base16sequence_manager9TaskQueue10TaskTimingC1Ebb
__ZN15service_manager8ManifestC1Ev
__ZN15service_manager22ManifestOptionsBuilderC1Ev
__ZN15service_manager8Manifest7OptionsC1Ev
__ZN15service_manager8Manifest7OptionsC1EOS1_
__ZN4base16sequence_manager8internal19SequenceManagerImpl21NotifyWillProcessTaskEPNS2_13ExecutingTaskEPNS0_7LazyNowE
__ZN4base16sequence_manager8internal19SequenceManagerImpl15RecordCrashKeysERKNS_11PendingTaskE
__ZN15service_manager8Manifest7OptionsaSEOS1_
__ZNK4base12ObserverListINS_12TaskObserverELb0ELb1ENS_8internal24UncheckedObserverAdapterEE4IterneERKS5_
__ZNSt3__13setIPKcNS_4lessIS2_EENS_9allocatorIS2_EEE6insertIPKS2_EEvT_SB_
__ZNK4base12ObserverListINS_12TaskObserverELb0ELb1ENS_8internal24UncheckedObserverAdapterEE4Iter6is_endEv
__ZN4base12ObserverListINS_12TaskObserverELb0ELb1ENS_8internal24UncheckedObserverAdapterEE4IterD2Ev
__ZN4base16sequence_manager8internal13TaskQueueImpl21NotifyWillProcessTaskERKNS_11PendingTaskE
__ZN15service_manager15ManifestBuilder16ExposeCapabilityEPKcNSt3__13setIS2_NS3_4lessIS2_EENS3_9allocatorIS2_EEEE
__ZN4base13TaskAnnotator7RunTaskEPKcPNS_11PendingTaskE
__ZN4base5debug21ScopedTaskRunActivityC1EPKvRKNS_11PendingTaskE
__ZN4base8internal7InvokerINS0_9BindStateIMN7content17BrowserTaskQueuesEFvvEJNS0_17UnretainedWrapperIS4_EEEEEFvvEE7RunOnceEPNS0_13BindStateBaseE
__ZN7content17BrowserTaskQueues34PostFeatureListInitializationSetupEv
__ZNSt3__16__treeINS_12__value_typeINS_12basic_stringIcNS_11char_traitsIcEENS_9allocatorIcEEEENS_3setIS7_NS_4lessIS7_EENS5_IS7_EEEEEENS_19__map_value_compareIS7_SD_SA_Lb1EEENS5_ISD_EEE12__find_equalIS7_EERPNS_16__tree_node_baseIPvEERPNS_15__tree_end_nodeISM_EERKT_
__ZNSt3__16__treeINS_12basic_stringIcNS_11char_traitsIcEENS_9allocatorIcEEEENS_4lessIS6_EENS4_IS6_EEE26__emplace_hint_unique_implIJRKPKcEEENS_15__tree_iteratorIS6_PNS_11__tree_nodeIS6_PvEElEENS_21__tree_const_iteratorIS6_SK_lEEDpOT_
__ZNSt3__16__treeINS_12basic_stringIcNS_11char_traitsIcEENS_9allocatorIcEEEENS_4lessIS6_EENS4_IS6_EEE12__find_equalIS6_EERPNS_16__tree_node_baseIPvEENS_21__tree_const_iteratorIS6_PNS_11__tree_nodeIS6_SD_EElEERPNS_15__tree_end_nodeISF_EESG_RKT_
__ZN4base8internal9BindStateIMN7content17BrowserTaskQueuesEFvvEJNS0_17UnretainedWrapperIS3_EEEE7DestroyEPKNS0_13BindStateBaseE
__ZN4base16sequence_manager8internal19SequenceManagerImpl10DidRunTaskEv
__ZN4base16sequence_manager8internal19SequenceManagerImpl20NotifyDidProcessTaskEPNS2_13ExecutingTaskEPNS0_7LazyNowE
__ZN4base16sequence_manager8internal13TaskQueueImpl20NotifyDidProcessTaskERKNS_11PendingTaskE
__ZN4base16sequence_manager8internal19SequenceManagerImpl13CleanUpQueuesEv
__ZNSt3__16__treeINS_12__value_typeIPN4base16sequence_manager8internal13TaskQueueImplENS_10unique_ptrIS5_NS_14default_deleteIS5_EEEEEENS_19__map_value_compareIS6_SB_NS_4lessIS6_EELb1EEENS_9allocatorISB_EEE7destroyEPNS_11__tree_nodeISB_PvEE
__ZN4base8internal7InvokerINS0_9BindStateIPFv13scoped_refptrINS_10TaskRunnerEERKNS_17RepeatingCallbackIFvvEEEEJS5_S8_EEES7_E7RunOnceEPNS0_13BindStateBaseE
__ZN4base18MessageLoopCurrent22AddDestructionObserverEPNS0_19DestructionObserverE
__ZNK4base16sequence_manager8internal19SequenceManagerImpl22IsBoundToCurrentThreadEv
__ZN4base16sequence_manager8internal19SequenceManagerImpl22AddDestructionObserverEPNS_18MessageLoopCurrent19DestructionObserverE
__ZN4base12ObserverListINS_18MessageLoopCurrent19DestructionObserverELb0ELb1ENS_8internal24UncheckedObserverAdapterEE11AddObserverEPS2_
__ZN4base8internal9BindStateIPFv13scoped_refptrINS_10TaskRunnerEERKNS_17RepeatingCallbackIFvvEEEEJS4_S7_EE7DestroyEPKNS0_13BindStateBaseE
__ZN15service_manager15ManifestBuilder17RequireCapabilityEPKcS2_
__ZN15service_manager15ManifestBuilder42ExposeInterfaceFilterCapability_DeprecatedIJEEERS0_PKcS4_NSt3__13setIS4_NS5_4lessIS4_EENS5_9allocatorIS4_EEEE
__ZNSt3__16__treeINS_12__value_typeINS_12basic_stringIcNS_11char_traitsIcEENS_9allocatorIcEEEENS_3mapIS7_NS_3setIS7_NS_4lessIS7_EENS5_IS7_EEEESB_NS5_INS_4pairIKS7_SD_EEEEEEEENS_19__map_value_compareIS7_SJ_SB_Lb1EEENS5_ISJ_EEE12__find_equalIS7_EERPNS_16__tree_node_baseIPvEERPNS_15__tree_end_nodeISS_EERKT_
__ZN15service_manager15ManifestBuilder43RequireInterfaceFilterCapability_DeprecatedEPKcS2_S2_
__ZN7content11GetManifestEv
__ZN15service_manager15ManifestBuilder16ExposeCapabilityIJN7content5mojom24NavigableContentsFactoryEEEERS0_PKcNS_8Manifest13InterfaceListIJDpT_EEE
__ZN15service_manager8internal17GetInterfaceNamesIJN7content5mojom24NavigableContentsFactoryEEEENSt3__13setINS5_12basic_stringIcNS5_11char_traitsIcEENS5_9allocatorIcEEEENS5_4lessISC_EENSA_ISC_EEEEv
__ZNSt3__16__treeINS_12basic_stringIcNS_11char_traitsIcEENS_9allocatorIcEEEENS_4lessIS6_EENS4_IS6_EEE7destroyEPNS_11__tree_nodeIS6_PvEE
__ZN15service_manager8ManifestC1EOS0_
__ZN15service_manager8ManifestC2EOS0_
__ZN15service_manager8ManifestD1Ev
__ZN15service_manager8ManifestD2Ev
__ZNSt3__16__treeINS_12__value_typeINS_12basic_stringIcNS_11char_traitsIcEENS_9allocatorIcEEEENS_3mapIS7_NS_3setIS7_NS_4lessIS7_EENS5_IS7_EEEESB_NS5_INS_4pairIKS7_SD_EEEEEEEENS_19__map_value_compareIS7_SJ_SB_Lb1EEENS5_ISJ_EEE7destroyEPNS_11__tree_nodeISJ_PvEE
__ZNSt3__16__treeINS_12__value_typeINS_12basic_stringIcNS_11char_traitsIcEENS_9allocatorIcEEEENS_3setIS7_NS_4lessIS7_EENS5_IS7_EEEEEENS_19__map_value_compareIS7_SD_SA_Lb1EEENS5_ISD_EEE7destroyEPNS_11__tree_nodeISD_PvEE
__ZN15service_manager15ManifestBuilderD1Ev
__ZN15service_manager8ManifestC1ERKS0_
__ZN15service_manager8ManifestC2ERKS0_
__ZNSt3__16__treeINS_12__value_typeINS_12basic_stringIcNS_11char_traitsIcEENS_9allocatorIcEEEENS_3setIS7_NS_4lessIS7_EENS5_IS7_EEEEEENS_19__map_value_compareIS7_SD_SA_Lb1EEENS5_ISD_EEE30__emplace_hint_unique_key_argsIS7_JRKNS_4pairIKS7_SC_EEEEENS_15__tree_iteratorISD_PNS_11__tree_nodeISD_PvEElEENS_21__tree_const_iteratorISD_SS_lEERKT_DpOT0_
__ZNSt3__16__treeINS_12__value_typeINS_12basic_stringIcNS_11char_traitsIcEENS_9allocatorIcEEEENS_3setIS7_NS_4lessIS7_EENS5_IS7_EEEEEENS_19__map_value_compareIS7_SD_SA_Lb1EEENS5_ISD_EEE12__find_equalIS7_EERPNS_16__tree_node_baseIPvEENS_21__tree_const_iteratorISD_PNS_11__tree_nodeISD_SK_EElEERPNS_15__tree_end_nodeISM_EESN_RKT_
__ZNSt3__13setINS_12basic_stringIcNS_11char_traitsIcEENS_9allocatorIcEEEENS_4lessIS6_EENS4_IS6_EEEC1ERKSA_
__ZNSt3__16vectorIN15service_manager8ManifestENS_9allocatorIS2_EEE24__emplace_back_slow_pathIJS2_EEEvDpOT_
__ZNSt3__16__treeIPKcNS_4lessIS2_EENS_9allocatorIS2_EEE7destroyEPNS_11__tree_nodeIS2_PvEE
__ZN15service_manager8Manifest7OptionsD1Ev
__ZN15service_manager22ManifestOptionsBuilderD1Ev
__ZNSt3__16__treeINS_12__value_typeINS_12basic_stringIcNS_11char_traitsIcEENS_9allocatorIcEEEENS_3mapIS7_NS_3setIS7_NS_4lessIS7_EENS5_IS7_EEEESB_NS5_INS_4pairIKS7_SD_EEEEEEEENS_19__map_value_compareIS7_SJ_SB_Lb1EEENS5_ISJ_EEE30__emplace_hint_unique_key_argsIS7_JRKNSE_ISF_SI_EEEEENS_15__tree_iteratorISJ_PNS_11__tree_nodeISJ_PvEElEENS_21__tree_const_iteratorISJ_SW_lEERKT_DpOT0_
__ZNSt3__16__treeINS_12__value_typeINS_12basic_stringIcNS_11char_traitsIcEENS_9allocatorIcEEEENS_3mapIS7_NS_3setIS7_NS_4lessIS7_EENS5_IS7_EEEESB_NS5_INS_4pairIKS7_SD_EEEEEEEENS_19__map_value_compareIS7_SJ_SB_Lb1EEENS5_ISJ_EEE12__find_equalIS7_EERPNS_16__tree_node_baseIPvEENS_21__tree_const_iteratorISJ_PNS_11__tree_nodeISJ_SQ_EElEERPNS_15__tree_end_nodeISS_EEST_RKT_
__ZN7content21GetContentGpuManifestEv
__ZN7content24GetContentPluginManifestEv
__ZN7content26GetContentRendererManifestEv
__ZN7content28GetV8SnapshotOverlayManifestEv
__ZN15service_manager8Manifest5AmendES0_
__ZN7content25GetContentUtilityManifestEv
__ZN7content20ContentBrowserClient21OverridesAudioManagerEv
__ZN5audio11GetManifestEN15service_manager8Manifest13ExecutionModeE
__ZN15service_manager15ManifestBuilder16ExposeCapabilityIJN5audio5mojom14DebugRecordingEEEERS0_PKcNS_8Manifest13InterfaceListIJDpT_EEE
__ZN15service_manager8internal17GetInterfaceNamesIJN5audio5mojom14DebugRecordingEEEENSt3__13setINS5_12basic_stringIcNS5_11char_traitsIcEENS5_9allocatorIcEEEENS5_4lessISC_EENSA_ISC_EEEEv
__ZN15service_manager15ManifestBuilder16ExposeCapabilityIJN5audio5mojom14DeviceNotifierEEEERS0_PKcNS_8Manifest13InterfaceListIJDpT_EEE
__ZN15service_manager8internal17GetInterfaceNamesIJN5audio5mojom14DeviceNotifierEEEENSt3__13setINS5_12basic_stringIcNS5_11char_traitsIcEENS5_9allocatorIcEEEENS5_4lessISC_EENSA_ISC_EEEEv
__ZN15service_manager15ManifestBuilder16ExposeCapabilityIJN5audio5mojom10SystemInfoEEEERS0_PKcNS_8Manifest13InterfaceListIJDpT_EEE
__ZN15service_manager8internal17GetInterfaceNamesIJN5audio5mojom10SystemInfoEEEENSt3__13setINS5_12basic_stringIcNS5_11char_traitsIcEENS5_9allocatorIcEEEENS5_4lessISC_EENSA_ISC_EEEEv
__ZN15service_manager15ManifestBuilder16ExposeCapabilityIJN5audio5mojom17LogFactoryManagerEEEERS0_PKcNS_8Manifest13InterfaceListIJDpT_EEE
__ZN15service_manager8internal17GetInterfaceNamesIJN5audio5mojom17LogFactoryManagerEEEENSt3__13setINS5_12basic_stringIcNS5_11char_traitsIcEENS5_9allocatorIcEEEENS5_4lessISC_EENSA_ISC_EEEEv
__ZN15service_manager15ManifestBuilder16ExposeCapabilityIJN5audio5mojom13StreamFactoryEEEERS0_PKcNS_8Manifest13InterfaceListIJDpT_EEE
__ZN15service_manager8internal17GetInterfaceNamesIJN5audio5mojom13StreamFactoryEEEENSt3__13setINS5_12basic_stringIcNS5_11char_traitsIcEENS5_9allocatorIcEEEENS5_4lessISC_EENSA_ISC_EEEEv
__ZN15service_manager15ManifestBuilder16ExposeCapabilityIJN5audio5mojom10TestingApiEEEERS0_PKcNS_8Manifest13InterfaceListIJDpT_EEE
__ZN15service_manager8internal17GetInterfaceNamesIJN5audio5mojom10TestingApiEEEENSt3__13setINS5_12basic_stringIcNS5_11char_traitsIcEENS5_9allocatorIcEEEENS5_4lessISC_EENSA_ISC_EEEEv
__ZN5media14GetCdmManifestEv
__ZN15service_manager15ManifestBuilder16ExposeCapabilityIJN5media5mojom10CdmServiceEEEERS0_PKcNS_8Manifest13InterfaceListIJDpT_EEE
__ZN15service_manager8internal17GetInterfaceNamesIJN5media5mojom10CdmServiceEEEENSt3__13setINS5_12basic_stringIcNS5_11char_traitsIcEENS5_9allocatorIcEEEENS5_4lessISC_EENSA_ISC_EEEEv
__ZN5media16GetMediaManifestEv
__ZN15service_manager15ManifestBuilder16ExposeCapabilityIJN5media5mojom12MediaServiceEEEERS0_PKcNS_8Manifest13InterfaceListIJDpT_EEE
__ZN15service_manager8internal17GetInterfaceNamesIJN5media5mojom12MediaServiceEEEENSt3__13setINS5_12basic_stringIcNS5_11char_traitsIcEENS5_9allocatorIcEEEENS5_4lessISC_EENSA_ISC_EEEEv
__ZN5media24GetMediaRendererManifestEv
__ZN12data_decoder11GetManifestEv
__ZN15service_manager15ManifestBuilder16ExposeCapabilityIJN12data_decoder5mojom12ImageDecoderEEEERS0_PKcNS_8Manifest13InterfaceListIJDpT_EEE
__ZN15service_manager8internal17GetInterfaceNamesIJN12data_decoder5mojom12ImageDecoderEEEENSt3__13setINS5_12basic_stringIcNS5_11char_traitsIcEENS5_9allocatorIcEEEENS5_4lessISC_EENSA_ISC_EEEEv
__ZN15service_manager15ManifestBuilder16ExposeCapabilityIJN12data_decoder5mojom10JsonParserEEEERS0_PKcNS_8Manifest13InterfaceListIJDpT_EEE
__ZN15service_manager8internal17GetInterfaceNamesIJN12data_decoder5mojom10JsonParserEEEENSt3__13setINS5_12basic_stringIcNS5_11char_traitsIcEENS5_9allocatorIcEEEENS5_4lessISC_EENSA_ISC_EEEEv
__ZN15service_manager15ManifestBuilder16ExposeCapabilityIJN12data_decoder5mojom9XmlParserEEEERS0_PKcNS_8Manifest13InterfaceListIJDpT_EEE
__ZN15service_manager8internal17GetInterfaceNamesIJN12data_decoder5mojom9XmlParserEEEENSt3__13setINS5_12basic_stringIcNS5_11char_traitsIcEENS5_9allocatorIcEEEENS5_4lessISC_EENSA_ISC_EEEEv
__ZN15service_manager15ManifestBuilder16ExposeCapabilityIJN12data_decoder5mojom29BundledExchangesParserFactoryEEEERS0_PKcNS_8Manifest13InterfaceListIJDpT_EEE
__ZN15service_manager8internal17GetInterfaceNamesIJN12data_decoder5mojom29BundledExchangesParserFactoryEEEENSt3__13setINS5_12basic_stringIcNS5_11char_traitsIcEENS5_9allocatorIcEEEENS5_4lessISC_EENSA_ISC_EEEEv
__ZN6device11GetManifestEv
__ZN15service_manager15ManifestBuilder16ExposeCapabilityIJN6device5mojom14BatteryMonitorEEEERS0_PKcNS_8Manifest13InterfaceListIJDpT_EEE
__ZNSt3__13setINS_12basic_stringIcNS_11char_traitsIcEENS_9allocatorIcEEEENS_4lessIS6_EENS4_IS6_EEEC1ESt16initializer_listIS6_ERKS8_
__ZN15service_manager15ManifestBuilder16ExposeCapabilityIJN6device5mojom22BluetoothSystemFactoryEEEERS0_PKcNS_8Manifest13InterfaceListIJDpT_EEE
__ZN15service_manager15ManifestBuilder16ExposeCapabilityIJN6device5mojom11FingerprintEEEERS0_PKcNS_8Manifest13InterfaceListIJDpT_EEE
__ZN15service_manager15ManifestBuilder16ExposeCapabilityIJN6device5mojom14SensorProviderEEEERS0_PKcNS_8Manifest13InterfaceListIJDpT_EEE
__ZN15service_manager15ManifestBuilder16ExposeCapabilityIJN6device5mojom18GeolocationContextEEEERS0_PKcNS_8Manifest13InterfaceListIJDpT_EEE
__ZN15service_manager15ManifestBuilder16ExposeCapabilityIJN6device5mojom17GeolocationConfigEEEERS0_PKcNS_8Manifest13InterfaceListIJDpT_EEE
__ZN15service_manager15ManifestBuilder16ExposeCapabilityIJN6device5mojom18GeolocationControlEEEERS0_PKcNS_8Manifest13InterfaceListIJDpT_EEE
__ZN15service_manager15ManifestBuilder16ExposeCapabilityIJN6device5mojom10HidManagerEEEERS0_PKcNS_8Manifest13InterfaceListIJDpT_EEE
__ZN15service_manager15ManifestBuilder16ExposeCapabilityIJN6device5mojom34PublicIpAddressGeolocationProviderEEEERS0_PKcNS_8Manifest13InterfaceListIJDpT_EEE
__ZN15service_manager15ManifestBuilder16ExposeCapabilityIJN6device5mojom18InputDeviceManagerEEEERS0_PKcNS_8Manifest13InterfaceListIJDpT_EEE
__ZN15service_manager15ManifestBuilder16ExposeCapabilityIJN6device5mojom11NFCProviderEEEERS0_PKcNS_8Manifest13InterfaceListIJDpT_EEE
__ZN15service_manager15ManifestBuilder16ExposeCapabilityIJN6device5mojom12PowerMonitorEEEERS0_PKcNS_8Manifest13InterfaceListIJDpT_EEE
__ZN15service_manager15ManifestBuilder16ExposeCapabilityIJN6device5mojom25ScreenOrientationListenerEEEERS0_PKcNS_8Manifest13InterfaceListIJDpT_EEE
__ZN15service_manager15ManifestBuilder16ExposeCapabilityIJN6device5mojom17SerialPortManagerEEEERS0_PKcNS_8Manifest13InterfaceListIJDpT_EEE
__ZN15service_manager15ManifestBuilder16ExposeCapabilityIJN6device5mojom15TimeZoneMonitorEEEERS0_PKcNS_8Manifest13InterfaceListIJDpT_EEE
__ZN15service_manager15ManifestBuilder16ExposeCapabilityIJN6device5mojom16UsbDeviceManagerEEEERS0_PKcNS_8Manifest13InterfaceListIJDpT_EEE
__ZN15service_manager15ManifestBuilder16ExposeCapabilityIJN6device5mojom20UsbDeviceManagerTestEEEERS0_PKcNS_8Manifest13InterfaceListIJDpT_EEE
__ZN15service_manager15ManifestBuilder16ExposeCapabilityIJN6device5mojom16VibrationManagerEEEERS0_PKcNS_8Manifest13InterfaceListIJDpT_EEE
__ZN15service_manager15ManifestBuilder16ExposeCapabilityIJN6device5mojom16WakeLockProviderEEEERS0_PKcNS_8Manifest13InterfaceListIJDpT_EEE
__ZN13media_session11GetManifestEv
__ZN15service_manager15ManifestBuilder16ExposeCapabilityIJN13media_session5mojom17AudioFocusManagerENS3_22AudioFocusManagerDebugENS3_22MediaControllerManagerEEEERS0_PKcNS_8Manifest13InterfaceListIJDpT_EEE
__ZN15service_manager8internal17GetInterfaceNamesIJN13media_session5mojom17AudioFocusManagerENS3_22AudioFocusManagerDebugENS3_22MediaControllerManagerEEEENSt3__13setINS7_12basic_stringIcNS7_11char_traitsIcEENS7_9allocatorIcEEEENS7_4lessISE_EENSC_ISE_EEEEv
__ZN7metrics11GetManifestEv
__ZN15service_manager15ManifestBuilder16ExposeCapabilityIJN3ukm5mojom20UkmRecorderInterfaceEEEERS0_PKcNS_8Manifest13InterfaceListIJDpT_EEE
__ZN15service_manager8internal17GetInterfaceNamesIJN3ukm5mojom20UkmRecorderInterfaceEEEENSt3__13setINS5_12basic_stringIcNS5_11char_traitsIcEENS5_9allocatorIcEEEENS5_4lessISC_EENSA_ISC_EEEEv
__ZN7tracing11GetManifestEv
__ZN15service_manager15ManifestBuilder16ExposeCapabilityIJN7tracing5mojom12ConsumerHostEEEERS0_PKcNS_8Manifest13InterfaceListIJDpT_EEE
__ZN15service_manager8internal17GetInterfaceNamesIJN7tracing5mojom12ConsumerHostEEEENSt3__13setINS5_12basic_stringIcNS5_11char_traitsIcEENS5_9allocatorIcEEEENS5_4lessISC_EENSA_ISC_EEEEv
__ZN15service_manager8internal17GetInterfaceNamesIJN7tracing5mojom13TracedProcessEEEENSt3__13setINS5_12basic_stringIcNS5_11char_traitsIcEENS5_9allocatorIcEEEENS5_4lessISC_EENSA_ISC_EEEEv
__ZN8electron17AtomBrowserClient25GetServiceManifestOverlayEN4base16BasicStringPieceINSt3__112basic_stringIcNS3_11char_traitsIcEENS3_9allocatorIcEEEEEE
__Z40GetElectronContentBrowserOverlayManifestv
__ZN15service_manager15ManifestBuilder42ExposeInterfaceFilterCapability_DeprecatedIJN8electron5mojom15ElectronBrowserEEEERS0_PKcS7_NS_8Manifest13InterfaceListIJDpT_EEE
__ZN15service_manager8internal17GetInterfaceNamesIJN8electron5mojom15ElectronBrowserEEEENSt3__13setINS5_12basic_stringIcNS5_11char_traitsIcEENS5_9allocatorIcEEEENS5_4lessISC_EENSA_ISC_EEEEv
__ZNSt3__16vectorIN15service_manager8ManifestENS_9allocatorIS2_EEE21__push_back_slow_pathIS2_EEvOT_
__ZN7content20ContentBrowserClient24GetExtraServiceManifestsEv
__ZN13scoped_refptrIN7content21ServiceManagerContext30InProcessServiceManagerContextEEaSEPS2_
__ZN4mojo8internal18PendingRemoteStateC1Ev
__ZN4mojo13PendingRemoteIN15service_manager5mojom7ServiceEE30InitWithNewPipeAndPassReceiverEv
__ZN4mojo11MessagePipeC2Ev
_MojoCreateMessagePipe
__ZN4base18UnsanitizedCfiCallI16MojoSystemThunksMS1_PFjPK28MojoCreateMessagePipeOptionsPjS5_EEEDaRKNS_15ProtectedMemoryIT_EET0_
_MojoCreateMessagePipeImpl
__ZN4mojo4core4Core17CreateMessagePipeEPK28MojoCreateMessagePipeOptionsPjS5_
__ZN4mojo4core14RequestContextC1Ev
__ZNSt3__16vectorIN4mojo4core14RequestContext20WatchNotifyFinalizerEN4base14StackAllocatorIS4_Lm8EEEE7reserveEm
__ZNSt3__16vectorI13scoped_refptrIN4mojo4core5WatchEEN4base14StackAllocatorIS5_Lm8EEEE7reserveEm
__ZN4base12LazyInstanceINS_18ThreadLocalPointerIN4mojo4core14RequestContextEEENS_8internal23LeakyLazyInstanceTraitsIS5_EEE7PointerEv
__ZN4base22LazyInstanceTraitsBaseINS_18ThreadLocalPointerIN4mojo4core14RequestContextEEEE3NewEPv
__ZN4mojo4core5ports7PortRefC1Ev
__ZN4mojo4core5ports4Node14CreatePortPairEPNS1_7PortRefES4_
__ZN4mojo4core5ports4Node23CreateUninitializedPortEPNS1_7PortRefE
__ZN4mojo4core5ports12_GLOBAL__N_122GenerateRandomPortNameEPNS1_8PortNameE
__ZN4mojo4core5ports4PortC1Eyy
__ZN4mojo4core5ports12MessageQueueC1Ey
__ZN4mojo4core5ports4Node15AddPortWithNameERKNS1_8PortNameE13scoped_refptrINS1_4PortEE
__ZN4mojo4core5ports10PortLocker34AssertNoPortsLockedOnCurrentThreadEv
__ZN4mojo4core5ports12_GLOBAL__N_19UpdateTLSEPNS1_10PortLockerES4_
__ZNSt3__112__hash_tableINS_17__hash_value_typeIN4mojo4core5ports8PortNameE13scoped_refptrINS4_4PortEEEENS_22__unordered_map_hasherIS5_S9_NS_4hashIS5_EELb1EEENS_21__unordered_map_equalIS5_S9_NS_8equal_toIS5_EELb1EEENS_9allocatorIS9_EEE25__emplace_unique_key_argsIS5_JRKS5_S8_EEENS_4pairINS_15__hash_iteratorIPNS_11__hash_nodeIS9_PvEEEEbEERKT_DpOT0_
__ZN4base10HashInts64Eyy
__ZNSt3__112__hash_tableINS_17__hash_value_typeIN4mojo4core5ports8PortNameE13scoped_refptrINS4_4PortEEEENS_22__unordered_map_hasherIS5_S9_NS_4hashIS5_EELb1EEENS_21__unordered_map_equalIS5_S9_NS_8equal_toIS5_EELb1EEENS_9allocatorIS9_EEE6rehashEm
__ZNSt3__112__hash_tableINS_17__hash_value_typeIN4mojo4core5ports8PortNameE13scoped_refptrINS4_4PortEEEENS_22__unordered_map_hasherIS5_S9_NS_4hashIS5_EELb1EEENS_21__unordered_map_equalIS5_S9_NS_8equal_toIS5_EELb1EEENS_9allocatorIS9_EEE8__rehashEm
__ZN4mojo4core5ports7PortRefC1ERKNS1_8PortNameE13scoped_refptrINS1_4PortEE
__ZN4mojo4core5ports7PortRefaSEOS2_
__ZN4mojo4core5ports7PortRefD1Ev
__ZN4mojo4core5ports4Node14InitializePortERKNS1_7PortRefERKNS1_8NodeNameERKNS1_8PortNameE
__ZN4mojo4core5ports16SinglePortLockerC1EPKNS1_7PortRefE
__ZN4mojo4core5ports10PortLockerC2EPPKNS1_7PortRefEm
__ZNSt3__16__sortIRZN4mojo4core5ports10PortLockerC1EPPKNS3_7PortRefEmE3$_0S8_EEvT0_SB_T_
__ZN4mojo4core5ports4Node21UpdatePortPeerAddressERKNS1_8PortNameEPNS1_4PortERKNS1_8NodeNameES5_
__ZN4mojo4core5ports4Node21RemoveFromPeerPortMapERKNS1_8PortNameEPNS1_4PortE
__ZNSt3__112__hash_tableINS_17__hash_value_typeIN4mojo4core5ports8NodeNameENS_13unordered_mapINS4_8PortNameEN4base8flat_mapIS7_NS4_7PortRefENS_4lessIvEEEENS_4hashIS7_EENS_8equal_toIS7_EENS_9allocatorINS_4pairIKS7_SD_EEEEEEEENS_22__unordered_map_hasherIS5_SO_NSE_IS5_EELb1EEENS_21__unordered_map_equalIS5_SO_NSG_IS5_EELb1EEENSI_ISO_EEE25__emplace_unique_key_argsIS5_JRKNS_21piecewise_construct_tENS_5tupleIJRKS5_EEENS11_IJEEEEEENSJ_INS_15__hash_iteratorIPNS_11__hash_nodeISO_PvEEEEbEERKT_DpOT0_
__ZNSt3__112__hash_tableINS_17__hash_value_typeIN4mojo4core5ports8NodeNameENS_13unordered_mapINS4_8PortNameEN4base8flat_mapIS7_NS4_7PortRefENS_4lessIvEEEENS_4hashIS7_EENS_8equal_toIS7_EENS_9allocatorINS_4pairIKS7_SD_EEEEEEEENS_22__unordered_map_hasherIS5_SO_NSE_IS5_EELb1EEENS_21__unordered_map_equalIS5_SO_NSG_IS5_EELb1EEENSI_ISO_EEE6rehashEm
__ZNSt3__112__hash_tableINS_17__hash_value_typeIN4mojo4core5ports8NodeNameENS_13unordered_mapINS4_8PortNameEN4base8flat_mapIS7_NS4_7PortRefENS_4lessIvEEEENS_4hashIS7_EENS_8equal_toIS7_EENS_9allocatorINS_4pairIKS7_SD_EEEEEEEENS_22__unordered_map_hasherIS5_SO_NSE_IS5_EELb1EEENS_21__unordered_map_equalIS5_SO_NSG_IS5_EELb1EEENSI_ISO_EEE8__rehashEm
__ZNSt3__112__hash_tableINS_17__hash_value_typeIN4mojo4core5ports8PortNameEN4base8flat_mapIS5_NS4_7PortRefENS_4lessIvEEEEEENS_22__unordered_map_hasherIS5_SC_NS_4hashIS5_EELb1EEENS_21__unordered_map_equalIS5_SC_NS_8equal_toIS5_EELb1EEENS_9allocatorISC_EEE25__emplace_unique_key_argsIS5_JRKNS_21piecewise_construct_tENS_5tupleIJRKS5_EEENSS_IJEEEEEENS_4pairINS_15__hash_iteratorIPNS_11__hash_nodeISC_PvEEEEbEERKT_DpOT0_
__ZNSt3__112__hash_tableINS_17__hash_value_typeIN4mojo4core5ports8PortNameEN4base8flat_mapIS5_NS4_7PortRefENS_4lessIvEEEEEENS_22__unordered_map_hasherIS5_SC_NS_4hashIS5_EELb1EEENS_21__unordered_map_equalIS5_SC_NS_8equal_toIS5_EELb1EEENS_9allocatorISC_EEE6rehashEm
__ZNSt3__112__hash_tableINS_17__hash_value_typeIN4mojo4core5ports8PortNameEN4base8flat_mapIS5_NS4_7PortRefENS_4lessIvEEEEEENS_22__unordered_map_hasherIS5_SC_NS_4hashIS5_EELb1EEENS_21__unordered_map_equalIS5_SC_NS_8equal_toIS5_EELb1EEENS_9allocatorISC_EEE8__rehashEm
__ZN4base8internal9flat_treeIN4mojo4core5ports8PortNameENSt3__14pairIS5_NS4_7PortRefEEENS0_24GetKeyFromValuePairFirstIS5_S8_EENS6_4lessIvEEE7emplaceIJRKS5_S8_EEENS7_INS6_11__wrap_iterIPS9_EEbEEDpOT_
__ZN4mojo4core5ports7PortRefC1EOS2_
__ZNSt3__16vectorINS_4pairIN4mojo4core5ports8PortNameENS4_7PortRefEEENS_9allocatorIS7_EEE7emplaceIJS7_EEENS_11__wrap_iterIPS7_EENSC_IPKS7_EEDpOT_
__ZNSt3__114__split_bufferINS_4pairIN4mojo4core5ports8PortNameENS4_7PortRefEEERNS_9allocatorIS7_EEE12emplace_backIJS7_EEEvDpOT_
__ZN4mojo4core5ports16SinglePortLockerD1Ev
__ZN4mojo4core14NodeController17PortStatusChangedERKNS0_5ports7PortRefE
__ZN4mojo4core5ports4Node11GetUserDataERKNS1_7PortRefEP13scoped_refptrINS1_8UserDataEE
__ZN4base10RandUint64Ev
__ZN4mojo4core21MessagePipeDispatcherC1EPNS0_14NodeControllerERKNS0_5ports7PortRefEyi
__ZN4mojo4core21MessagePipeDispatcherC2EPNS0_14NodeControllerERKNS0_5ports7PortRefEyi
__ZN4mojo4core10DispatcherC2Ev
__ZN4mojo4core5ports7PortRefC1ERKS2_
__ZN4mojo4core10WatcherSetC1EPNS0_10DispatcherE
__ZN4mojo4core14NodeController15SetPortObserverERKNS0_5ports7PortRefE13scoped_refptrINS1_12PortObserverEE
__ZN4mojo4core5ports4Node11SetUserDataERKNS1_7PortRefE13scoped_refptrINS1_8UserDataEE
__ZN4mojo4core4Core13AddDispatcherE13scoped_refptrINS0_10DispatcherEE
__ZN4mojo4core11HandleTable7GetLockEv
__ZN4mojo4core11HandleTable13AddDispatcherE13scoped_refptrINS0_10DispatcherEE
__ZNSt3__112__hash_tableINS_17__hash_value_typeIjN4mojo4core11HandleTable5EntryEEENS_22__unordered_map_hasherIjS6_NS_4hashIjEELb1EEENS_21__unordered_map_equalIjS6_NS_8equal_toIjEELb1EEENS_9allocatorIS6_EEE25__emplace_unique_key_argsIjJNS_4pairIjS5_EEEEENSJ_INS_15__hash_iteratorIPNS_11__hash_nodeIS6_PvEEEEbEERKT_DpOT0_
__ZNSt3__112__hash_tableINS_17__hash_value_typeIjN4mojo4core11HandleTable5EntryEEENS_22__unordered_map_hasherIjS6_NS_4hashIjEELb1EEENS_21__unordered_map_equalIjS6_NS_8equal_toIjEELb1EEENS_9allocatorIS6_EEE6rehashEm
__ZNSt3__112__hash_tableINS_17__hash_value_typeIjN4mojo4core11HandleTable5EntryEEENS_22__unordered_map_hasherIjS6_NS_4hashIjEELb1EEENS_21__unordered_map_equalIjS6_NS_8equal_toIjEELb1EEENS_9allocatorIS6_EEE8__rehashEm
__ZN4mojo4core14RequestContextD1Ev
__ZN4mojo4core14RequestContextD2Ev
__ZN4mojo8internal20PendingReceiverStateC1ENS_16ScopedHandleBaseINS_17MessagePipeHandleEEE
__ZN4mojo15ConnectionGroup3RefC1Ev
__ZNO4mojo15PendingReceiverIN15service_manager5mojom7ServiceEEcvNS_16InterfaceRequestIS3_EEEv
__ZN4mojo15ConnectionGroup3RefC1EOS1_
__ZN4mojo15ConnectionGroup3RefaSEOS1_
__ZN4mojo15ConnectionGroup3RefD1Ev
__ZN7content24ServiceManagerConnection6CreateEN4mojo16InterfaceRequestIN15service_manager5mojom7ServiceEEE13scoped_refptrIN4base19SequencedTaskRunnerEE
__ZN4mojo8internal20PendingReceiverStateC1EOS1_
__ZN7content28ServiceManagerConnectionImplC2EN4mojo16InterfaceRequestIN15service_manager5mojom7ServiceEEE13scoped_refptrIN4base19SequencedTaskRunnerEE
__ZN4mojo8internal20PendingReceiverStateC1Ev
__ZN15service_manager9Connector6CreateEPN4mojo16InterfaceRequestINS_5mojom9ConnectorEEE
__ZN4mojo8internal21InterfacePtrStateBaseC2Ev
__ZN4mojo11MakeRequestIN15service_manager5mojom9ConnectorEEENS_16InterfaceRequestIT_EEPNS_12InterfacePtrIS5_EE13scoped_refptrIN4base19SequencedTaskRunnerEE
__ZN4mojo8internal18PendingRemoteStateC1ENS_16ScopedHandleBaseINS_17MessagePipeHandleEEEj
__ZN4mojo12InterfacePtrIN15service_manager5mojom9ConnectorEE4BindENS_16InterfacePtrInfoIS3_EE13scoped_refptrIN4base19SequencedTaskRunnerEE
__ZN4mojo8internal21InterfacePtrStateBase4SwapEPS1_
__ZN4mojo8internal21InterfacePtrStateBaseD2Ev
__ZN4mojo8internal17InterfacePtrStateIN15service_manager5mojom9ConnectorEE4BindEPNS0_18PendingRemoteStateE13scoped_refptrIN4base19SequencedTaskRunnerEE
__ZN4mojo8internal21InterfacePtrStateBase4BindEPNS0_18PendingRemoteStateE13scoped_refptrIN4base19SequencedTaskRunnerEE
__ZN4mojo8internal44GetTaskRunnerToUseFromUserProvidedTaskRunnerE13scoped_refptrIN4base19SequencedTaskRunnerEE
__ZN4mojo8internal18PendingRemoteStateD1Ev
__ZN4mojo8internal20PendingReceiverStateaSEOS1_
__ZN4mojo8internal20PendingReceiverStateD1Ev
__ZN4mojo12InterfacePtrIN15service_manager5mojom9ConnectorEE13PassInterfaceEv
__ZN4mojo8internal17InterfacePtrStateIN15service_manager5mojom9ConnectorEE13PassInterfaceEv
__ZN4mojo8internal18PendingRemoteStateC1EOS1_
__ZN7content28ServiceManagerConnectionImpl15IOThreadContextC2EN4mojo16InterfaceRequestIN15service_manager5mojom7ServiceEEE13scoped_refptrIN4base19SequencedTaskRunnerEENS3_INS5_9ConnectorEEE
__ZN15service_manager7ServiceC2Ev
__ZN7content24ServiceManagerConnection13SetForProcessENSt3__110unique_ptrIS0_NS1_14default_deleteIS0_EEEE
__ZN4base12LazyInstanceINSt3__110unique_ptrIN7content24ServiceManagerConnectionENS1_14default_deleteIS4_EEEENS_8internal23LeakyLazyInstanceTraitsIS7_EEE7PointerEv
__ZN4base22LazyInstanceTraitsBaseINSt3__110unique_ptrIN7content24ServiceManagerConnectionENS1_14default_deleteIS4_EEEEE3NewEPv
__ZN7content24ServiceManagerConnection13GetForProcessEv
__ZN7content28ServiceManagerConnectionImpl12GetConnectorEv
__ZN15service_manager9Connector5CloneEv
__ZN4mojo11MakeRequestIN15service_manager5mojom9ConnectorEEENS_16InterfaceRequestIT_EEPNS_16InterfacePtrInfoIS5_EE
__ZN15service_manager9Connector24BindConnectorIfNecessaryEv
__ZN4base8internal8BindImplINS_12OnceCallbackEMN15service_manager9ConnectorEFvvEJNS0_17UnretainedWrapperIS4_EEEEEDcOT0_DpOT1_
__ZN4mojo8internal17InterfacePtrStateIN15service_manager5mojom9ConnectorEE28set_connection_error_handlerEN4base12OnceCallbackIFvvEEE
__ZN4mojo8internal17InterfacePtrStateIN15service_manager5mojom9ConnectorEE25ConfigureProxyIfNecessaryEv
__ZN4mojo8internal21InterfacePtrStateBase24InitializeEndpointClientEbbNSt3__110unique_ptrINS_15MessageReceiverENS2_14default_deleteIS4_EEEEPKc
__ZN4mojo8internal15MultiplexRouterC1ENS_16ScopedHandleBaseINS_17MessagePipeHandleEEENS1_6ConfigEb13scoped_refptrIN4base19SequencedTaskRunnerEE
__ZN4mojo8internal15MultiplexRouterC2ENS_16ScopedHandleBaseINS_17MessagePipeHandleEEENS1_6ConfigEb13scoped_refptrIN4base19SequencedTaskRunnerEE
__ZN4mojo17MessageDispatcherC1EPNS_15MessageReceiverE
__ZN4mojo9ConnectorC1ENS_16ScopedHandleBaseINS_17MessagePipeHandleEEENS0_15ConnectorConfigE13scoped_refptrIN4base19SequencedTaskRunnerEE
__ZN4mojo9ConnectorC2ENS_16ScopedHandleBaseINS_17MessagePipeHandleEEENS0_15ConnectorConfigE13scoped_refptrIN4base19SequencedTaskRunnerEE
__ZN4mojo9Connector22RunLoopNestingObserver12GetForThreadEv
__ZN4base8internal37GetNextSequenceLocalStorageSlotNumberEv
__ZN4base8internal23SequenceLocalStorageMap19GetForCurrentThreadEv
__ZN4base8internal23SequenceLocalStorageMap3GetEi
__ZN4base8internal23SequenceLocalStorageMap19ValueDestructorPairC1EPvPFvS3_E
__ZN4base8internal23SequenceLocalStorageMap19ValueDestructorPairC1EOS2_
__ZN4base8internal23SequenceLocalStorageMap3SetEiNS1_19ValueDestructorPairE
__ZNSt3__16vectorINS_4pairIiN4base8internal23SequenceLocalStorageMap19ValueDestructorPairEEENS_9allocatorIS6_EEE7emplaceIJS6_EEENS_11__wrap_iterIPS6_EENSB_IPKS6_EEDpOT_
__ZNSt3__114__split_bufferINS_4pairIiN4base8internal23SequenceLocalStorageMap19ValueDestructorPairEEERNS_9allocatorIS6_EEE12emplace_backIJS6_EEEvDpOT_
__ZN4base8internal23SequenceLocalStorageMap19ValueDestructorPairD1Ev
__ZN4base8internal11WeakPtrBaseC2Ev
__ZN4mojo13MessageDumper23GetMessageDumpDirectoryEv
__ZN4mojo9Connector14WaitToReadMoreEv
__ZN4mojo13SimpleWatcherC1ERKN4base8LocationENS0_12ArmingPolicyE13scoped_refptrINS1_19SequencedTaskRunnerEE
__ZN4mojo13SimpleWatcherC2ERKN4base8LocationENS0_12ArmingPolicyE13scoped_refptrINS1_19SequencedTaskRunnerEE
__ZN4mojo10CreateTrapEPFvPK13MojoTrapEventEPNS_16ScopedHandleBaseINS_10TrapHandleEEE
_MojoCreateTrap
__ZN4base18UnsanitizedCfiCallI16MojoSystemThunksMS1_PFjPFvPK13MojoTrapEventEPK21MojoCreateTrapOptionsPjEEEDaRKNS_15ProtectedMemoryIT_EET0_
_MojoCreateTrapImpl
__ZN4mojo4core4Core10CreateTrapEPFvPK13MojoTrapEventEPK21MojoCreateTrapOptionsPj
__ZN4mojo4core17WatcherDispatcherC1EPFvPK13MojoTrapEventE
__ZN4base8internal8BindImplINS_17RepeatingCallbackEMN4mojo9ConnectorEFvjEJNS0_17UnretainedWrapperIS4_EEEEEDcOT0_DpOT1_
__ZN4base8internal9BindStateIPFvRKNS_17RepeatingCallbackIFvjEEEjRKN4mojo18HandleSignalsStateEEJS4_EE6CreateISC_JS6_EEEPSD_PFvvEOT_DpOT0_
__ZN4mojo13SimpleWatcher5WatchENS_6HandleEjjRKN4base17RepeatingCallbackIFvjRKNS_18HandleSignalsStateEEEE
__ZN4mojo13SimpleWatcher7Context6CreateEN4base7WeakPtrIS0_EE13scoped_refptrINS2_19SequencedTaskRunnerEENS_10TrapHandleENS_6HandleEjjiPj
__ZN4base8internal13WeakReferenceC1ERKS1_
_MojoAddTrigger
__ZN4base18UnsanitizedCfiCallI16MojoSystemThunksMS1_PFjjjjjmPK21MojoAddTriggerOptionsEEEDaRKNS_15ProtectedMemoryIT_EET0_
_MojoAddTriggerImpl
__ZN4mojo4core4Core10AddTriggerEjjjjmPK21MojoAddTriggerOptions
__ZNK4mojo4core11HandleTable13GetDispatcherEj
__ZNK4mojo4core17WatcherDispatcher7GetTypeEv
__ZN4mojo4core17WatcherDispatcher15WatchDispatcherE13scoped_refptrINS0_10DispatcherEEjjm
__ZN4mojo4core5WatchC1ERK13scoped_refptrINS0_17WatcherDispatcherEERKS2_INS0_10DispatcherEEmjj
__ZNSt3__16vectorINS_4pairIm13scoped_refptrIN4mojo4core5WatchEEEENS_9allocatorIS7_EEE7emplaceIJS7_EEENS_11__wrap_iterIPS7_EENSC_IPKS7_EEDpOT_
__ZNSt3__114__split_bufferINS_4pairIm13scoped_refptrIN4mojo4core5WatchEEEERNS_9allocatorIS7_EEE12emplace_backIJS7_EEEvDpOT_
__ZNSt3__16vectorINS_4pairIPN4mojo4core10DispatcherE13scoped_refptrINS3_5WatchEEEENS_9allocatorIS9_EEE7emplaceIJS9_EEENS_11__wrap_iterIPS9_EENSE_IPKS9_EEDpOT_
__ZNSt3__114__split_bufferINS_4pairIPN4mojo4core10DispatcherE13scoped_refptrINS3_5WatchEEEERNS_9allocatorIS9_EEE12emplace_backIJS9_EEEvDpOT_
__ZN4mojo4core21MessagePipeDispatcher13AddWatcherRefERK13scoped_refptrINS0_17WatcherDispatcherEEm
__ZNK4mojo4core21MessagePipeDispatcher27GetHandleSignalsStateNoLockEv
__ZN4mojo4core5ports4Node9GetStatusERKNS1_7PortRefEPNS1_10PortStatusE
__ZNK4mojo4core5ports12MessageQueue14HasNextMessageEv
__ZN4mojo4core10WatcherSet3AddERK13scoped_refptrINS0_17WatcherDispatcherEEmRKNS0_18HandleSignalsStateE
__ZNSt3__16vectorINS_4pairIPN4mojo4core17WatcherDispatcherENS3_10WatcherSet5EntryEEENS_9allocatorIS8_EEE7emplaceIJS8_EEENS_11__wrap_iterIPS8_EENSD_IPKS8_EEDpOT_
__ZNSt3__114__split_bufferINS_4pairIPN4mojo4core17WatcherDispatcherENS3_10WatcherSet5EntryEEERNS_9allocatorIS8_EEE12emplace_backIJS8_EEEvDpOT_
__ZNSt3__16__treeImNS_4lessImEENS_9allocatorImEEE7destroyEPNS_11__tree_nodeImPvEE
__ZN4mojo4core17WatcherDispatcher17NotifyHandleStateEPNS0_10DispatcherERKNS0_18HandleSignalsStateE
__ZN4mojo4core5Watch11NotifyStateERKNS0_18HandleSignalsStateEb
__ZN4mojo4core14RequestContext7currentEv
__ZN4base8internal19OptionalStorageBaseIN4mojo19HandleSignalTrackerELb0EE4InitIJRKNS2_17MessagePipeHandleERKjR13scoped_refptrINS_19SequencedTaskRunnerEEEEEvDpOT_
__ZN4mojo19HandleSignalTrackerC1ENS_6HandleEj13scoped_refptrIN4base19SequencedTaskRunnerEE
__ZN4mojo19HandleSignalTrackerC2ENS_6HandleEj13scoped_refptrIN4base19SequencedTaskRunnerEE
__ZN4base8internal8BindImplINS_17RepeatingCallbackEMN4mojo19HandleSignalTrackerEFvjRKNS3_18HandleSignalsStateEEJNS0_17UnretainedWrapperIS4_EEEEEDcOT0_DpOT1_
_MojoQueryHandleSignalsState
__ZN4base18UnsanitizedCfiCallI16MojoSystemThunksMS1_PFjjP22MojoHandleSignalsStateEEEDaRKNS_15ProtectedMemoryIT_EET0_
_MojoQueryHandleSignalsStateImpl
__ZN4mojo4core4Core23QueryHandleSignalsStateEjP22MojoHandleSignalsState
__ZNK4mojo4core21MessagePipeDispatcher21GetHandleSignalsStateEv
__ZN4mojo19HandleSignalTracker3ArmEv
__ZN4mojo13SimpleWatcher3ArmEPjPNS_18HandleSignalsStateE
_MojoArmTrap
__ZN4base18UnsanitizedCfiCallI16MojoSystemThunksMS1_PFjjPK18MojoArmTrapOptionsPjP13MojoTrapEventEEEDaRKNS_15ProtectedMemoryIT_EET0_
_MojoArmTrapImpl
__ZN4mojo4core4Core7ArmTrapEjPK18MojoArmTrapOptionsPjP13MojoTrapEvent
__ZN4mojo4core17WatcherDispatcher3ArmEPjP13MojoTrapEvent
__ZNK4mojo4core5Watch25AssertWatcherLockAcquiredEv
__ZN4mojo13SimpleWatcher11ArmOrNotifyEv
__ZN4mojo25PipeControlMessageHandlerC1EPNS_33PipeControlMessageHandlerDelegateE
__ZN4mojo23PipeControlMessageProxyC1EPNS_15MessageReceiverE
__ZN4base8internal8BindImplINS_12OnceCallbackEMN4mojo8internal15MultiplexRouterEFvbEJNS0_17UnretainedWrapperIS5_EEbEEEDcOT0_DpOT1_
__ZN4base8internal12CallbackBaseaSEOS1_
__ZN4mojo22MessageHeaderValidatorC1Ev
__ZN4mojo17MessageDispatcher12SetValidatorENSt3__110unique_ptrINS_15MessageReceiverENS1_14default_deleteIS3_EEEE
__ZN4mojo8internal15MultiplexRouter25CreateLocalEndpointHandleEj
__ZN4mojo8internal15MultiplexRouter20FindOrInsertEndpointEjPb
__ZN4base9small_mapINSt3__13mapIj13scoped_refptrIN4mojo8internal15MultiplexRouter17InterfaceEndpointEENS1_4lessIjEENS1_9allocatorINS1_4pairIKjS8_EEEEEELm1ENS_8internal16select_equal_keyISG_Lb0EE9equal_keyENSH_22small_map_default_initISG_EEEixERSD_
__ZN4mojo25AssociatedGroupController35CreateScopedInterfaceEndpointHandleEj
__ZN4mojo29ScopedInterfaceEndpointHandleC1Ej13scoped_refptrINS_25AssociatedGroupControllerEE
__ZN4mojo29ScopedInterfaceEndpointHandleC2Ej13scoped_refptrINS_25AssociatedGroupControllerEE
__ZN4mojo23InterfaceEndpointClientC1ENS_29ScopedInterfaceEndpointHandleEPNS_34MessageReceiverWithResponderStatusENSt3__110unique_ptrINS_15MessageReceiverENS4_14default_deleteIS6_EEEEb13scoped_refptrIN4base19SequencedTaskRunnerEEjPKc
__ZN4mojo23InterfaceEndpointClientC2ENS_29ScopedInterfaceEndpointHandleEPNS_34MessageReceiverWithResponderStatusENSt3__110unique_ptrINS_15MessageReceiverENS4_14default_deleteIS6_EEEEb13scoped_refptrIN4base19SequencedTaskRunnerEEjPKc
__ZN4mojo29ScopedInterfaceEndpointHandleC1EOS0_
__ZN4mojo8internal19ControlMessageProxyC1EPNS_23InterfaceEndpointClientE
__ZN4mojo8internal21ControlMessageHandlerC1EPNS_23InterfaceEndpointClientEj
__ZN4mojo8internal20SerializationContextC1Ev
__ZNK4mojo29ScopedInterfaceEndpointHandle8is_validEv
__ZNK4mojo29ScopedInterfaceEndpointHandle19pending_associationEv
__ZN4mojo23InterfaceEndpointClient25InitControllerIfNecessaryEv
__ZNK4mojo29ScopedInterfaceEndpointHandle16group_controllerEv
__ZN4mojo8internal15MultiplexRouter20AttachEndpointClientERKNS_29ScopedInterfaceEndpointHandleEPNS_23InterfaceEndpointClientE13scoped_refptrIN4base19SequencedTaskRunnerEE
__ZNK4mojo29ScopedInterfaceEndpointHandle2idEv
__ZN4mojo8internal15MultiplexRouter17InterfaceEndpoint12AttachClientEPNS_23InterfaceEndpointClientE13scoped_refptrIN4base19SequencedTaskRunnerEE
__ZN4mojo8internal15MultiplexRouter12ProcessTasksENS1_18ClientCallBehaviorEPN4base19SequencedTaskRunnerE
__ZN4mojo29ScopedInterfaceEndpointHandleD1Ev
__ZN4mojo29ScopedInterfaceEndpointHandleD2Ev
__ZN4mojo29ScopedInterfaceEndpointHandle5State5CloseERKN4base8OptionalINS_16DisconnectReasonEEE
__ZN4mojo29ScopedInterfaceEndpointHandle5StateD2Ev
__ZN4mojo8internal15MultiplexRouter22SetMasterInterfaceNameEPKc
__ZN4mojo22MessageHeaderValidator14SetDescriptionERKNSt3__112basic_stringIcNS1_11char_traitsIcEENS1_9allocatorIcEEEE
__ZN4mojo25PipeControlMessageHandler14SetDescriptionERKNSt3__112basic_stringIcNS1_11char_traitsIcEENS1_9allocatorIcEEEE
__ZN4mojo9Connector25SetWatcherHeapProfilerTagEPKc
__ZN15service_manager5mojom14ConnectorProxyC1EPN4mojo28MessageReceiverWithResponderE
__ZN4base8internal12CallbackBase5ResetEv
__ZN4mojo15PendingReceiverIN15service_manager5mojom9ConnectorEEC1EONS_16InterfaceRequestIS3_EE
__ZN15service_manager5mojom14ConnectorProxy5CloneEN4mojo15PendingReceiverINS0_9ConnectorEEE
__ZN4mojo7MessageC1EjjmmPNSt3__16vectorINS_16ScopedHandleBaseINS_6HandleEEENS1_9allocatorIS5_EEEE
__ZN4mojo7MessageC2EjjmmPNSt3__16vectorINS_16ScopedHandleBaseINS_6HandleEEENS1_9allocatorIS5_EEEE
__ZN4mojo8internal6BufferC1Ev
_MojoCreateMessage
__ZN4base18UnsanitizedCfiCallI16MojoSystemThunksMS1_PFjPK24MojoCreateMessageOptionsPmEEEDaRKNS_15ProtectedMemoryIT_EET0_
_MojoCreateMessageImpl
__ZN4mojo4core4Core13CreateMessageEPK24MojoCreateMessageOptionsPm
__ZN4mojo4core15UserMessageImpl24CreateEventForNewMessageEv
__ZN4mojo4core5ports16UserMessageEventC1Em
__ZN4mojo4core5ports11UserMessageC2EPKNS2_8TypeInfoE
__ZN4mojo4core12_GLOBAL__N_130EnsureMemoryDumpProviderExistsEv
__ZN4mojo4core5ports16UserMessageEvent13AttachMessageENSt3__110unique_ptrINS1_11UserMessageENS3_14default_deleteIS5_EEEE
__ZN4mojo8internal28ComputeSerializedMessageSizeEjmm
_MojoAppendMessageData
__ZN4base18UnsanitizedCfiCallI16MojoSystemThunksMS1_PFjmjPKjjPK28MojoAppendMessageDataOptionsPPvPjEEEDaRKNS_15ProtectedMemoryIT_EET0_
_MojoAppendMessageDataImpl
__ZN4mojo4core4Core17AppendMessageDataEmjPKjjPK28MojoAppendMessageDataOptionsPPvPj
__ZN4mojo4core5ports16UserMessageEvent10GetMessageINS0_15UserMessageImplEEEPT_v
__ZN4mojo4core15UserMessageImpl10AppendDataEjPKjj
__ZN4mojo4core12_GLOBAL__N_136CreateOrExtendSerializedEventMessageEPNS0_5ports16UserMessageEventEmmPKNS0_10Dispatcher19DispatcherInTransitEmPNSt3__110unique_ptrINS0_7Channel7MessageENS9_14default_deleteISC_EEEEPPvPmSI_
__ZNK4mojo4core5ports5Event17GetSerializedSizeEv
__ZNK4mojo4core5ports16UserMessageEvent21GetSerializedDataSizeEv
__ZN4mojo4core11NodeChannel18CreateEventMessageEmmPPvm
__ZN4mojo4core7Channel7MessageC1Emmm
__ZN4mojo4core7Channel7MessageC2EmmmNS2_11MessageTypeE
__ZN4base12AlignedAllocEmm
__ZN4mojo4core7Channel7Message15mutable_payloadEv
__ZN4mojo4core15UserMessageImpl12user_payloadEv
__ZNK4mojo4core15UserMessageImpl21user_payload_capacityEv
__ZNK4mojo4core7Channel7Message7payloadEv
__ZNK4mojo4core7Channel7Message8capacityEv
__ZN4mojo8internal6BufferC1ENS_13MessageHandleEmPvm
__ZN4mojo12_GLOBAL__N_118WriteMessageHeaderEjjjmPNS_8internal6BufferE
__ZN4mojo8internal6Buffer8AllocateEm
__ZN4mojo8internal6BufferaSEOS1_
__ZN4mojo8internal6BufferD1Ev
__ZN15service_manager5mojom8internal27Connector_Clone_Params_Data12BufferWriter4dataEv
__ZN15service_manager5mojom8internal27Connector_Clone_Params_DataC1Ev
__ZN4mojo8internal20SerializationContext9AddHandleENS_16ScopedHandleBaseINS_6HandleEEEPNS0_11Handle_DataE
__ZNSt3__16vectorIN4mojo16ScopedHandleBaseINS1_6HandleEEENS_9allocatorIS4_EEE24__emplace_back_slow_pathIJS4_EEEvDpOT_
__ZN4mojo8internal24IsHandleOrInterfaceValidERKNS0_11Handle_DataE
__ZN4mojo7Message37AttachHandlesFromSerializationContextEPNS_8internal20SerializationContextE
__ZN4mojo8internal6Buffer13AttachHandlesEPNSt3__16vectorINS_16ScopedHandleBaseINS_6HandleEEENS2_9allocatorIS6_EEEE
__ZN4mojo4core4Core28AcquireDispatchersForTransitEPKjmPNSt3__16vectorINS0_10Dispatcher19DispatcherInTransitENS4_9allocatorIS7_EEEE
__ZN4mojo4core11HandleTable12BeginTransitEPKjmPNSt3__16vectorINS0_10Dispatcher19DispatcherInTransitENS4_9allocatorIS7_EEEE
__ZNSt3__16vectorIN4mojo4core10Dispatcher19DispatcherInTransitENS_9allocatorIS4_EEE7reserveEm
__ZN4mojo4core10Dispatcher19DispatcherInTransitC1Ev
__ZN4mojo4core21MessagePipeDispatcher12BeginTransitEv
__ZN4mojo4core10Dispatcher19DispatcherInTransitC1ERKS2_
__ZN4mojo4core10Dispatcher19DispatcherInTransitD1Ev
__ZNSt3__16vectorIN4mojo4core10Dispatcher19DispatcherInTransitENS_9allocatorIS4_EEE21__push_back_slow_pathIRKS4_EEvOT_
__ZN4mojo23InterfaceEndpointClient6AcceptEPNS_7MessageE
__ZN4mojo23InterfaceEndpointClient11SendMessageEPNS_7MessageEb
__ZN4mojo8internal15MultiplexRouter17InterfaceEndpoint11SendMessageEPNS_7MessageE
__ZN4mojo9Connector6AcceptEPNS_7MessageE
__ZN4mojo7Message15TakeMojoMessageEv
__ZN4mojo8internal6Buffer4SealEv
__ZN4mojo4core7Channel7Message13ExtendPayloadEm
__ZN4mojo4core15UserMessageImpl10CommitSizeEv
__ZNK4mojo4core7Channel7Message11num_handlesEv
__ZNK4mojo4core7Channel7Message12payload_sizeEv
__ZN4mojo4core21MessagePipeDispatcher14StartSerializeEPjS2_S2_
__ZN4mojo4core5ports16UserMessageEvent12ReservePortsEm
__ZNSt3__16vectorIN4mojo4core5ports5Event14PortDescriptorENS_9allocatorIS5_EEE8__appendEm
__ZNSt3__16vectorIN4mojo4core5ports8PortNameENS_9allocatorIS4_EEE8__appendEm
__ZN4mojo4core7Channel7Message11TakeHandlesEv
__ZNK4mojo4core21MessagePipeDispatcher7GetTypeEv
__ZN4mojo4core21MessagePipeDispatcher12EndSerializeEPvPNS0_5ports8PortNameEPNS_14PlatformHandleE
__ZN4mojo4core7Channel7Message10SetHandlesENSt3__16vectorINS_14PlatformHandleENS3_9allocatorIS5_EEEE
__ZNSt3__16vectorIN4mojo4core23PlatformHandleInTransitENS_9allocatorIS3_EEE7reserveEm
__ZN4mojo4core7Channel7Message10SetHandlesENSt3__16vectorINS0_23PlatformHandleInTransitENS3_9allocatorIS5_EEEE
__ZN4mojo4core7Channel7MessageD1Ev
__ZN4mojo4core4Core28ReleaseDispatchersForTransitERKNSt3__16vectorINS0_10Dispatcher19DispatcherInTransitENS2_9allocatorIS5_EEEEb
__ZN4mojo4core11HandleTable23CompleteTransitAndCloseERKNSt3__16vectorINS0_10Dispatcher19DispatcherInTransitENS2_9allocatorIS5_EEEE
__ZNSt3__112__hash_tableINS_17__hash_value_typeIjN4mojo4core11HandleTable5EntryEEENS_22__unordered_map_hasherIjS6_NS_4hashIjEELb1EEENS_21__unordered_map_equalIjS6_NS_8equal_toIjEELb1EEENS_9allocatorIS6_EEE6removeENS_21__hash_const_iteratorIPNS_11__hash_nodeIS6_PvEEEE
__ZN4mojo4core21MessagePipeDispatcher23CompleteTransitAndCloseEv
__ZN4mojo4core21MessagePipeDispatcher17PortObserverThunkD0Ev
__ZN4mojo4core21MessagePipeDispatcher11CloseNoLockEv
__ZN4mojo4core10WatcherSet12NotifyClosedEv
__ZN4mojo4core21MessagePipeDispatcherD0Ev
__ZN4mojo4core10WatcherSetD1Ev
__ZN4mojo4core10DispatcherD2Ev
__ZN4mojo7Message5ResetEv
__ZN4mojo8internal6Buffer5ResetEv
_MojoWriteMessage
__ZN4base18UnsanitizedCfiCallI16MojoSystemThunksMS1_PFjjmPK23MojoWriteMessageOptionsEEEDaRKNS_15ProtectedMemoryIT_EET0_
_MojoWriteMessageImpl
__ZN4mojo4core4Core12WriteMessageEjmPK23MojoWriteMessageOptions
__ZN4mojo4core21MessagePipeDispatcher12WriteMessageENSt3__110unique_ptrINS0_5ports16UserMessageEventENS2_14default_deleteIS5_EEEE
__ZN4mojo4core14NodeController15SendUserMessageERKNS0_5ports7PortRefENSt3__110unique_ptrINS2_16UserMessageEventENS6_14default_deleteIS8_EEEE
__ZN4mojo4core5ports4Node15SendUserMessageERKNS1_7PortRefENSt3__110unique_ptrINS1_16UserMessageEventENS6_14default_deleteIS8_EEEE
__ZN4mojo4core5ports4Node23SendUserMessageInternalERKNS1_7PortRefEPNSt3__110unique_ptrINS1_16UserMessageEventENS6_14default_deleteIS8_EEEE
__ZN4mojo4core5ports4Node27PrepareToForwardUserMessageERKNS1_7PortRefENS1_4Port5StateEbPNS1_16UserMessageEventEPNS1_8NodeNameE
__ZNSt3__16vectorIN4mojo4core5ports7PortRefEN4base14StackAllocatorIS4_Lm4EEEE7reserveEm
__ZNSt3__16vectorIN4mojo4core5ports7PortRefEN4base14StackAllocatorIS4_Lm4EEEE8__appendEm
__ZNSt3__16vectorIPKN4mojo4core5ports7PortRefEN4base14StackAllocatorIS6_Lm5EEEE8__appendEm
__ZN4mojo4core5ports10PortLockerC1EPPKNS1_7PortRefEm
__ZN4mojo4core5portslsERNSt3__113basic_ostreamIcNS2_11char_traitsIcEEEERKNS1_4NameE
__ZNSt3__113basic_ostreamIcNS_11char_traitsIcEEElsEy
__ZNKSt3__15ctypeIcE8do_widenEc
__ZNKSt3__17num_putIcNS_19ostreambuf_iteratorIcNS_11char_traitsIcEEEEE6do_putES4_RNS_8ios_baseEcy
__ZNKSt3__18ios_base6getlocEv
__ZNSt3__19__num_putIcE21__widen_and_group_intEPcS2_S2_S2_RS2_S3_RKNS_6localeE
__ZNKSt3__18numpunctIcE11do_groupingEv
__ZNKSt3__15ctypeIcE8do_widenEPKcS3_Pc
__ZNSt3__116__pad_and_outputIcNS_11char_traitsIcEEEENS_19ostreambuf_iteratorIT_T0_EES6_PKS4_S8_S8_RNS_8ios_baseES4_
__ZNSt3__115basic_streambufIcNS_11char_traitsIcEEE6xsputnEPKcl
__ZNSt3__115basic_stringbufIcNS_11char_traitsIcEENS_9allocatorIcEEE8overflowEi
__ZNSt3__113basic_ostreamIcNS_11char_traitsIcEEE6sentryD2Ev
__ZNSt3__124__put_character_sequenceIcNS_11char_traitsIcEEEERNS_13basic_ostreamIT_T0_EES7_PKS4_m
__ZNSt3__113basic_ostreamIcNS_11char_traitsIcEEE6sentryC1ERS3_
__ZNSt3__113basic_ostreamIcNS_11char_traitsIcEEE6sentryD1Ev
__ZNSt3__115basic_streambufIcNS_11char_traitsIcEEED2Ev
__ZNSt3__113basic_ostreamIcNS_11char_traitsIcEEED2Ev
__ZNSt3__19basic_iosIcNS_11char_traitsIcEEED2Ev
__ZNSt3__18ios_baseD2Ev
__ZN4mojo4core5ports10PortLockerD1Ev
__ZN4mojo4core5ports4Node11AcceptEventENSt3__110unique_ptrINS1_5EventENS3_14default_deleteIS5_EEEE
__ZN4mojo4core5ports4Node13OnUserMessageENSt3__110unique_ptrINS1_16UserMessageEventENS3_14default_deleteIS5_EEEE
__ZN4mojo4core5ports4Node7GetPortERKNS1_8PortNameEPNS1_7PortRefE
__ZN4mojo4core5ports12MessageQueue13AcceptMessageENSt3__110unique_ptrINS1_16UserMessageEventENS3_14default_deleteIS5_EEEEPb
__ZNK4mojo4core5ports16UserMessageEvent19GetSizeIfSerializedEv
__ZNK4mojo4core15UserMessageImpl19GetSizeIfSerializedEv
__ZNSt3__16vectorINS_10unique_ptrIN4mojo4core5ports16UserMessageEventENS_14default_deleteIS5_EEEENS_9allocatorIS8_EEE24__emplace_back_slow_pathIJS8_EEEvDpOT_
__ZN4mojo4core21MessagePipeDispatcher17PortObserverThunk19OnPortStatusChangedEv
__ZN4mojo4core21MessagePipeDispatcher19OnPortStatusChangedEv
__ZN4mojo4core5ports4Node10GetMessageERKNS1_7PortRefEPNSt3__110unique_ptrINS1_16UserMessageEventENS6_14default_deleteIS8_EEEEPNS1_13MessageFilterE
__ZN4mojo4core5ports12MessageQueue14GetNextMessageEPNSt3__110unique_ptrINS1_16UserMessageEventENS3_14default_deleteIS5_EEEEPNS1_13MessageFilterE
__ZN4mojo4core21PeekSizeMessageFilter5MatchERKNS0_5ports16UserMessageEventE
__ZNK4mojo4core5ports16UserMessageEvent10GetMessageINS0_15UserMessageImplEEEPKT_v
__ZNK4mojo4core15UserMessageImpl17user_payload_sizeEv
__ZN4mojo4core10WatcherSet11NotifyStateERKNS0_18HandleSignalsStateE
__ZN4mojo8internal20SerializationContextD1Ev
__ZN4mojo7MessageD1Ev
__ZN4mojo7MessageD2Ev
__ZN7content18SetSystemConnectorENSt3__110unique_ptrIN15service_manager9ConnectorENS0_14default_deleteIS3_EEEE
__ZN4mojo13PendingRemoteIN15service_manager5mojom9ConnectorEE30InitWithNewPipeAndPassReceiverEv
__ZNO4mojo15PendingReceiverIN15service_manager5mojom9ConnectorEEcvNS_16InterfaceRequestIS3_EEEv
__ZN15service_manager9Connector20BindConnectorRequestEN4mojo16InterfaceRequestINS_5mojom9ConnectorEEE
__ZN4base24SequenceLocalStorageSlotIN15service_manager9ConnectorENSt3__114default_deleteIS2_EEE7emplaceIJN4mojo13PendingRemoteINS1_5mojom9ConnectorEEEEEEPS2_DpOT_
__ZN15service_manager9ConnectorC1EN4mojo16InterfacePtrInfoINS_5mojom9ConnectorEEE
__ZN15service_manager9ConnectorD1Ev
__ZN4base8internal18WeakPtrFactoryBaseD2Ev
__ZN4base8internal18WeakReferenceOwnerD2Ev
__ZN4base8internal13WeakReference4Flag10InvalidateEv
__ZN4base10AtomicFlag3SetEv
__ZN4base10AtomicFlagD1Ev
__ZNSt3__16__treeINS_12__value_typeIN15service_manager13ServiceFilterENS_3mapINS_12basic_stringIcNS_11char_traitsIcEENS_9allocatorIcEEEEN4base17RepeatingCallbackIFvN4mojo16ScopedHandleBaseINSD_17MessagePipeHandleEEEEEENS_4lessISA_EENS8_INS_4pairIKSA_SI_EEEEEEEENS_19__map_value_compareIS3_SQ_NSJ_IS3_EELb1EEENS8_ISQ_EEE7destroyEPNS_11__tree_nodeISQ_PvEE
__ZN15service_manager5mojom14ConnectorProxyD0Ev
__ZN4mojo23InterfaceEndpointClientD0Ev
__ZN4mojo23InterfaceEndpointClientD2Ev
__ZN4mojo8internal15MultiplexRouter20DetachEndpointClientERKNS_29ScopedInterfaceEndpointHandleE
__ZN4mojo8internal15MultiplexRouter17InterfaceEndpoint12DetachClientEv
__ZN4mojo8internal21ControlMessageHandlerD1Ev
__ZN4mojo8internal19ControlMessageProxyD1Ev
__ZN4base8internal9BindStateIMN15service_manager9ConnectorEFvvEJNS0_17UnretainedWrapperIS3_EEEE7DestroyEPKNS0_13BindStateBaseE
__ZNSt3__16__treeINS_12__value_typeIyNS_10unique_ptrIN4mojo23InterfaceEndpointClient16SyncResponseInfoENS_14default_deleteIS5_EEEEEENS_19__map_value_compareIyS9_NS_4lessIyEELb1EEENS_9allocatorIS9_EEE7destroyEPNS_11__tree_nodeIS9_PvEE
__ZNSt3__16__treeINS_12__value_typeIyNS_10unique_ptrIN4mojo15MessageReceiverENS_14default_deleteIS4_EEEEEENS_19__map_value_compareIyS8_NS_4lessIyEELb1EEENS_9allocatorIS8_EEE7destroyEPNS_11__tree_nodeIS8_PvEE
__ZN4mojo17MessageDispatcherD1Ev
__ZN15service_manager5mojom26ConnectorResponseValidatorD0Ev
__ZN4mojo8internal15MultiplexRouter19CloseEndpointHandleEjRKN4base8OptionalINS_16DisconnectReasonEEE
__ZN4mojo8internal15MultiplexRouter28UpdateEndpointStateMayRemoveEPNS1_17InterfaceEndpointENS1_23EndpointStateUpdateTypeE
__ZN4mojo8internal15MultiplexRouter16CloseMessagePipeEv
__ZN4mojo9Connector16CloseMessagePipeEv
__ZN4mojo9Connector15PassMessagePipeEv
__ZN4mojo9Connector10CancelWaitEv
__ZN4mojo19HandleSignalTrackerD1Ev
__ZN4mojo13SimpleWatcherD1Ev
__ZN4mojo13SimpleWatcherD2Ev
__ZN4mojo13SimpleWatcher6CancelEv
__ZN4base8internal9BindStateIMN4mojo19HandleSignalTrackerEFvjRKNS2_18HandleSignalsStateEEJNS0_17UnretainedWrapperIS3_EEEE7DestroyEPKNS0_13BindStateBaseE
_MojoRemoveTrigger
__ZN4base18UnsanitizedCfiCallI16MojoSystemThunksMS1_PFjjmPK24MojoRemoveTriggerOptionsEEEDaRKNS_15ProtectedMemoryIT_EET0_
_MojoRemoveTriggerImpl
__ZN4mojo4core4Core13RemoveTriggerEjmPK24MojoRemoveTriggerOptions
__ZN4mojo4core17WatcherDispatcher11CancelWatchEm
__ZN4base8internal9flat_treeImNSt3__14pairIm13scoped_refptrIN4mojo4core5WatchEEEENS0_24GetKeyFromValuePairFirstImS8_EENS2_4lessIvEEE5eraseENS2_11__wrap_iterIPS9_EE
__ZN4mojo4core5Watch6CancelEv
__ZN4mojo4core14RequestContext23AddWatchCancelFinalizerE13scoped_refptrINS0_5WatchEE
__ZN13scoped_refptrIN4mojo4core5WatchEED1Ev
__ZN4mojo4core21MessagePipeDispatcher16RemoveWatcherRefEPNS0_17WatcherDispatcherEm
__ZN4mojo4core10WatcherSet6RemoveEPNS0_17WatcherDispatcherEm
__ZNSt3__113__tree_removeIPNS_16__tree_node_baseIPvEEEEvT_S5_
__ZNSt3__16vectorINS_4pairIPN4mojo4core17WatcherDispatcherENS3_10WatcherSet5EntryEEENS_9allocatorIS8_EEE5eraseENS_11__wrap_iterIPKS8_EE
__ZN4base8internal9flat_treeIPN4mojo4core10DispatcherENSt3__14pairIS5_13scoped_refptrINS3_5WatchEEEENS0_24GetKeyFromValuePairFirstIS5_SA_EENS6_4lessIvEEE5eraseENS6_11__wrap_iterIPSB_EE
__ZN4mojo4core5Watch14InvokeCallbackEjRKNS0_18HandleSignalsStateEj
__ZN4mojo4core17WatcherDispatcher19InvokeWatchCallbackEmjRKNS0_18HandleSignalsStateEj
__ZN4mojo13SimpleWatcher7Context10CallNotifyEPK13MojoTrapEvent
__ZN4mojo13SimpleWatcher7Context6NotifyEj22MojoHandleSignalsStatej
__ZN4mojo4core5WatchD1Ev
__ZN4base8internal18WeakReferenceOwner10InvalidateEv
__ZN4mojo13SimpleWatcher7ContextD2Ev
__ZN4mojo6Handle5CloseEv
_MojoClose
__ZN4base18UnsanitizedCfiCallI16MojoSystemThunksMS1_PFjjEEEDaRKNS_15ProtectedMemoryIT_EET0_
_MojoCloseImpl
__ZN4mojo4core4Core5CloseEj
__ZN4mojo4core11HandleTable22GetAndRemoveDispatcherEjP13scoped_refptrINS0_10DispatcherEE
__ZN4mojo4core17WatcherDispatcher5CloseEv
__ZN4mojo4core17WatcherDispatcherD0Ev
__ZN4mojo4core17WatcherDispatcherD2Ev
__ZNSt3__16__treeIPKN4mojo4core5WatchENS_4lessIS5_EENS_9allocatorIS5_EEE7destroyEPNS_11__tree_nodeIS5_PvEE
__ZN4base8internal9BindStateIPFvRKNS_17RepeatingCallbackIFvjEEEjRKN4mojo18HandleSignalsStateEEJS4_EE7DestroyEPKNS0_13BindStateBaseE
__ZN4base8internal9BindStateIMN4mojo9ConnectorEFvjEJNS0_17UnretainedWrapperIS3_EEEE7DestroyEPKNS0_13BindStateBaseE
__ZN4mojo4core21MessagePipeDispatcher5CloseEv
__ZN4mojo4core14NodeController9ClosePortERKNS0_5ports7PortRefE
__ZN4mojo4core5ports4Node9ClosePortERKNS1_7PortRefE
__ZN4mojo4core5ports12MessageQueue15TakeAllMessagesEPNSt3__16vectorINS3_10unique_ptrINS1_16UserMessageEventENS3_14default_deleteIS6_EEEENS3_9allocatorIS9_EEEE
__ZN4mojo4core5ports4Node9ErasePortERKNS1_8PortNameE
__ZNSt3__112__hash_tableINS_17__hash_value_typeIN4mojo4core5ports8PortNameE13scoped_refptrINS4_4PortEEEENS_22__unordered_map_hasherIS5_S9_NS_4hashIS5_EELb1EEENS_21__unordered_map_equalIS5_S9_NS_8equal_toIS5_EELb1EEENS_9allocatorIS9_EEE6removeENS_21__hash_const_iteratorIPNS_11__hash_nodeIS9_PvEEEE
__ZN4base8internal9flat_treeIN4mojo4core5ports8PortNameENSt3__14pairIS5_NS4_7PortRefEEENS0_24GetKeyFromValuePairFirstIS5_S8_EENS6_4lessIvEEE5eraseIS5_EEmRKT_
__ZNSt3__112__hash_tableINS_17__hash_value_typeIN4mojo4core5ports8PortNameEN4base8flat_mapIS5_NS4_7PortRefENS_4lessIvEEEEEENS_22__unordered_map_hasherIS5_SC_NS_4hashIS5_EELb1EEENS_21__unordered_map_equalIS5_SC_NS_8equal_toIS5_EELb1EEENS_9allocatorISC_EEE6removeENS_21__hash_const_iteratorIPNS_11__hash_nodeISC_PvEEEE
__ZN4mojo4core5ports19ObserveClosureEventC1ERKNS1_8PortNameEy
__ZN4mojo4core14NodeController12ForwardEventERKNS0_5ports8NodeNameENSt3__110unique_ptrINS2_5EventENS6_14default_deleteIS8_EEEE
__ZN4mojo4core5ports4Node16OnObserveClosureENSt3__110unique_ptrINS1_19ObserveClosureEventENS3_14default_deleteIS5_EEEE
__ZN4mojo4core5ports19ObserveClosureEventD0Ev
__ZN4mojo4core14NodeController26AttemptShutdownIfRequestedEv
__ZN4mojo4core5ports4PortD1Ev
__ZN4mojo4core5ports4PortD2Ev
__ZN4mojo4core5ports12MessageQueueD1Ev
__ZN4mojo4core5ports12MessageQueueD2Ev
__ZN4mojo8internal15MultiplexRouter21OnPipeConnectionErrorEb
__ZNSt3__16vectorI13scoped_refptrIN4mojo8internal15MultiplexRouter17InterfaceEndpointEENS_9allocatorIS6_EEE7reserveEm
__ZN4base9small_mapINSt3__13mapIj13scoped_refptrIN4mojo8internal15MultiplexRouter17InterfaceEndpointEENS1_4lessIjEENS1_9allocatorINS1_4pairIKjS8_EEEEEELm1ENS_8internal16select_equal_keyISG_Lb0EE9equal_keyENSH_22small_map_default_initISG_EEE5eraseERKNSN_8iteratorE
__ZN4mojo8internal15MultiplexRouter17InterfaceEndpointD0Ev
__ZN4mojo8internal15MultiplexRouter17InterfaceEndpointD2Ev
__ZN4mojo8internal15MultiplexRouterD2Ev
__ZNSt3__16__treeINS_12__value_typeIjN4base14circular_dequeIPN4mojo8internal15MultiplexRouter4TaskEEEEENS_19__map_value_compareIjSA_NS_4lessIjEELb1EEENS_9allocatorISA_EEE7destroyEPNS_11__tree_nodeISA_PvEE
__ZN4base14circular_dequeINSt3__110unique_ptrIN4mojo8internal15MultiplexRouter4TaskENS1_14default_deleteIS6_EEEEE13DestructRangeEmm
__ZN4mojo25PipeControlMessageHandlerD1Ev
__ZN4mojo9ConnectorD1Ev
__ZN4mojo9ConnectorD2Ev
__ZN4base14circular_dequeIN4mojo7MessageEE13DestructRangeEmm
__ZN4base8internal9BindStateIMN4mojo8internal15MultiplexRouterEFvbEJNS0_17UnretainedWrapperIS4_EEbEE7DestroyEPKNS0_13BindStateBaseE
__ZN4mojo22MessageHeaderValidatorD0Ev
__ZN4mojo25AssociatedGroupControllerD2Ev
__ZN4base8internal8BindImplINS_17RepeatingCallbackEPFNSt3__110unique_ptrIN15service_manager7ServiceENS3_14default_deleteIS6_EEEEN4mojo16InterfaceRequestINS5_5mojom7ServiceEEEEJEEEDcOT0_DpOT1_
__ZN7content12_GLOBAL__N_124RegisterInProcessServiceERKNSt3__112basic_stringIcNS1_11char_traitsIcEENS1_9allocatorIcEEEE13scoped_refptrIN4base19SequencedTaskRunnerEERKNSB_17RepeatingCallbackIFNS1_10unique_ptrIN15service_manager7ServiceENS1_14default_deleteISH_EEEEN4mojo16InterfaceRequestINSG_5mojom7ServiceEEEEEE
__ZN4base8internal9BindStateIPFv13scoped_refptrINS_19SequencedTaskRunnerEERKNS_17RepeatingCallbackIFNSt3__110unique_ptrIN15service_manager7ServiceENS6_14default_deleteIS9_EEEEN4mojo16InterfaceRequestINS8_5mojom7ServiceEEEEEESH_EJS4_SJ_EE6CreateISN_JS4_SL_EEEPSO_PFvvEOT_DpOT0_
__ZNSt3__16__treeINS_12__value_typeINS_12basic_stringIcNS_11char_traitsIcEENS_9allocatorIcEEEEN4base17RepeatingCallbackIFvN4mojo16InterfaceRequestIN15service_manager5mojom7ServiceEEEEEEEENS_19__map_value_compareIS7_SI_NS_4lessIS7_EELb1EEENS5_ISI_EEE12__find_equalIS7_EERPNS_16__tree_node_baseIPvEERPNS_15__tree_end_nodeIST_EERKT_
__ZN4base12LazyInstanceINSt3__110unique_ptrIN15service_manager9ConnectorENS1_14default_deleteIS4_EEEENS_8internal23LeakyLazyInstanceTraitsIS7_EEE7PointerEv
__ZN4base22LazyInstanceTraitsBaseINSt3__110unique_ptrIN15service_manager9ConnectorENS1_14default_deleteIS4_EEEEE3NewEPv
__ZN7content20ContentBrowserClient23WillStartServiceManagerEv
__ZN4base8internal9BindStateIMN7content21ServiceManagerContextEFvRKN15service_manager8IdentityEN4mojo15PendingReceiverINS4_5mojom7ServiceEEEEJNS_7WeakPtrIS3_EEEE6CreateISE_JSG_EEEPSH_PFvvEOT_DpOT0_
__ZN7content21ServiceManagerContext30InProcessServiceManagerContext5StartENSt3__16vectorIN15service_manager8ManifestENS2_9allocatorIS5_EEEEN4mojo13PendingRemoteINS4_5mojom7ServiceEEEN4base17RepeatingCallbackIFvRKNS4_8IdentityENS9_15PendingReceiverISC_EEEEE
__ZN4base8internal34BanUnconstructedRefCountedReceiverIMN7content21ServiceManagerContext30InProcessServiceManagerContextEFvNSt3__16vectorIN15service_manager8ManifestENS5_9allocatorIS8_EEEE13scoped_refptrINS_19SequencedTaskRunnerEEN4mojo13PendingRemoteINS7_5mojom7ServiceEEENS_17RepeatingCallbackIFvRKNS7_8IdentityENSF_15PendingReceiverISI_EEEEEEPS4_JRSB_RKSC_INS_22SingleThreadTaskRunnerEERSJ_RSR_EEENS5_9enable_ifIXaaaasr17MakeFunctorTraitsIT_EE9is_methodsr3std10is_pointerINS5_5decayIT0_E4typeEEE5valuesr16IsRefCountedTypeINS5_14remove_pointerIS17_E4typeEEE5valueEvE4typeERKS15_DpOT1_
__ZNK4base6subtle24RefCountedThreadSafeBase16HasAtLeastOneRefEv
__ZN4base8internal9BindStateIMN7content21ServiceManagerContext30InProcessServiceManagerContextEFvNSt3__16vectorIN15service_manager8ManifestENS5_9allocatorIS8_EEEE13scoped_refptrINS_19SequencedTaskRunnerEEN4mojo13PendingRemoteINS7_5mojom7ServiceEEENS_17RepeatingCallbackIFvRKNS7_8IdentityENSF_15PendingReceiverISI_EEEEEEJSC_IS4_ESB_SC_INS_22SingleThreadTaskRunnerEESJ_SR_EEC2IST_JPS4_SB_RKSW_SJ_SR_EEENS5_17integral_constantIbLb0EEEPFvvEOT_DpOT0_
__ZN7content20ContentBrowserClient18GetStartupServicesEv
__ZN7content21ServiceManagerContext30InProcessServiceManagerContext13StartServicesENSt3__16vectorINS2_12basic_stringIcNS2_11char_traitsIcEENS2_9allocatorIcEEEENS7_IS9_EEEE
__ZN4base8internal34BanUnconstructedRefCountedReceiverIMN7content21ServiceManagerContext30InProcessServiceManagerContextEFvNSt3__16vectorINS5_12basic_stringIcNS5_11char_traitsIcEENS5_9allocatorIcEEEENSA_ISC_EEEEEPS4_JRSE_EEENS5_9enable_ifIXaaaasr17MakeFunctorTraitsIT_EE9is_methodsr3std10is_pointerINS5_5decayIT0_E4typeEEE5valuesr16IsRefCountedTypeINS5_14remove_pointerISO_E4typeEEE5valueEvE4typeERKSM_DpOT1_
__ZN4base8internal9BindStateIMN7content21ServiceManagerContext30InProcessServiceManagerContextEFvNSt3__16vectorINS5_12basic_stringIcNS5_11char_traitsIcEENS5_9allocatorIcEEEENSA_ISC_EEEEEJ13scoped_refptrIS4_ESE_EEC2ISG_JPS4_SE_EEENS5_17integral_constantIbLb0EEEPFvvEOT_DpOT0_
__ZN4base13IntrusiveHeapINS_16sequence_manager8internal13WorkQueueSets22OldestTaskEnqueueOrderENS_8internal17IntrusiveHeapImplIS4_E21GreaterUsingLessEqualENS_25DefaultHeapHandleAccessorIS4_EEE11ReplaceImplIS4_EENSt3__111__wrap_iterIPKS4_EEmT_
__ZN4base13IntrusiveHeapINS_16sequence_manager8internal13WorkQueueSets22OldestTaskEnqueueOrderENS_8internal17IntrusiveHeapImplIS4_E21GreaterUsingLessEqualENS_25DefaultHeapHandleAccessorIS4_EEE19MoveHoleDownAndFillINSB_11WithElementES4_EEmmT0_
__ZN4base8internal7InvokerINS0_9BindStateIMN7content21ServiceManagerContext30InProcessServiceManagerContextEFvNSt3__16vectorIN15service_manager8ManifestENS6_9allocatorIS9_EEEE13scoped_refptrINS_19SequencedTaskRunnerEEN4mojo13PendingRemoteINS8_5mojom7ServiceEEENS_17RepeatingCallbackIFvRKNS8_8IdentityENSG_15PendingReceiverISJ_EEEEEEJSD_IS5_ESC_SD_INS_22SingleThreadTaskRunnerEESK_SS_EEEFvvEE7RunOnceEPNS0_13BindStateBaseE
__ZN4base8internal13FunctorTraitsIMN7content21ServiceManagerContext30InProcessServiceManagerContextEFvNSt3__16vectorIN15service_manager8ManifestENS5_9allocatorIS8_EEEE13scoped_refptrINS_19SequencedTaskRunnerEEN4mojo13PendingRemoteINS7_5mojom7ServiceEEENS_17RepeatingCallbackIFvRKNS7_8IdentityENSF_15PendingReceiverISI_EEEEEEvE6InvokeIST_SC_IS4_EJSB_SC_INS_22SingleThreadTaskRunnerEESJ_SR_EEEvT_OT0_DpOT1_
__ZN7content21ServiceManagerContext30InProcessServiceManagerContext27StartOnServiceManagerThreadENSt3__16vectorIN15service_manager8ManifestENS2_9allocatorIS5_EEEE13scoped_refptrIN4base19SequencedTaskRunnerEEN4mojo13PendingRemoteINS4_5mojom7ServiceEEENSA_17RepeatingCallbackIFvRKNS4_8IdentityENSD_15PendingReceiverISG_EEEEE
__ZN15service_manager14ServiceManagerC1ERKNSt3__16vectorINS_8ManifestENS1_9allocatorIS3_EEEENS1_10unique_ptrINS0_8DelegateENS1_14default_deleteISA_EEEE
__ZN15service_manager14ServiceManagerC2ERKNSt3__16vectorINS_8ManifestENS1_9allocatorIS3_EEEENS1_10unique_ptrINS0_8DelegateENS1_14default_deleteISA_EEEE
__ZN15service_manager14ServiceBindingC1EPNS_7ServiceE
__ZN15service_manager14ServiceBindingC2EPNS_7ServiceE
__ZN4mojo8internal16BindingStateBaseC2Ev
__ZN15service_manager8IdentityC1Ev
__ZN4mojo8internal31AssociatedInterfacePtrStateBaseC2Ev
__ZN15service_manager7CatalogC1ERKNSt3__16vectorINS_8ManifestENS1_9allocatorIS3_EEEE
__ZN15service_manager7CatalogC2ERKNSt3__16vectorINS_8ManifestENS1_9allocatorIS3_EEEE
__ZN7content28ServiceManagerConnectionImpl5StartEv
__ZN4base8internal9BindStateIMN7content28ServiceManagerConnectionImplEFvvEJNS_7WeakPtrIS3_EEEE6CreateIS5_JS7_EEEPS8_PFvvEOT_DpOT0_
__ZN7content28ServiceManagerConnectionImpl15IOThreadContext5StartERKN4base17RepeatingCallbackIFvvEEE
__ZN4base8internal9BindStateIMN7content28ServiceManagerConnectionImpl15IOThreadContextEFvvEJ13scoped_refptrIS4_EEE6CreateIS6_JPS4_EEEPS9_PFvvEOT_DpOT0_
__ZN4base8internal34BanUnconstructedRefCountedReceiverIMN7content28ServiceManagerConnectionImpl15IOThreadContextEFvvEPS4_JEEENSt3__19enable_ifIXaaaasr17MakeFunctorTraitsIT_EE9is_methodsr3std10is_pointerINS8_5decayIT0_E4typeEEE5valuesr16IsRefCountedTypeINS8_14remove_pointerISE_E4typeEEE5valueEvE4typeERKSC_DpOT1_
__ZN8download15SetIOTaskRunnerERK13scoped_refptrIN4base22SingleThreadTaskRunnerEE
__ZN4base12LazyInstanceI13scoped_refptrINS_22SingleThreadTaskRunnerEENS_8internal34DestructorAtExitLazyInstanceTraitsIS3_EEE7PointerEv
__ZN4base22LazyInstanceTraitsBaseI13scoped_refptrINS_22SingleThreadTaskRunnerEEE3NewEPv
__ZN7content44InitializeBrowserMemoryInstrumentationClientEv
__ZN4mojo13PendingRemoteIN22memory_instrumentation5mojom13ClientProcessEE30InitWithNewPipeAndPassReceiverEv
__ZN7content45GetMemoryInstrumentationCoordinatorControllerEv
__ZN7content29GetResourceCoordinatorServiceEv
__ZN4mojo6RemoteIN20resource_coordinator5mojom26ResourceCoordinatorServiceEE26BindNewPipeAndPassReceiverE13scoped_refptrIN4base19SequencedTaskRunnerEE
__ZN4mojo6RemoteIN20resource_coordinator5mojom26ResourceCoordinatorServiceEE4BindENS_13PendingRemoteIS3_EE13scoped_refptrIN4base19SequencedTaskRunnerEE
__ZN4mojo8internal17InterfacePtrStateIN20resource_coordinator5mojom26ResourceCoordinatorServiceEE4BindEPNS0_18PendingRemoteStateE13scoped_refptrIN4base19SequencedTaskRunnerEE
__ZN4mojo8internal17InterfacePtrStateIN20resource_coordinator5mojom26ResourceCoordinatorServiceEE25ConfigureProxyIfNecessaryEv
__ZN4mojo17PassThroughFilterC1Ev
__ZN15service_manager12_GLOBAL__N_117CreateManifestMapERKNSt3__16vectorINS_8ManifestENS1_9allocatorIS3_EEEE
__ZNSt3__16__treeINS_12__value_typeINS_12basic_stringIcNS_11char_traitsIcEENS_9allocatorIcEEEEPKN15service_manager8ManifestEEENS_19__map_value_compareIS7_SC_NS_4lessIS7_EELb1EEENS5_ISC_EEE12__find_equalIS7_EERPNS_16__tree_node_baseIPvEERPNS_15__tree_end_nodeISN_EERKT_
__ZNSt3__16__treeINS_12__value_typeINS_12basic_stringIcNS_11char_traitsIcEENS_9allocatorIcEEEEPKN15service_manager8ManifestEEENS_19__map_value_compareIS7_SC_NS_4lessIS7_EELb1EEENS5_ISC_EEE7destroyEPNS_11__tree_nodeISC_PvEE
__ZN15service_manager12_GLOBAL__N_123CreateParentManifestMapERKNSt3__16vectorINS_8ManifestENS1_9allocatorIS3_EEEE
__ZN15service_manager23ServiceInstanceRegistryC1Ev
__ZN15service_manager15ManifestBuilder16ExposeCapabilityIJNS_5mojom14ServiceManagerEEEERS0_PKcNS_8Manifest13InterfaceListIJDpT_EEE
__ZN15service_manager8internal17GetInterfaceNamesIJNS_5mojom14ServiceManagerEEEENSt3__13setINS4_12basic_stringIcNS4_11char_traitsIcEENS4_9allocatorIcEEEENS4_4lessISB_EENS9_ISB_EEEEv
__ZN20resource_coordinator5mojom31ResourceCoordinatorServiceProxyC1EPN4mojo28MessageReceiverWithResponderE
__ZN4base5Token12CreateRandomEv
__ZN20resource_coordinator26ResourceCoordinatorServiceC1EN4mojo15PendingReceiverINS_5mojom26ResourceCoordinatorServiceEEE
__ZN20resource_coordinator26ResourceCoordinatorServiceC2EN4mojo15PendingReceiverINS_5mojom26ResourceCoordinatorServiceEEE
__ZN4mojo8ReceiverIN20resource_coordinator5mojom26ResourceCoordinatorServiceENS_19RawPtrImplRefTraitsIS3_EEEC2EPS3_NS_15PendingReceiverIS3_EE13scoped_refptrIN4base19SequencedTaskRunnerEE
__ZN4mojo8internal12BindingStateIN20resource_coordinator5mojom26ResourceCoordinatorServiceENS_19RawPtrImplRefTraitsIS4_EEE4BindEPNS0_20PendingReceiverStateE13scoped_refptrIN4base19SequencedTaskRunnerEE
__ZN4base12NoDestructorIN15service_manager8IdentityEEC2IJRA_KcRKNS_5TokenES8_S8_EEEDpOT_
__ZN15service_manager8IdentityC1ERKNSt3__112basic_stringIcNS1_11char_traitsIcEENS1_9allocatorIcEEEERKN4base5TokenESD_SD_
__ZN4mojo8internal16BindingStateBase12BindInternalEPNS0_20PendingReceiverStateE13scoped_refptrIN4base19SequencedTaskRunnerEEPKcNSt3__110unique_ptrINS_15MessageReceiverENSA_14default_deleteISC_EEEEbbPNS_34MessageReceiverWithResponderStatusEj
__ZN15service_manager8IdentityC2ERKNSt3__112basic_stringIcNS1_11char_traitsIcEENS1_9allocatorIcEEEERKN4base5TokenESD_SD_
__ZN15service_manager14ServiceManager21CreateServiceInstanceERKNS_8IdentityERKNS_8ManifestE
__ZNK15service_manager8Identity7IsValidEv
__ZN15service_manager15ServiceInstanceC1EPNS_14ServiceManagerERKNS_8IdentityERKNS_8ManifestE
__ZN15service_manager15ServiceInstanceC2EPNS_14ServiceManagerERKNS_8IdentityERKNS_8ManifestE
__ZN15service_manager8IdentityC1ERKS0_
__ZNKSt3__16__treeINS_12__value_typeINS_12basic_stringIcNS_11char_traitsIcEENS_9allocatorIcEEEENS_3setIS7_NS_4lessIS7_EENS5_IS7_EEEEEENS_19__map_value_compareIS7_SD_SA_Lb1EEENS5_ISD_EEE14__count_uniqueIS7_EEmRKT_
__ZN4mojo21AssociatedBindingBaseC2Ev
__ZN15service_manager23ServiceInstanceRegistry8RegisterEPNS_15ServiceInstanceE
__ZN15service_manager13ServiceFilterC1ERKNS_8IdentityE
__ZNK15service_manager23ServiceInstanceRegistry12FindMatchingERKNS_13ServiceFilterE
__ZNKSt3__16__treeINS_12__value_typeINS_12basic_stringIcNS_11char_traitsIcEENS_9allocatorIcEEEENS_6vectorIN15service_manager23ServiceInstanceRegistry5EntryENS5_ISB_EEEEEENS_19__map_value_compareIS7_SE_NS_4lessIS7_EELb1EEENS5_ISE_EEE4findIS7_EENS_21__tree_const_iteratorISE_PNS_11__tree_nodeISE_PvEElEERKT_
__ZN15service_manager13ServiceFilterD1Ev
__ZNSt3__16__treeINS_12__value_typeINS_12basic_stringIcNS_11char_traitsIcEENS_9allocatorIcEEEENS_6vectorIN15service_manager23ServiceInstanceRegistry5EntryENS5_ISB_EEEEEENS_19__map_value_compareIS7_SE_NS_4lessIS7_EELb1EEENS5_ISE_EEE12__find_equalIS7_EERPNS_16__tree_node_baseIPvEERPNS_15__tree_end_nodeISP_EERKT_
__ZNSt3__16vectorIN15service_manager23ServiceInstanceRegistry5EntryENS_9allocatorIS3_EEE12emplace_backIJRKN4base5TokenERPNS1_15ServiceInstanceEEEEvDpOT_
__ZN15service_manager23ServiceInstanceRegistry5EntryC2ERKN4base5TokenEPNS_15ServiceInstanceE
__ZN15service_manager15ServiceInstance6SetPIDEi
__ZN4mojo8internal15MultiplexRouter18SetConnectionGroupENS_15ConnectionGroup3RefE
__ZN4mojo9Connector18SetConnectionGroupENS_15ConnectionGroup3RefE
__ZN4base8internal9BindStateIMN4mojo8internal15MultiplexRouterEFvNS2_15ConnectionGroup3RefEEJ13scoped_refptrIS4_EEE6CreateIS8_JRSA_EEEPSB_PFvvEOT_DpOT0_
__ZN4mojo23InterfaceEndpointClient30SetIdleTrackingEnabledCallbackEN4base12OnceCallbackIFvNS_15ConnectionGroup3RefEEEE
__ZN22memory_instrumentation15CoordinatorImplC1Ev
__ZN22memory_instrumentation15CoordinatorImplC2Ev
__ZN15service_manager14ServiceBinding4BindEN4mojo15PendingReceiverINS_5mojom7ServiceEEE
__ZN4mojo8ReceiverIN15service_manager5mojom7ServiceENS_19RawPtrImplRefTraitsIS3_EEE4BindENS_15PendingReceiverIS3_EE
__ZN4mojo8internal12BindingStateIN15service_manager5mojom7ServiceENS_19RawPtrImplRefTraitsIS4_EEE4BindEPNS0_20PendingReceiverStateE13scoped_refptrIN4base19SequencedTaskRunnerEE
__ZN22memory_instrumentation15TracingObserverC1EPN4base11trace_event8TraceLogEPNS2_17MemoryDumpManagerE
__ZN22memory_instrumentation15TracingObserverC2EPN4base11trace_event8TraceLogEPNS2_17MemoryDumpManagerE
__ZN4base11trace_event8TraceLog23AddEnabledStateObserverEPNS1_20EnabledStateObserverE
__ZN4mojo6RemoteIN22memory_instrumentation5mojom21CoordinatorControllerEE26BindNewPipeAndPassReceiverE13scoped_refptrIN4base19SequencedTaskRunnerEE
__ZN4mojo6RemoteIN22memory_instrumentation5mojom21CoordinatorControllerEE4BindENS_13PendingRemoteIS3_EE13scoped_refptrIN4base19SequencedTaskRunnerEE
__ZN4mojo8internal17InterfacePtrStateIN22memory_instrumentation5mojom21CoordinatorControllerEE4BindEPNS0_18PendingRemoteStateE13scoped_refptrIN4base19SequencedTaskRunnerEE
__ZN4mojo8internal17InterfacePtrStateIN22memory_instrumentation5mojom21CoordinatorControllerEE25ConfigureProxyIfNecessaryEv
__ZN4mojo9Connector35AllowWokenUpBySyncWatchOnSameThreadEv
__ZN4mojo9Connector23EnsureSyncWatcherExistsEv
__ZN4mojo17SyncHandleWatcherC1ERKNS_6HandleEjRKN4base17RepeatingCallbackIFvjEEE
__ZN4mojo18SyncHandleRegistry7currentEv
__ZN4mojo7WaitSetC1Ev
__ZN4mojo7WaitSet5StateC2Ev
__ZN22memory_instrumentation5mojom26CoordinatorControllerProxyC1EPN4mojo28MessageReceiverWithResponderE
__ZN20resource_coordinator5mojom31ResourceCoordinatorServiceProxy46BindMemoryInstrumentationCoordinatorControllerEN4mojo15PendingReceiverIN22memory_instrumentation5mojom21CoordinatorControllerEEE
__ZN4base24SequenceLocalStorageSlotI13scoped_refptrIN4mojo18SyncHandleRegistryEENSt3__114default_deleteIS4_EEE7emplaceIJPS3_EEEPS4_DpOT_
__ZN20resource_coordinator5mojom8internal85ResourceCoordinatorService_BindMemoryInstrumentationCoordinatorController_Params_Data12BufferWriter4dataEv
__ZN20resource_coordinator5mojom8internal85ResourceCoordinatorService_BindMemoryInstrumentationCoordinatorController_Params_DataC1Ev
__ZNK4base6subtle14RefCountedBase6AddRefEv
__ZNK4base6subtle14RefCountedBase10AddRefImplEv
__ZNK4base6subtle14RefCountedBase21CalledOnValidSequenceEv
__ZN4base8internal8BindImplINS_17RepeatingCallbackEMN4mojo9ConnectorEFvjEJNS0_17UnretainedWrapperIS4_EERKjEEEDcOT0_DpOT1_
__ZN4mojo29SequenceLocalSyncEventWatcherC1ERKN4base17RepeatingCallbackIFvvEEE
__ZN4mojo29SequenceLocalSyncEventWatcher12RegistrationC2EPKS0_
__ZN4mojo29SequenceLocalSyncEventWatcher18SequenceLocalState11GetOrCreateEv
__ZN4base8internal8BindImplINS_17RepeatingCallbackEMN4mojo29SequenceLocalSyncEventWatcher18SequenceLocalStateEFvvEJNS0_17UnretainedWrapperIS5_EEEEEDcOT0_DpOT1_
__ZN4mojo16SyncEventWatcherC1EPN4base13WaitableEventERKNS1_17RepeatingCallbackIFvvEEE
__ZN4mojo16SyncEventWatcher35AllowWokenUpBySyncWatchOnSameThreadEv
__ZN4mojo18SyncHandleRegistry13RegisterEventEPN4base13WaitableEventERKNS1_17RepeatingCallbackIFvvEEE
__ZNSt3__16__treeINS_12__value_typeIPN4base13WaitableEventENS2_11StackVectorINS2_17RepeatingCallbackIFvvEEELm1EEEEENS_19__map_value_compareIS4_SA_NS_4lessIS4_EELb1EEENS_9allocatorISA_EEE25__emplace_unique_key_argsIS4_JRS4_S9_EEENS_4pairINS_15__tree_iteratorISA_PNS_11__tree_nodeISA_PvEElEEbEERKT_DpOT0_
__ZNSt3__16vectorIN4base17RepeatingCallbackIFvvEEENS1_14StackAllocatorIS4_Lm1EEEE7reserveEm
__ZNSt3__16vectorIN4base17RepeatingCallbackIFvvEEENS1_14StackAllocatorIS4_Lm1EEEE6assignINS_11__wrap_iterIPKS4_EEEENS_9enable_ifIXaasr21__is_forward_iteratorIT_EE5valuesr16is_constructibleIS4_NS_15iterator_traitsISE_E9referenceEEE5valueEvE4typeESE_SE_
__ZN4mojo7WaitSet8AddEventEPN4base13WaitableEventE
__ZNK4base8internal13WeakReference7IsValidEv
__ZN4mojo4core14RequestContext23AddWatchNotifyFinalizerE13scoped_refptrINS0_5WatchEEjRKNS0_18HandleSignalsStateE
__ZN13scoped_refptrIN4mojo12_GLOBAL__N_112WatcherStateEED1Ev
__ZN4mojo17SyncHandleWatcher35AllowWokenUpBySyncWatchOnSameThreadEv
__ZN4mojo18SyncHandleRegistry14RegisterHandleERKNS_6HandleEjRKN4base17RepeatingCallbackIFvjEEE
__ZN4mojo7WaitSet9AddHandleENS_6HandleEj
__ZN4mojo7WaitSet5State9AddHandleENS_6HandleEj
__ZNSt3__16vectorINS_4pairIPN4mojo4core17WatcherDispatcherENS3_10WatcherSet5EntryEEENS_9allocatorIS8_EEE12__move_rangeEPS8_SC_SC_
__ZN4mojo29SequenceLocalSyncEventWatcher37AllowWokenUpBySyncWatchOnSameSequenceEv
__ZN4mojo13PendingRemoteIN22memory_instrumentation5mojom11CoordinatorEE30InitWithNewPipeAndPassReceiverEv
__ZN4base8internal8BindImplINS_12OnceCallbackEMN15service_manager14ServiceBindingEFvvEJNS0_17UnretainedWrapperIS4_EEEEEDcOT0_DpOT1_
__ZN22memory_instrumentation5mojom26CoordinatorControllerProxy21RegisterClientProcessEN4mojo15PendingReceiverINS0_11CoordinatorEEENS2_13PendingRemoteINS0_13ClientProcessEEENS0_11ProcessTypeEiRKN4base8OptionalINSt3__112basic_stringIcNSC_11char_traitsIcEENSC_9allocatorIcEEEEEE
__ZN4mojo8internal16BindingStateBase28set_connection_error_handlerEN4base12OnceCallbackIFvvEEE
__ZN15service_manager15ServiceInstance15StartWithRemoteEN4mojo13PendingRemoteINS_5mojom7ServiceEEE
__ZN4mojo6RemoteIN15service_manager5mojom7ServiceEE4BindENS_13PendingRemoteIS3_EE
__ZN4mojo6RemoteIN15service_manager5mojom7ServiceEE4BindENS_13PendingRemoteIS3_EE13scoped_refptrIN4base19SequencedTaskRunnerEE
__ZN4mojo8internal17InterfacePtrStateIN15service_manager5mojom7ServiceEE4BindEPNS0_18PendingRemoteStateE13scoped_refptrIN4base19SequencedTaskRunnerEE
__ZN4mojo8internal17InterfacePtrStateIN15service_manager5mojom7ServiceEE25ConfigureProxyIfNecessaryEv
__ZN22memory_instrumentation5mojom8internal55CoordinatorController_RegisterClientProcess_Params_Data12BufferWriter4dataEv
__ZN22memory_instrumentation5mojom8internal55CoordinatorController_RegisterClientProcess_Params_DataC1Ev
__ZN4mojo8internal20SerializationContext16AddInterfaceInfoENS_16ScopedHandleBaseINS_17MessagePipeHandleEEEjPNS0_14Interface_DataE
__ZN4mojo8internal24IsHandleOrInterfaceValidERKNS0_14Interface_DataE
__ZN9mojo_base5mojom8internal14ProcessId_Data12BufferWriter4dataEv
__ZN9mojo_base5mojom8internal14ProcessId_DataC1Ev
__ZN22memory_instrumentation17ClientProcessImpl14CreateInstanceEN4mojo15PendingReceiverINS_5mojom13ClientProcessEEENS1_13PendingRemoteINS3_11CoordinatorEEEb
__ZN22memory_instrumentation17ClientProcessImplC2EN4mojo15PendingReceiverINS_5mojom13ClientProcessEEENS1_13PendingRemoteINS3_11CoordinatorEEEbb
__ZN4mojo8ReceiverIN22memory_instrumentation5mojom13ClientProcessENS_19RawPtrImplRefTraitsIS3_EEEC2EPS3_NS_15PendingReceiverIS3_EE13scoped_refptrIN4base19SequencedTaskRunnerEE
__ZN4mojo8internal12BindingStateIN22memory_instrumentation5mojom13ClientProcessENS_19RawPtrImplRefTraitsIS4_EEE4BindEPNS0_20PendingReceiverStateE13scoped_refptrIN4base19SequencedTaskRunnerEE
__ZN22memory_instrumentation21MemoryInstrumentation14CreateInstanceEN4mojo13PendingRemoteINS_5mojom11CoordinatorEEE
__ZN4mojo16SharedRemoteBaseINS_6RemoteIN22memory_instrumentation5mojom11CoordinatorEEEE6CreateENS_13PendingRemoteIS4_EE
__ZN4mojo6RemoteIN22memory_instrumentation5mojom11CoordinatorEE4BindENS_13PendingRemoteIS3_EE13scoped_refptrIN4base19SequencedTaskRunnerEE
__ZN4mojo8internal17InterfacePtrStateIN22memory_instrumentation5mojom11CoordinatorEE4BindEPNS0_18PendingRemoteStateE13scoped_refptrIN4base19SequencedTaskRunnerEE
__ZN4mojo8internal17InterfacePtrStateIN22memory_instrumentation5mojom11CoordinatorEE25ConfigureProxyIfNecessaryEv
__ZN15service_manager5mojom12ServiceProxyC1EPN4mojo28MessageReceiverWithResponderE
__ZN4base8internal8BindImplINS_12OnceCallbackEMN15service_manager15ServiceInstanceEFvvEJNS0_17UnretainedWrapperIS4_EEEEEDcOT0_DpOT1_
__ZNK4mojo6RemoteIN15service_manager5mojom7ServiceEE12is_connectedEv
__ZN4mojo8internal17InterfacePtrStateIN15service_manager5mojom7ServiceEE28set_connection_error_handlerEN4base12OnceCallbackIFvvEEE
__ZN4base8internal8BindImplINS_12OnceCallbackEMN15service_manager15ServiceInstanceEFvN4mojo15PendingReceiverINS3_5mojom9ConnectorEEENS5_25PendingAssociatedReceiverINS7_14ServiceControlEEEEJNS0_17UnretainedWrapperIS4_EEEEEDcOT0_DpOT1_
__ZN15service_manager5mojom12ServiceProxy7OnStartERKNS_8IdentityEN4base12OnceCallbackIFvN4mojo15PendingReceiverINS0_9ConnectorEEENS7_25PendingAssociatedReceiverINS0_14ServiceControlEEEEEE
__ZN15service_manager5mojom8internal27Service_OnStart_Params_Data12BufferWriter4dataEv
__ZN15service_manager5mojom8internal27Service_OnStart_Params_DataC1Ev
__ZN4mojo8internal10SerializerIN15service_manager5mojom16IdentityDataViewEKNS2_8IdentityEE9SerializeERS6_PNS0_6BufferEPNS3_8internal13Identity_Data12BufferWriterEPNS0_20SerializationContextE
__ZN15service_manager5mojom8internal13Identity_Data12BufferWriter4dataEv
__ZN15service_manager5mojom8internal13Identity_DataC1Ev
__ZN4mojo8internal10SerializerINS_14StringDataViewEKNSt3__112basic_stringIcNS3_11char_traitsIcEENS3_9allocatorIcEEEEE9SerializeERSA_PNS0_6BufferEPNS0_10Array_DataIcE12BufferWriterEPNS0_20SerializationContextE
__ZN4mojo8internal10Array_DataIcE12BufferWriter4dataEv
__ZN9mojo_base5mojom8internal10Token_Data12BufferWriter4dataEv
__ZN9mojo_base5mojom8internal10Token_DataC1Ev
__ZN4mojo23InterfaceEndpointClient19AcceptWithResponderEPNS_7MessageENSt3__110unique_ptrINS_15MessageReceiverENS3_14default_deleteIS5_EEEE
__ZN4mojo23InterfaceEndpointClient24SendMessageWithResponderEPNS_7MessageEbNSt3__110unique_ptrINS_15MessageReceiverENS3_14default_deleteIS5_EEEE
__ZN22memory_instrumentation5mojom16CoordinatorProxyC1EPN4mojo28MessageReceiverWithResponderE
__ZN4mojo16SharedRemoteBaseINS_6RemoteIN22memory_instrumentation5mojom11CoordinatorEEEE13RemoteWrapperC1ES5_
__ZN4mojo15AssociatedGroupC1Ev
__ZN4mojo23InterfaceEndpointClient16associated_groupEv
__ZN4mojo15AssociatedGroupC1ERKNS_29ScopedInterfaceEndpointHandleE
__ZNK4mojo29ScopedInterfaceEndpointHandle27CreateGroupControllerGetterEv
__ZN4base8internal9BindStateIMN4mojo29ScopedInterfaceEndpointHandle5StateEKFPNS2_25AssociatedGroupControllerEvEJ13scoped_refptrIS4_EEE6CreateIS8_JRKSA_EEEPSB_PFvvEOT_DpOT0_
__ZN4mojo7Message9header_v1Ev
__ZN4mojo15AssociatedGroupaSERKS0_
__ZN4mojo16SharedRemoteBaseINS_6RemoteIN22memory_instrumentation5mojom11CoordinatorEEEE13RemoteWrapper15CreateForwarderEv
__ZN4base8internal9BindStateIMN4mojo16SharedRemoteBaseINS2_6RemoteIN22memory_instrumentation5mojom11CoordinatorEEEE13RemoteWrapperEFvNS2_7MessageEEJ13scoped_refptrISA_EEE6CreateISD_JPSA_EEEPSG_PFvvEOT_DpOT0_
__ZN4base8internal34BanUnconstructedRefCountedReceiverIMN4mojo16SharedRemoteBaseINS2_6RemoteIN22memory_instrumentation5mojom11CoordinatorEEEE13RemoteWrapperEFvNS2_7MessageEEPSA_JEEENSt3__19enable_ifIXaaaasr17MakeFunctorTraitsIT_EE9is_methodsr3std10is_pointerINSF_5decayIT0_E4typeEEE5valuesr16IsRefCountedTypeINSF_14remove_pointerISL_E4typeEEE5valueEvE4typeERKSJ_DpOT1_
__ZN4base8internal9BindStateIMN4mojo16SharedRemoteBaseINS2_6RemoteIN22memory_instrumentation5mojom11CoordinatorEEEE13RemoteWrapperEFvNS2_7MessageENSt3__110unique_ptrINS2_15MessageReceiverENSC_14default_deleteISE_EEEEEJ13scoped_refptrISA_EEE6CreateISJ_JPSA_EEEPSM_PFvvEOT_DpOT0_
__ZN4base8internal34BanUnconstructedRefCountedReceiverIMN4mojo16SharedRemoteBaseINS2_6RemoteIN22memory_instrumentation5mojom11CoordinatorEEEE13RemoteWrapperEFvNS2_7MessageENSt3__110unique_ptrINS2_15MessageReceiverENSC_14default_deleteISE_EEEEEPSA_JEEENSC_9enable_ifIXaaaasr17MakeFunctorTraitsIT_EE9is_methodsr3std10is_pointerINSC_5decayIT0_E4typeEEE5valuesr16IsRefCountedTypeINSC_14remove_pointerISQ_E4typeEEE5valueEvE4typeERKSO_DpOT1_
__ZN4mojo23ThreadSafeForwarderBaseC2E13scoped_refptrIN4base19SequencedTaskRunnerEERKNS2_17RepeatingCallbackIFvNS_7MessageEEEERKNS5_IFvS6_NSt3__110unique_ptrINS_15MessageReceiverENSB_14default_deleteISD_EEEEEEERKNS_15AssociatedGroupE
__ZN4mojo15AssociatedGroupC1ERKS0_
__ZN4base8internal8BindImplINS_17RepeatingCallbackEMN22memory_instrumentation17ClientProcessImplEFvNS_11trace_event14MemoryDumpTypeENS5_23MemoryDumpLevelOfDetailEEJNS0_17UnretainedWrapperIS4_EEEEEDcOT0_DpOT1_
__ZN4base11trace_event17MemoryDumpManager10InitializeENS_17RepeatingCallbackIFvNS0_14MemoryDumpTypeENS0_23MemoryDumpLevelOfDetailEEEEb
__ZN4base11trace_event18MallocDumpProvider11GetInstanceEv
__ZN4base9SingletonINS_11trace_event18MallocDumpProviderENS_20LeakySingletonTraitsIS2_EES2_E3getEv
__ZN7content25ServiceManagerEnvironment24CreateBrowserStartupDataEv
__ZN7content15StartupDataImplC1Ev
__ZN4base8internal8BindImplINS_12OnceCallbackEMN7content21ServiceManagerContextEFvvEJNS0_17UnretainedWrapperIS4_EEEEEDcOT0_DpOT1_
__ZN8electron16AtomMainDelegate10RunProcessERKNSt3__112basic_stringIcNS1_11char_traitsIcEENS1_9allocatorIcEEEERKN7content18MainFunctionParamsE
__ZN7content11BrowserMainERKNS_18MainFunctionParamsE
__ZN15service_manager14ServiceManager20NotifyServiceCreatedERKNS_15ServiceInstanceE
__ZN4base11trace_event8TraceLog19SetProcessSortIndexEi
__ZNK15service_manager15ServiceInstance24CreateRunningServiceInfoEv
__ZN7content21BrowserMainRunnerImpl6CreateEv
__ZN4base18ThreadPoolInstance20ScopedExecutionFenceC1Ev
__ZN15service_manager5mojom18RunningServiceInfoC1ERKNS_8IdentityEjNS0_13InstanceStateE
__ZN15service_manager5mojom18RunningServiceInfoD1Ev
__ZN15service_manager8IdentityD1Ev
__ZN4base8internal14ThreadPoolImpl11SetHasFenceEb
__ZN4base8internal14ThreadPoolImpl18UpdateCanRunPolicyEv
__ZN4base8internal11TaskTracker15SetCanRunPolicyENS0_12CanRunPolicyE
__ZN4base8internal15ThreadGroupImpl21DidUpdateCanRunPolicyEv
__ZN4base8internal35PooledSingleThreadTaskRunnerManager21DidUpdateCanRunPolicyEv
__ZN7content21BrowserMainRunnerImpl10InitializeERKNS_18MainFunctionParamsE
__ZN10SkGraphics4InitEv
__ZN4mojo6RemoteIN15service_manager5mojom15ProcessMetadataEE26BindNewPipeAndPassReceiverE13scoped_refptrIN4base19SequencedTaskRunnerEE
__ZN5SkCpu20CacheRuntimeFeaturesEv
__ZN6SkOpts4InitEv
__ZN6SkOpts10Init_sse41Ev
__ZN4mojo6RemoteIN15service_manager5mojom15ProcessMetadataEE4BindENS_13PendingRemoteIS3_EE13scoped_refptrIN4base19SequencedTaskRunnerEE
__ZN4mojo8internal17InterfacePtrStateIN15service_manager5mojom15ProcessMetadataEE4BindEPNS0_18PendingRemoteStateE13scoped_refptrIN4base19SequencedTaskRunnerEE
__ZN4mojo8internal17InterfacePtrStateIN15service_manager5mojom15ProcessMetadataEE25ConfigureProxyIfNecessaryEv
__ZN6SkOpts10Init_sse42Ev
__ZN6SkOpts8Init_avxEv
__ZN7content23NotificationServiceImplC1Ev
__ZN7content23NotificationServiceImplC2Ev
__ZN4base12LazyInstanceINS_18ThreadLocalPointerIN7content23NotificationServiceImplEEENS_8internal34DestructorAtExitLazyInstanceTraitsIS4_EEE7PointerEv
__ZN4base22LazyInstanceTraitsBaseINS_18ThreadLocalPointerIN7content23NotificationServiceImplEEEE3NewEPv
__ZN3gfx15InitializeFontsEv
__ZN7content15BrowserMainLoopC1ERKNS_18MainFunctionParamsENSt3__110unique_ptrIN4base18ThreadPoolInstance20ScopedExecutionFenceENS4_14default_deleteIS8_EEEE
__ZN7content15BrowserMainLoopC2ERKNS_18MainFunctionParamsENSt3__110unique_ptrIN4base18ThreadPoolInstance20ScopedExecutionFenceENS4_14default_deleteIS8_EEEE
__ZN4base18ThreadPoolInstance30ScopedBestEffortExecutionFenceC1Ev
__ZN4base8internal14ThreadPoolImpl21SetHasBestEffortFenceEb
__ZN7content15BrowserMainLoop4InitEv
__ZN8electron17AtomBrowserClient22CreateBrowserMainPartsERKN7content18MainFunctionParamsE
__ZN8electron20AtomBrowserMainPartsC1ERKN7content18MainFunctionParamsE
__ZN8electron20AtomBrowserMainPartsC2ERKN7content18MainFunctionParamsE
__ZN18BrowserProcessImplC1Ev
__ZN14BrowserProcessC2Ev
__ZN8electron7BrowserC1Ev
__ZN4base15CheckedObserverC2Ev
__ZN4base15DictionaryValueC1Ev
__ZN8electron10WindowList11AddObserverEPNS_18WindowListObserverE
__ZN15service_manager5mojom20ProcessMetadataProxyC1EPN4mojo28MessageReceiverWithResponderE
__ZN4base12LazyInstanceINS_12ObserverListIN8electron18WindowListObserverELb0ELb1ENS_8internal22CheckedObserverAdapterEEENS4_23LeakyLazyInstanceTraitsIS6_EEE7PointerEv
__ZN15service_manager14ServiceManager15RegisterServiceERKNS_8IdentityEN4mojo13PendingRemoteINS_5mojom7ServiceEEENS4_15PendingReceiverINS6_15ProcessMetadataEEE
__ZN15service_manager7Catalog11GetManifestERKNSt3__112basic_stringIcNS1_11char_traitsIcEENS1_9allocatorIcEEEE
__ZNKSt3__16__treeINS_12__value_typeINS_12basic_stringIcNS_11char_traitsIcEENS_9allocatorIcEEEEPKN15service_manager8ManifestEEENS_19__map_value_compareIS7_SC_NS_4lessIS7_EELb1EEENS5_ISC_EEE4findIS7_EENS_21__tree_const_iteratorISC_PNS_11__tree_nodeISC_PvEElEERKT_
__ZN4base22LazyInstanceTraitsBaseINS_12ObserverListIN8electron18WindowListObserverELb0ELb1ENS_8internal22CheckedObserverAdapterEEEE3NewEPv
__ZN4base12ObserverListIN8electron18WindowListObserverELb0ELb1ENS_8internal22CheckedObserverAdapterEE11AddObserverEPS2_
__ZN4base8internal22CheckedObserverAdapterC1EPKNS_15CheckedObserverE
__ZNSt3__16vectorIN4base8internal22CheckedObserverAdapterENS_9allocatorIS3_EEE24__emplace_back_slow_pathIJS3_EEEvDpOT_
__ZN4base8internal22CheckedObserverAdapterC1EOS1_
__ZN4base8internal22CheckedObserverAdapterD1Ev
__ZN8electron12NodeBindings6CreateENS0_18BrowserEnvironmentE
__ZN8electron12NodeBindingsC2ENS0_18BrowserEnvironmentE
_uv_default_loop
_uv_loop_init
_uv__platform_loop_init
_uv__kqueue_init
_uv__cloexec_ioctl
_uv__signal_global_once_init
_uv_once
_uv__signal_global_init
_uv__signal_global_reinit
_uv__make_pipe
__ZN15service_manager15ServiceInstance27BindProcessMetadataReceiverEN4mojo15PendingReceiverINS_5mojom15ProcessMetadataEEE
__ZN4mojo8ReceiverIN15service_manager5mojom15ProcessMetadataENS_19RawPtrImplRefTraitsIS3_EEE4BindENS_15PendingReceiverIS3_EE
__ZN4mojo8internal12BindingStateIN15service_manager5mojom15ProcessMetadataENS_19RawPtrImplRefTraitsIS4_EEE4BindEPNS0_20PendingReceiverStateE13scoped_refptrIN4base19SequencedTaskRunnerEE
_uv_signal_init
_uv__nonblock_ioctl
_uv__io_init
_uv__io_start
_uv__realloc
_uv_rwlock_init
_uv_async_init
__ZN8electron16ElectronBindingsC1EP9uv_loop_s
__ZN8electron16ElectronBindingsC2EP9uv_loop_s
__ZN4base14ProcessMetrics27CreateCurrentProcessMetricsEv
__ZN4base14ProcessMetrics20CreateProcessMetricsEiPNS_12PortProviderE
__ZN7content26ChildProcessSecurityPolicy11GetInstanceEv
__ZN4base9SingletonIN7content30ChildProcessSecurityPolicyImplENS_22DefaultSingletonTraitsIS2_EES2_E3getEv
__ZN7content30ChildProcessSecurityPolicyImplC2Ev
__ZN7content30ChildProcessSecurityPolicyImpl21RegisterWebSafeSchemeERKNSt3__112basic_stringIcNS1_11char_traitsIcEENS1_9allocatorIcEEEE
__ZNKSt3__16__treeINS_12basic_stringIcNS_11char_traitsIcEENS_9allocatorIcEEEENS_4lessIS6_EENS4_IS6_EEE14__count_uniqueIS6_EEmRKT_
__ZN7content30ChildProcessSecurityPolicyImpl20RegisterPseudoSchemeERKNSt3__112basic_stringIcNS1_11char_traitsIcEENS1_9allocatorIcEEEE
__ZN7content15BrowserMainLoop19EarlyInitializationEv
__ZN8electron20AtomBrowserMainParts22PreEarlyInitializationEv
__ZN4base14FieldTrialListC1ENSt3__110unique_ptrIKNS_10FieldTrial15EntropyProviderENS1_14default_deleteIS5_EEEE
__ZN4base14FieldTrialListC2ENSt3__110unique_ptrIKNS_10FieldTrial15EntropyProviderENS1_14default_deleteIS5_EEEE
__ZN4base26ReadOnlySharedMemoryRegionC1Ev
__ZN4base6subtle26PlatformSharedMemoryRegionC1Ev
__ZN8electron20AtomBrowserMainParts13HandleSIGCHLDEv
__ZN4base17IncreaseFdLimitToEj
__ZN8electron20AtomBrowserMainParts23PostEarlyInitializationEv
__ZN8electron21JavascriptEnvironmentC1EP9uv_loop_s
__ZN8electron21JavascriptEnvironmentC2EP9uv_loop_s
__ZN8electron21JavascriptEnvironment10InitializeEP9uv_loop_s
__ZN4node11CreateAgentEv
__ZN4node7tracing5AgentC1Ev
__ZN4node7tracing5AgentC2Ev
__ZN2v88platform7tracing17TracingControllerC2Ev
_uv_cond_init
__ZN2v88platform7tracing17TracingController10InitializeEPNS1_11TraceBufferE
__ZN2v84base5MutexC1Ev
__ZN2v84base5MutexC2Ev
__ZN15service_manager5mojom20ProcessMetadataProxy6SetPIDEi
__ZN15service_manager5mojom8internal34ProcessMetadata_SetPID_Params_Data12BufferWriter4dataEv
__ZN15service_manager5mojom8internal34ProcessMetadata_SetPID_Params_DataC1Ev
_uv_unref
__ZN4node7tracing16TraceEventHelper8SetAgentEPNS0_5AgentE
__ZN4node14CreatePlatformEiPNS_7tracing17TracingControllerE
__ZN4node12NodePlatformC1EiPNS_7tracing17TracingControllerE
__ZN4node12NodePlatformC2EiPNS_7tracing17TracingControllerE
__ZN4node23WorkerThreadsTaskRunnerC2Ei
_uv_mutex_lock
__ZN4node23WorkerThreadsTaskRunner20DelayedTaskSchedulerC2EPNS_9TaskQueueIN2v84TaskEEE
__ZN4base8internal8BindImplINS_17RepeatingCallbackEPFv13scoped_refptrINS_19SequencedTaskRunnerEERKN15service_manager8IdentityEEJS5_EEEDcOT0_DpOT1_
__ZN4base8internal12CallbackBaseC2EONS0_20CallbackBaseCopyableE
__ZN15service_manager14ServiceManager23SetInstanceQuitCallbackEN4base12OnceCallbackIFvRKNS_8IdentityEEEE
__ZN15service_manager5mojom20ProcessMetadataProxyD0Ev
_uv_thread_create
_uv_thread_create_ex
__ZN4mojo17PassThroughFilterD0Ev
_uv_sem_wait
__ZZN4node23WorkerThreadsTaskRunner20DelayedTaskScheduler5StartEvENUlPvE_8__invokeES2_
__ZN4node23WorkerThreadsTaskRunner20DelayedTaskScheduler3RunEv
__ZN4node7tracing16TraceEventHelper20GetTracingControllerEv
__ZN2v88platform7tracing17TracingController23GetCategoryGroupEnabledEPKc
_uv_sem_post
_uv_run
_uv__run_timers
_uv__run_idle
_uv__run_prepare
_uv__next_timeout
_uv_sem_destroy
_uv__io_poll
__ZNSt3__16vectorINS_10unique_ptrIP17_opaque_pthread_tNS_14default_deleteIS3_EEEENS_9allocatorIS6_EEE21__push_back_slow_pathIS6_EEvOT_
__ZN4node12_GLOBAL__N_120PlatformWorkerThreadEPv
_uv_cond_wait
_uv_cond_signal
__ZN4base8internal9BindStateIMN7content21ServiceManagerContext30InProcessServiceManagerContextEFvNSt3__16vectorIN15service_manager8ManifestENS5_9allocatorIS8_EEEE13scoped_refptrINS_19SequencedTaskRunnerEEN4mojo13PendingRemoteINS7_5mojom7ServiceEEENS_17RepeatingCallbackIFvRKNS7_8IdentityENSF_15PendingReceiverISI_EEEEEEJSC_IS4_ESB_SC_INS_22SingleThreadTaskRunnerEESJ_SR_EE7DestroyEPKNS0_13BindStateBaseE
__ZNSt3__112__tuple_implINS_15__tuple_indicesIJLm0ELm1ELm2ELm3ELm4EEEEJ13scoped_refptrIN7content21ServiceManagerContext30InProcessServiceManagerContextEENS_6vectorIN15service_manager8ManifestENS_9allocatorISA_EEEES3_IN4base22SingleThreadTaskRunnerEEN4mojo13PendingRemoteINS9_5mojom7ServiceEEENSE_17RepeatingCallbackIFvRKNS9_8IdentityENSH_15PendingReceiverISK_EEEEEEED2Ev
_uv_mutex_unlock
__ZN4node9TaskQueueIN2v84TaskEE11BlockingPopEv
__ZN4base8internal7InvokerINS0_9BindStateIMN7content21ServiceManagerContext30InProcessServiceManagerContextEFvNSt3__16vectorINS6_12basic_stringIcNS6_11char_traitsIcEENS6_9allocatorIcEEEENSB_ISD_EEEEEJ13scoped_refptrIS5_ESF_EEEFvvEE7RunOnceEPNS0_13BindStateBaseE
__ZN4base8internal13FunctorTraitsIMN7content21ServiceManagerContext30InProcessServiceManagerContextEFvNSt3__16vectorINS5_12basic_stringIcNS5_11char_traitsIcEENS5_9allocatorIcEEEENSA_ISC_EEEEEvE6InvokeISG_13scoped_refptrIS4_EJSE_EEEvT_OT0_DpOT1_
__ZN7content21ServiceManagerContext30InProcessServiceManagerContext35StartServicesOnServiceManagerThreadENSt3__16vectorINS2_12basic_stringIcNS2_11char_traitsIcEENS2_9allocatorIcEEEENS7_IS9_EEEE
__ZN4base8internal9BindStateIMN7content21ServiceManagerContext30InProcessServiceManagerContextEFvNSt3__16vectorINS5_12basic_stringIcNS5_11char_traitsIcEENS5_9allocatorIcEEEENSA_ISC_EEEEEJ13scoped_refptrIS4_ESE_EE7DestroyEPKNS0_13BindStateBaseE
_uv_cond_destroy
__ZN4base8internal7InvokerINS0_9BindStateIMN7content28ServiceManagerConnectionImpl15IOThreadContextEFvvEJ13scoped_refptrIS5_EEEEFvvEE7RunOnceEPNS0_13BindStateBaseE
__ZN7content28ServiceManagerConnectionImpl15IOThreadContext15StartOnIOThreadEv
__ZN4mojo15PendingReceiverIN15service_manager5mojom7ServiceEEC1EONS_16InterfaceRequestIS3_EE
__ZN15service_manager14ServiceBindingC1EPNS_7ServiceEN4mojo15PendingReceiverINS_5mojom7ServiceEEE
_uv_mutex_destroy
__ZN2v82V818InitializePlatformEPNS_8PlatformE
__ZN2v88internal2V818InitializePlatformEPNS_8PlatformE
__ZN2v88Platform20GetStackTracePrinterEv
__ZN15service_manager14ServiceBinding12GetConnectorEv
__ZN2v84base18SetPrintStackTraceEPFvvE
__ZN2v87tracing23TracingCategoryObserver5SetUpEv
__ZN2v88internal2V818GetCurrentPlatformEv
__ZN4node12NodePlatform20GetTracingControllerEv
__ZN2v88platform7tracing17TracingController21AddTraceStateObserverEPNS_17TracingController18TraceStateObserverE
__ZN2v84base5Mutex4LockEv
__ZNSt3__112__hash_tableIPN2v817TracingController18TraceStateObserverENS_4hashIS4_EENS_8equal_toIS4_EENS_9allocatorIS4_EEE25__emplace_unique_key_argsIS4_JRKS4_EEENS_4pairINS_15__hash_iteratorIPNS_11__hash_nodeIS4_PvEEEEbEERKT_DpOT0_
__ZNSt3__112__hash_tableIPN2v817TracingController18TraceStateObserverENS_4hashIS4_EENS_8equal_toIS4_EENS_9allocatorIS4_EEE6rehashEm
__ZNSt3__112__hash_tableIPN2v817TracingController18TraceStateObserverENS_4hashIS4_EENS_8equal_toIS4_EENS_9allocatorIS4_EEE8__rehashEm
__ZN2v84base5Mutex6UnlockEv
__ZN3gin20ArrayBufferAllocator14SharedInstanceEv
__ZN3gin13IsolateHolder10InitializeENS0_10ScriptModeEPN2v811ArrayBuffer9AllocatorEPKlb
__ZN3gin13V8Initializer10InitializeENS_13IsolateHolder10ScriptModeEb
__ZN2v82V818SetFlagsFromStringEPKcm
__ZN2v88internal8FlagList18SetFlagsFromStringEPKcm
__ZnamRKSt9nothrow_t
__ZN2v88internal8FlagList23SetFlagsFromCommandLineEPiPPcb
__ZdaPv
__ZN2v88internal8FlagList23EnforceFlagImplicationsEv
__ZN2v88internal19ComputeFlagListHashEv
__ZNK2v88internal12_GLOBAL__N_14Flag9IsDefaultEv
__ZNSt3__113basic_ostreamIcNS_11char_traitsIcEEElsEm
__ZNKSt3__17num_putIcNS_19ostreambuf_iteratorIcNS_11char_traitsIcEEEEE6do_putES4_RNS_8ios_baseEcm
__ZN2v88internallsERNSt3__113basic_ostreamIcNS1_11char_traitsIcEEEERKNS0_12_GLOBAL__N_14FlagE
__ZNKSt3__115basic_stringbufIcNS_11char_traitsIcEENS_9allocatorIcEEE3strEv
__ZN2v84base10hash_valueEj
__ZN2v84base12hash_combineEmm
__ZN2v84base10hash_valueEm
__ZN2v82V819SetSnapshotDataBlobEPNS_11StartupDataE
__ZN2v88internal2V815SetSnapshotBlobEPNS_11StartupDataE
__ZN2v84base12CallOnceImplEPNSt3__16atomicIhEENS1_8functionIFvvEEE
__ZNSt3__110__function16__policy_invokerIFvvEE11__call_implINS0_12__alloc_funcIZN2v84base8CallOnceINS6_11StartupDataEEEvPNS_6atomicIhEENS7_14OneArgFunctionIPT_E4typeESF_EUlvE_NS_9allocatorISI_EES2_EEEEvPKNS0_16__policy_storageE
__ZN2v88internal19SetSnapshotFromFileEPNS_11StartupDataE
__ZN4base8internal9BindStateIMN7content28ServiceManagerConnectionImpl15IOThreadContextEFvvEJ13scoped_refptrIS4_EEE7DestroyEPKNS0_13BindStateBaseE
__ZNSt3__110__function16__policy_invokerIFvvEE11__call_implINS0_12__alloc_funcIZN2v84base8CallOnceIvEEvPNS_6atomicIhEENS7_14OneArgFunctionIPT_E4typeESE_EUlvE_NS_9allocatorISH_EES2_EEEEvPKNS0_16__policy_storageE
__ZN2v84base16LazyInstanceImplINS0_5MutexENS0_32StaticallyAllocatedInstanceTraitIS2_EENS0_21DefaultConstructTraitIS2_EENS0_23ThreadSafeInitOnceTraitENS0_18LeakyInstanceTraitIS2_EEE12InitInstanceEPv
__ZN4base8internal23QueryCancellationTraitsINS0_9BindStateIMN4mojo13SimpleWatcherEFvijRKNS3_18HandleSignalsStateEEJNS_7WeakPtrIS4_EEijS5_EEEEEbPKNS0_13BindStateBaseENSD_21CancellationQueryModeE
__ZN2v88internal8Snapshot15SnapshotIsValidEPKNS_11StartupDataE
__ZN4base8internal7InvokerINS0_9BindStateIMN4mojo13SimpleWatcherEFvijRKNS3_18HandleSignalsStateEEJNS_7WeakPtrIS4_EEijS5_EEEFvvEE7RunOnceEPNS0_13BindStateBaseE
__ZN4base8internal7InvokerINS0_9BindStateIMN4mojo13SimpleWatcherEFvijRKNS3_18HandleSignalsStateEEJNS_7WeakPtrIS4_EEijS5_EEEFvvEE7RunImplIS9_NSt3__15tupleIJSB_ijS5_EEEJLm0ELm1ELm2ELm3EEEEvOT_OT0_NSG_16integer_sequenceImJXspT1_EEEE
__ZN4mojo13SimpleWatcher13OnHandleReadyEijRKNS_18HandleSignalsStateE
__ZN4base8internal7InvokerINS0_9BindStateIPFvRKNS_17RepeatingCallbackIFvjEEEjRKN4mojo18HandleSignalsStateEEJS5_EEEFvjSB_EE3RunEPNS0_13BindStateBaseEjSB_
__ZN4mojo13SimpleWatcher17DiscardReadyStateERKN4base17RepeatingCallbackIFvjEEEjRKNS_18HandleSignalsStateE
__ZN4base8internal7InvokerINS0_9BindStateIMN4mojo9ConnectorEFvjEJNS0_17UnretainedWrapperIS4_EEEEEFvjEE3RunEPNS0_13BindStateBaseEj
__ZN4mojo9Connector20OnWatcherHandleReadyEj
__ZN4mojo9Connector21OnHandleReadyInternalEj
__ZN4mojo29SequenceLocalSyncEventWatcher10ResetEventEv
__ZN4mojo29SequenceLocalSyncEventWatcher18SequenceLocalState15ResetForWatcherEPKS0_
__ZN2v82V816SetEntropySourceEPFbPhmE
__ZN4mojo9Connector24ReadAllAvailableMessagesEv
__ZN4mojo7MessageC1Ev
__ZN2v84base21RandomNumberGenerator16SetEntropySourceEPFbPhmE
__ZN4mojo9Connector11ReadMessageEPNS_7MessageE
__ZN2v82V810InitializeEv
_MojoReadMessage
__ZN2v88internal2V810InitializeEv
__ZN4base18UnsanitizedCfiCallI16MojoSystemThunksMS1_PFjjPK22MojoReadMessageOptionsPmEEEDaRKNS_15ProtectedMemoryIT_EET0_
__ZNSt3__110__function16__policy_invokerIFvvEE11__call_implINS0_12__alloc_funcIPS2_NS_9allocatorIS6_EES2_EEEEvPKNS0_16__policy_storageE
_MojoReadMessageImpl
__ZN2v88internal2V828InitializeOncePerProcessImplEv
__ZN4mojo4core4Core11ReadMessageEjPK22MojoReadMessageOptionsPm
__ZN4mojo4core21MessagePipeDispatcher11ReadMessageEPNSt3__110unique_ptrINS0_5ports16UserMessageEventENS2_14default_deleteIS5_EEEE
__ZN4mojo7Message23CreateFromMessageHandleEPNS_16ScopedHandleBaseINS_13MessageHandleEEE
_MojoGetMessageContext
__ZN4base18UnsanitizedCfiCallI16MojoSystemThunksMS1_PFjmPK28MojoGetMessageContextOptionsPmEEEDaRKNS_15ProtectedMemoryIT_EET0_
_MojoGetMessageContextImpl
__ZN4mojo4core4Core17GetMessageContextEmPK28MojoGetMessageContextOptionsPm
_MojoGetMessageData
__ZN4base18UnsanitizedCfiCallI16MojoSystemThunksMS1_PFjmPK25MojoGetMessageDataOptionsPPvPjS7_S7_EEEDaRKNS_15ProtectedMemoryIT_EET0_
_MojoGetMessageDataImpl
__ZN4mojo4core4Core14GetMessageDataEmPK25MojoGetMessageDataOptionsPPvPjS7_S7_
__ZNK4mojo4core15UserMessageImpl11num_handlesEv
__ZN4mojo4core15UserMessageImpl24ExtractSerializedHandlesENS1_22ExtractBadHandlePolicyEPj
__ZN4mojo8internal6BufferC1EPvmm
__ZN4mojo8internal6BufferC1EOS1_
__ZN4mojo7MessageaSEOS0_
__ZN4mojo7MessageC1EOS0_
__ZN4mojo9Connector15DispatchMessageENS_7MessageE
__ZN4mojo9Connector21ActiveDispatchTrackerC2ERKN4base7WeakPtrIS0_EE
__ZN4mojo17MessageDispatcher6AcceptEPNS_7MessageE
__ZN4mojo22MessageHeaderValidator6AcceptEPNS_7MessageE
__ZN4mojo8internal17ValidationContextC1EPKvmmmPNS_7MessageERKN4base16BasicStringPieceINSt3__112basic_stringIcNS8_11char_traitsIcEENS8_9allocatorIcEEEEEEi
__ZN4mojo8internal17ValidationContextC2EPKvmmmPNS_7MessageERKN4base16BasicStringPieceINSt3__112basic_stringIcNS8_11char_traitsIcEENS8_9allocatorIcEEEEEEi
__ZN4mojo8internal34ValidateStructHeaderAndClaimMemoryEPKvPNS0_17ValidationContextE
__ZN4mojo8internal17ValidationContextD1Ev
__ZN2v84base2OS10InitializeEbPKc
__ZN4mojo8internal15MultiplexRouter6AcceptEPNS_7MessageE
__ZN4mojo8internal15MultiplexRouter25InsertEndpointsForMessageERKNS_7MessageE
__ZNK4mojo7Message25payload_num_interface_idsEv
__ZN4mojo8internal15MultiplexRouter22ProcessIncomingMessageEPNS1_14MessageWrapperENS1_18ClientCallBehaviorEPN4base19SequencedTaskRunnerE
__ZN4mojo25PipeControlMessageHandler20IsPipeControlMessageEPKNS_7MessageE
__ZN4mojo7Message36DeserializeAssociatedEndpointHandlesEPNS_25AssociatedGroupControllerE
__ZN4mojo23InterfaceEndpointClient21HandleIncomingMessageEPNS_7MessageE
__ZN2v88internal7Isolate24InitializeOncePerProcessEv
__ZN15service_manager5mojom23ServiceRequestValidator6AcceptEPN4mojo7MessageE
__ZN4mojo8internal21ControlMessageHandler16IsControlMessageEPKNS_7MessageE
__ZNK4mojo7Message7payloadEv
__ZNK4mojo7Message17payload_num_bytesEv
__ZN4mojo8internal41ValidateMessageIsRequestExpectingResponseEPKNS_7MessageEPNS0_17ValidationContextE
__ZN15service_manager5mojom8internal27Service_OnStart_Params_Data8ValidateEPKvPN4mojo8internal17ValidationContextE
__ZN2v84base6Thread20CreateThreadLocalKeyEv
__ZN15service_manager5mojom8internal13Identity_Data8ValidateEPKvPN4mojo8internal17ValidationContextE
__ZN4mojo8internal10Array_DataIcE8ValidateEPKvPNS0_17ValidationContextEPKNS0_23ContainerValidateParamsE
__ZN4mojo8internal24ArraySerializationHelperIcLb0ELb0EE16ValidateElementsEPKNS0_11ArrayHeaderEPKcPNS0_17ValidationContextEPKNS0_23ContainerValidateParamsE
__ZN9mojo_base5mojom8internal10Token_Data8ValidateEPKvPN4mojo8internal17ValidationContextE
__ZN4mojo8internal23ContainerValidateParamsD2Ev
__ZN4mojo23InterfaceEndpointClient26HandleIncomingMessageThunk6AcceptEPNS_7MessageE
__ZN4mojo23InterfaceEndpointClient22HandleValidatedMessageEPNS_7MessageE
__ZN15service_manager5mojom11ServiceStubIN4mojo19RawPtrImplRefTraitsINS0_7ServiceEEEE19AcceptWithResponderEPNS2_7MessageENSt3__110unique_ptrINS2_25MessageReceiverWithStatusENS9_14default_deleteISB_EEEE
__ZN15service_manager5mojom19ServiceStubDispatch19AcceptWithResponderEPNS0_7ServiceEPN4mojo7MessageENSt3__110unique_ptrINS4_25MessageReceiverWithStatusENS7_14default_deleteIS9_EEEE
__ZN4base13TaskAnnotator16ScopedSetIpcHashC1Ej
__ZN4base13TaskAnnotator16ScopedSetIpcHashC2Ej
__ZN4mojo8internal22MessageDispatchContextC1EPNS_7MessageE
__ZN4mojo8internal22MessageDispatchContext7currentEv
__ZN4base12LazyInstanceINS_24SequenceLocalStorageSlotIPN4mojo8internal22MessageDispatchContextENSt3__114default_deleteIS5_EEEENS_8internal23LeakyLazyInstanceTraitsIS9_EEE7PointerEv
__ZN4base22LazyInstanceTraitsBaseINS_24SequenceLocalStorageSlotIPN4mojo8internal22MessageDispatchContextENSt3__114default_deleteIS5_EEEEE3NewEPv
__ZZN4base24SequenceLocalStorageSlotIPN4mojo8internal22MessageDispatchContextENSt3__114default_deleteIS4_EEE5AdoptEPS4_ENUlPvE_8__invokeESA_
__ZN4mojo8internal20SerializationContext22TakeHandlesFromMessageEPNS_7MessageE
__ZN4mojo12StructTraitsIN15service_manager5mojom16IdentityDataViewENS1_8IdentityEE4ReadES3_PS4_
__ZN2v88internal11CpuFeatures9ProbeImplEb
__ZN2v84base3CPUC1Ev
__ZN2v84base3CPUC2Ev
__ZN4mojo12StructTraitsIN9mojo_base5mojom13TokenDataViewEN4base5TokenEE4ReadES3_PS5_
__ZN15service_manager8IdentityaSERKS0_
__ZN2v88internal12_GLOBAL__N_115OSHasAVXSupportEv
__ZNK4mojo7Message9header_v1Ev
__ZN15service_manager5mojom32Service_OnStart_ProxyToResponder14CreateCallbackEybNSt3__110unique_ptrIN4mojo25MessageReceiverWithStatusENS2_14default_deleteIS5_EEEE
__ZN4base8internal8BindImplINS_12OnceCallbackEMN15service_manager5mojom32Service_OnStart_ProxyToResponderEFvN4mojo15PendingReceiverINS4_9ConnectorEEENS6_25PendingAssociatedReceiverINS4_14ServiceControlEEEEJNSt3__110unique_ptrIS5_NSF_14default_deleteIS5_EEEEEEEDcOT0_DpOT1_
__ZN15service_manager14ServiceBinding7OnStartERKNS_8IdentityEN4base12OnceCallbackIFvN4mojo15PendingReceiverINS_5mojom9ConnectorEEENS6_25PendingAssociatedReceiverINS8_14ServiceControlEEEEEE
__ZN2v88internal16ElementsAccessor24InitializeOncePerProcessEv
__ZN2v88internal12Bootstrapper24InitializeOncePerProcessEv
__ZN2v88internal8SNPrintFENS0_6VectorIcEEPKcz
__ZN2v84base2OS9VSNPrintFEPciPKcP13__va_list_tag
__ZN2v89ExtensionC2EPKcS2_iPS2_i
__ZN2v817RegisterExtensionENSt3__110unique_ptrINS_9ExtensionENS0_14default_deleteIS2_EEEE
__ZN4mojo16AssociatedRemoteIN15service_manager5mojom14ServiceControlEE30BindNewEndpointAndPassReceiverE13scoped_refptrIN4base19SequencedTaskRunnerEE
__ZN4mojo29ScopedInterfaceEndpointHandleC1Ev
__ZN4mojo29ScopedInterfaceEndpointHandle28CreatePairPendingAssociationEPS0_S1_
__ZN4mojo29ScopedInterfaceEndpointHandle5State16InitPendingStateE13scoped_refptrIS1_E
__ZN4mojo29ScopedInterfaceEndpointHandle13ResetInternalERKN4base8OptionalINS_16DisconnectReasonEEE
__ZN4mojo16AssociatedRemoteIN15service_manager5mojom14ServiceControlEE4BindENS_23PendingAssociatedRemoteIS3_EE13scoped_refptrIN4base19SequencedTaskRunnerEE
__ZN4mojo8internal27AssociatedInterfacePtrStateIN15service_manager5mojom14ServiceControlEE4BindENS_26AssociatedInterfacePtrInfoIS4_EE13scoped_refptrIN4base19SequencedTaskRunnerEE
__ZN4mojo8internal31AssociatedInterfacePtrStateBase4BindENS_29ScopedInterfaceEndpointHandleEjNSt3__110unique_ptrINS_15MessageReceiverENS3_14default_deleteIS5_EEEE13scoped_refptrIN4base19SequencedTaskRunnerEEPKc
__ZN2v88internal15CallDescriptors24InitializeOncePerProcessEv
__ZN4base8internal8BindImplINS_17RepeatingCallbackEMN4mojo23InterfaceEndpointClientEFvNS3_29ScopedInterfaceEndpointHandle16AssociationEventEEJNS0_17UnretainedWrapperIS4_EEEEEDcOT0_DpOT1_
__ZN4mojo29ScopedInterfaceEndpointHandle26SetAssociationEventHandlerEN4base12OnceCallbackIFvNS0_16AssociationEventEEEE
__ZN4mojo29ScopedInterfaceEndpointHandle5State26SetAssociationEventHandlerEN4base12OnceCallbackIFvNS0_16AssociationEventEEEE
__ZN2v88internal23CallInterfaceDescriptor10InitializeEPNS0_27CallInterfaceDescriptorDataE
__ZN15service_manager5mojom19ServiceControlProxyC1EPN4mojo28MessageReceiverWithResponderE
__ZN2v88internal15AbortDescriptor26InitializePlatformSpecificEPNS0_27CallInterfaceDescriptorDataE
__ZN2v88internal27CallInterfaceDescriptorData26InitializePlatformSpecificEiPKNS0_8RegisterE
__ZN4base8internal7InvokerINS0_9BindStateIMN15service_manager5mojom32Service_OnStart_ProxyToResponderEFvN4mojo15PendingReceiverINS4_9ConnectorEEENS6_25PendingAssociatedReceiverINS4_14ServiceControlEEEEJNSt3__110unique_ptrIS5_NSF_14default_deleteIS5_EEEEEEEFvS9_SC_EE7RunOnceEPNS0_13BindStateBaseEOS9_OSC_
__ZN15service_manager5mojom32Service_OnStart_ProxyToResponder3RunEN4mojo15PendingReceiverINS0_9ConnectorEEENS2_25PendingAssociatedReceiverINS0_14ServiceControlEEE
__ZN2v88internal15AbortDescriptor29InitializePlatformIndependentEPNS0_27CallInterfaceDescriptorDataE
__ZN2v88internal27CallInterfaceDescriptorData29InitializePlatformIndependentENS_4base5FlagsINS1_4FlagEiEEiiPKNS0_11MachineTypeEi
__ZN15service_manager5mojom8internal35Service_OnStart_ResponseParams_Data12BufferWriter4dataEv
__ZN2v88internal18AllocateDescriptor26InitializePlatformSpecificEPNS0_27CallInterfaceDescriptorDataE
__ZN15service_manager5mojom8internal35Service_OnStart_ResponseParams_DataC1Ev
__ZN4mojo8internal10SerializerINS_34AssociatedInterfaceRequestDataViewIN15service_manager5mojom27ServiceControlInterfaceBaseEEENS_25PendingAssociatedReceiverINS4_14ServiceControlEEEE9SerializeERS9_PNS0_29AssociatedEndpointHandle_DataEPNS0_20SerializationContextE
__ZN2v88internal18AllocateDescriptor29InitializePlatformIndependentEPNS0_27CallInterfaceDescriptorDataE
__ZN4mojo8internal20SerializationContext21AddAssociatedEndpointENS_29ScopedInterfaceEndpointHandleEPNS0_29AssociatedEndpointHandle_DataE
__ZN2v88internal28AllocateHeapNumberDescriptor26InitializePlatformSpecificEPNS0_27CallInterfaceDescriptorDataE
__ZN2v88internal28AllocateHeapNumberDescriptor29InitializePlatformIndependentEPNS0_27CallInterfaceDescriptorDataE
__ZNSt3__16vectorIN4mojo29ScopedInterfaceEndpointHandleENS_9allocatorIS2_EEE24__emplace_back_slow_pathIJS2_EEEvDpOT_
__ZN2v88internal21ApiCallbackDescriptor26InitializePlatformSpecificEPNS0_27CallInterfaceDescriptorDataE
__ZN4mojo8internal24IsHandleOrInterfaceValidERKNS0_29AssociatedEndpointHandle_DataE
__ZN2v88internal21ApiCallbackDescriptor29InitializePlatformIndependentEPNS0_27CallInterfaceDescriptorDataE
__ZN2v88internal19ApiGetterDescriptor26InitializePlatformSpecificEPNS0_27CallInterfaceDescriptorDataE
__ZN2v88internal14LoadDescriptor16ReceiverRegisterEv
__ZN2v88internal19ApiGetterDescriptor14HolderRegisterEv
__ZN2v88internal19ApiGetterDescriptor16CallbackRegisterEv
__ZN2v88internal19ApiGetterDescriptor29InitializePlatformIndependentEPNS0_27CallInterfaceDescriptorDataE
__ZN2v88internal26ArgumentsAdaptorDescriptor26InitializePlatformSpecificEPNS0_27CallInterfaceDescriptorDataE
__ZN2v88internal26ArgumentsAdaptorDescriptor29InitializePlatformIndependentEPNS0_27CallInterfaceDescriptorDataE
__ZN2v88internal26ArrayConstructorDescriptor26InitializePlatformSpecificEPNS0_27CallInterfaceDescriptorDataE
__ZN2v88internal26ArrayConstructorDescriptor29InitializePlatformIndependentEPNS0_27CallInterfaceDescriptorDataE
__ZN2v88internal36ArrayNArgumentsConstructorDescriptor26InitializePlatformSpecificEPNS0_27CallInterfaceDescriptorDataE
__ZN2v88internal36ArrayNArgumentsConstructorDescriptor29InitializePlatformIndependentEPNS0_27CallInterfaceDescriptorDataE
__ZN2v88internal36ArrayNoArgumentConstructorDescriptor26InitializePlatformSpecificEPNS0_27CallInterfaceDescriptorDataE
__ZN2v88internal36ArrayNoArgumentConstructorDescriptor29InitializePlatformIndependentEPNS0_27CallInterfaceDescriptorDataE
__ZN2v88internal40ArraySingleArgumentConstructorDescriptor26InitializePlatformSpecificEPNS0_27CallInterfaceDescriptorDataE
__ZN2v88internal40ArraySingleArgumentConstructorDescriptor29InitializePlatformIndependentEPNS0_27CallInterfaceDescriptorDataE
__ZN4mojo13MessageHandle5CloseEv
_MojoDestroyMessage
__ZN4base18UnsanitizedCfiCallI16MojoSystemThunksMS1_PFjmEEEDaRKNS_15ProtectedMemoryIT_EET0_
__ZN2v88internal37AsyncFunctionStackParameterDescriptor26InitializePlatformSpecificEPNS0_27CallInterfaceDescriptorDataE
_MojoDestroyMessageImpl
__ZN2v88internal37AsyncFunctionStackParameterDescriptor29InitializePlatformIndependentEPNS0_27CallInterfaceDescriptorDataE
__ZN4mojo4core4Core14DestroyMessageEm
__ZN4mojo4core5ports16UserMessageEventD0Ev
__ZN2v88internal21BigIntToI64Descriptor26InitializePlatformSpecificEPNS0_27CallInterfaceDescriptorDataE
__ZN2v88internal23CallInterfaceDescriptor33DefaultInitializePlatformSpecificEPNS0_27CallInterfaceDescriptorDataEi
__ZN4mojo4core15UserMessageImplD0Ev
__ZN4mojo4core15UserMessageImplD2Ev
__ZN2v88internal21BigIntToI64Descriptor29InitializePlatformIndependentEPNS0_27CallInterfaceDescriptorDataE
__ZN2v88internal25BigIntToI32PairDescriptor26InitializePlatformSpecificEPNS0_27CallInterfaceDescriptorDataE
__ZN2v88internal25BigIntToI32PairDescriptor29InitializePlatformIndependentEPNS0_27CallInterfaceDescriptorDataE
__ZN4mojo4core5ports11UserMessageD2Ev
__ZN2v88internal21I64ToBigIntDescriptor26InitializePlatformSpecificEPNS0_27CallInterfaceDescriptorDataE
__ZN2v88internal21I64ToBigIntDescriptor29InitializePlatformIndependentEPNS0_27CallInterfaceDescriptorDataE
__ZN2v88internal25I32PairToBigIntDescriptor26InitializePlatformSpecificEPNS0_27CallInterfaceDescriptorDataE
__ZN2v88internal25I32PairToBigIntDescriptor29InitializePlatformIndependentEPNS0_27CallInterfaceDescriptorDataE
__ZN4mojo12_GLOBAL__N_114ResponderThunk6AcceptEPNS_7MessageE
__ZN2v88internal18BinaryOpDescriptor26InitializePlatformSpecificEPNS0_27CallInterfaceDescriptorDataE
__ZN4mojo7Message34SerializeAssociatedEndpointHandlesEPNS_25AssociatedGroupControllerE
__ZN4mojo7Message9header_v2Ev
__ZN2v88internal23CallInterfaceDescriptor29InitializePlatformIndependentEPNS0_27CallInterfaceDescriptorDataE
__ZN4mojo8internal10Array_DataIjE12BufferWriter4dataEv
__ZN4mojo8internal15MultiplexRouter18AssociateInterfaceENS_29ScopedInterfaceEndpointHandleE
__ZN4mojo25AssociatedGroupController17NotifyAssociationEPNS_29ScopedInterfaceEndpointHandleEj
__ZN4mojo29ScopedInterfaceEndpointHandle17NotifyAssociationEj13scoped_refptrINS_25AssociatedGroupControllerEE
__ZN4mojo29ScopedInterfaceEndpointHandle5State17NotifyAssociationEj13scoped_refptrINS_25AssociatedGroupControllerEE
__ZN4mojo29ScopedInterfaceEndpointHandle5State12OnAssociatedEj13scoped_refptrINS_25AssociatedGroupControllerEE
__ZN4base8internal7InvokerINS0_9BindStateIMN4mojo23InterfaceEndpointClientEFvNS3_29ScopedInterfaceEndpointHandle16AssociationEventEEJNS0_17UnretainedWrapperIS4_EEEEEFvS6_EE3RunEPNS0_13BindStateBaseES6_
__ZN4mojo23InterfaceEndpointClient18OnAssociationEventENS_29ScopedInterfaceEndpointHandle16AssociationEventE
__ZN4base8internal9BindStateIMN4mojo23InterfaceEndpointClientEFvNS2_29ScopedInterfaceEndpointHandle16AssociationEventEEJNS0_17UnretainedWrapperIS3_EEEE7DestroyEPKNS0_13BindStateBaseE
__ZN2v88internal28CallForwardVarargsDescriptor26InitializePlatformSpecificEPNS0_27CallInterfaceDescriptorDataE
__ZN2v88internal28CallForwardVarargsDescriptor29InitializePlatformIndependentEPNS0_27CallInterfaceDescriptorDataE
__ZN2v88internal30CallFunctionTemplateDescriptor26InitializePlatformSpecificEPNS0_27CallInterfaceDescriptorDataE
__ZN2v88internal30CallFunctionTemplateDescriptor29InitializePlatformIndependentEPNS0_27CallInterfaceDescriptorDataE
__ZN2v88internal24CallTrampolineDescriptor26InitializePlatformSpecificEPNS0_27CallInterfaceDescriptorDataE
__ZN2v88internal24CallTrampolineDescriptor29InitializePlatformIndependentEPNS0_27CallInterfaceDescriptorDataE
__ZN2v88internal21CallVarargsDescriptor26InitializePlatformSpecificEPNS0_27CallInterfaceDescriptorDataE
__ZN2v88internal21CallVarargsDescriptor29InitializePlatformIndependentEPNS0_27CallInterfaceDescriptorDataE
__ZN2v88internal27CallWithArrayLikeDescriptor26InitializePlatformSpecificEPNS0_27CallInterfaceDescriptorDataE
__ZN2v88internal27CallWithArrayLikeDescriptor29InitializePlatformIndependentEPNS0_27CallInterfaceDescriptorDataE
__ZN2v88internal24CallWithSpreadDescriptor26InitializePlatformSpecificEPNS0_27CallInterfaceDescriptorDataE
__ZN2v88internal24CallWithSpreadDescriptor29InitializePlatformIndependentEPNS0_27CallInterfaceDescriptorDataE
__ZN2v88internal28CEntry1ArgvOnStackDescriptor26InitializePlatformSpecificEPNS0_27CallInterfaceDescriptorDataE
__ZN2v88internal28CEntry1ArgvOnStackDescriptor29InitializePlatformIndependentEPNS0_27CallInterfaceDescriptorDataE
__ZN2v88internal31CloneObjectWithVectorDescriptor26InitializePlatformSpecificEPNS0_27CallInterfaceDescriptorDataE
__ZN2v88internal31CloneObjectWithVectorDescriptor29InitializePlatformIndependentEPNS0_27CallInterfaceDescriptorDataE
__ZN2v88internal17CompareDescriptor26InitializePlatformSpecificEPNS0_27CallInterfaceDescriptorDataE
__ZN2v88internal33ConstructForwardVarargsDescriptor26InitializePlatformSpecificEPNS0_27CallInterfaceDescriptorDataE
__ZN2v88internal33ConstructForwardVarargsDescriptor29InitializePlatformIndependentEPNS0_27CallInterfaceDescriptorDataE
__ZN2v88internal23ConstructStubDescriptor26InitializePlatformSpecificEPNS0_27CallInterfaceDescriptorDataE
__ZN2v88internal23ConstructStubDescriptor29InitializePlatformIndependentEPNS0_27CallInterfaceDescriptorDataE
__ZN2v88internal26ConstructVarargsDescriptor26InitializePlatformSpecificEPNS0_27CallInterfaceDescriptorDataE
__ZN2v88internal26ConstructVarargsDescriptor29InitializePlatformIndependentEPNS0_27CallInterfaceDescriptorDataE
__ZN2v88internal32ConstructWithArrayLikeDescriptor26InitializePlatformSpecificEPNS0_27CallInterfaceDescriptorDataE
__ZN2v88internal32ConstructWithArrayLikeDescriptor29InitializePlatformIndependentEPNS0_27CallInterfaceDescriptorDataE
__ZN2v88internal29ConstructWithSpreadDescriptor26InitializePlatformSpecificEPNS0_27CallInterfaceDescriptorDataE
__ZN2v88internal29ConstructWithSpreadDescriptor29InitializePlatformIndependentEPNS0_27CallInterfaceDescriptorDataE
__ZN2v88internal21ContextOnlyDescriptor26InitializePlatformSpecificEPNS0_27CallInterfaceDescriptorDataE
__ZN2v88internal21ContextOnlyDescriptor29InitializePlatformIndependentEPNS0_27CallInterfaceDescriptorDataE
__ZN2v88internal27CppBuiltinAdaptorDescriptor26InitializePlatformSpecificEPNS0_27CallInterfaceDescriptorDataE
__ZN2v88internal27CppBuiltinAdaptorDescriptor29InitializePlatformIndependentEPNS0_27CallInterfaceDescriptorDataE
__ZN2v88internal29EphemeronKeyBarrierDescriptor26InitializePlatformSpecificEPNS0_27CallInterfaceDescriptorDataE
__ZN2v88internal27CallInterfaceDescriptorData28RestrictAllocatableRegistersEPKNS0_8RegisterEi
__ZN2v88internal29EphemeronKeyBarrierDescriptor29InitializePlatformIndependentEPNS0_27CallInterfaceDescriptorDataE
__ZN2v88internal32FastNewFunctionContextDescriptor26InitializePlatformSpecificEPNS0_27CallInterfaceDescriptorDataE
__ZN2v88internal32FastNewFunctionContextDescriptor17ScopeInfoRegisterEv
__ZN2v88internal32FastNewFunctionContextDescriptor13SlotsRegisterEv
__ZN2v88internal32FastNewFunctionContextDescriptor29InitializePlatformIndependentEPNS0_27CallInterfaceDescriptorDataE
__ZN2v88internal23FastNewObjectDescriptor26InitializePlatformSpecificEPNS0_27CallInterfaceDescriptorDataE
__ZN2v88internal23FastNewObjectDescriptor29InitializePlatformIndependentEPNS0_27CallInterfaceDescriptorDataE
__ZN2v88internal32FrameDropperTrampolineDescriptor26InitializePlatformSpecificEPNS0_27CallInterfaceDescriptorDataE
__ZN2v88internal32FrameDropperTrampolineDescriptor29InitializePlatformIndependentEPNS0_27CallInterfaceDescriptorDataE
__ZN2v88internal35GetIteratorStackParameterDescriptor26InitializePlatformSpecificEPNS0_27CallInterfaceDescriptorDataE
__ZN2v88internal35GetIteratorStackParameterDescriptor29InitializePlatformIndependentEPNS0_27CallInterfaceDescriptorDataE
__ZN2v88internal21GetPropertyDescriptor26InitializePlatformSpecificEPNS0_27CallInterfaceDescriptorDataE
__ZN2v88internal21GetPropertyDescriptor29InitializePlatformIndependentEPNS0_27CallInterfaceDescriptorDataE
__ZN2v88internal27GrowArrayElementsDescriptor26InitializePlatformSpecificEPNS0_27CallInterfaceDescriptorDataE
__ZN2v88internal27GrowArrayElementsDescriptor14ObjectRegisterEv
__ZN2v88internal27GrowArrayElementsDescriptor11KeyRegisterEv
__ZN2v88internal27GrowArrayElementsDescriptor29InitializePlatformIndependentEPNS0_27CallInterfaceDescriptorDataE
__ZN2v88internal28InterpreterCEntry1Descriptor26InitializePlatformSpecificEPNS0_27CallInterfaceDescriptorDataE
__ZN2v88internal28InterpreterCEntry1Descriptor29InitializePlatformIndependentEPNS0_27CallInterfaceDescriptorDataE
__ZN2v88internal28InterpreterCEntry2Descriptor26InitializePlatformSpecificEPNS0_27CallInterfaceDescriptorDataE
__ZN2v88internal28InterpreterCEntry2Descriptor29InitializePlatformIndependentEPNS0_27CallInterfaceDescriptorDataE
__ZN2v88internal29InterpreterDispatchDescriptor26InitializePlatformSpecificEPNS0_27CallInterfaceDescriptorDataE
__ZN2v88internal29InterpreterDispatchDescriptor29InitializePlatformIndependentEPNS0_27CallInterfaceDescriptorDataE
__ZN2v88internal37InterpreterPushArgsThenCallDescriptor26InitializePlatformSpecificEPNS0_27CallInterfaceDescriptorDataE
__ZN2v88internal37InterpreterPushArgsThenCallDescriptor29InitializePlatformIndependentEPNS0_27CallInterfaceDescriptorDataE
__ZN2v88internal42InterpreterPushArgsThenConstructDescriptor26InitializePlatformSpecificEPNS0_27CallInterfaceDescriptorDataE
__ZN2v88internal42InterpreterPushArgsThenConstructDescriptor29InitializePlatformIndependentEPNS0_27CallInterfaceDescriptorDataE
__ZN2v88internal22JSTrampolineDescriptor26InitializePlatformSpecificEPNS0_27CallInterfaceDescriptorDataE
__ZN2v88internal22JSTrampolineDescriptor29InitializePlatformIndependentEPNS0_27CallInterfaceDescriptorDataE
__ZN2v88internal14LoadDescriptor26InitializePlatformSpecificEPNS0_27CallInterfaceDescriptorDataE
__ZN2v88internal14LoadDescriptor12NameRegisterEv
__ZN2v88internal14LoadDescriptor12SlotRegisterEv
__ZN2v88internal14LoadDescriptor29InitializePlatformIndependentEPNS0_27CallInterfaceDescriptorDataE
__ZN2v88internal20LoadGlobalDescriptor26InitializePlatformSpecificEPNS0_27CallInterfaceDescriptorDataE
__ZN2v88internal20LoadGlobalDescriptor29InitializePlatformIndependentEPNS0_27CallInterfaceDescriptorDataE
__ZN2v88internal30LoadGlobalWithVectorDescriptor26InitializePlatformSpecificEPNS0_27CallInterfaceDescriptorDataE
__ZN2v88internal24LoadWithVectorDescriptor14VectorRegisterEv
__ZN2v88internal30LoadGlobalWithVectorDescriptor29InitializePlatformIndependentEPNS0_27CallInterfaceDescriptorDataE
__ZN2v88internal24LoadWithVectorDescriptor26InitializePlatformSpecificEPNS0_27CallInterfaceDescriptorDataE
__ZN2v88internal24LoadWithVectorDescriptor29InitializePlatformIndependentEPNS0_27CallInterfaceDescriptorDataE
__ZN2v88internal30NewArgumentsElementsDescriptor26InitializePlatformSpecificEPNS0_27CallInterfaceDescriptorDataE
__ZN2v88internal30NewArgumentsElementsDescriptor29InitializePlatformIndependentEPNS0_27CallInterfaceDescriptorDataE
__ZN2v88internal19NoContextDescriptor26InitializePlatformSpecificEPNS0_27CallInterfaceDescriptorDataE
__ZN2v88internal19NoContextDescriptor29InitializePlatformIndependentEPNS0_27CallInterfaceDescriptorDataE
__ZN2v88internal21RecordWriteDescriptor26InitializePlatformSpecificEPNS0_27CallInterfaceDescriptorDataE
__ZN2v88internal21RecordWriteDescriptor29InitializePlatformIndependentEPNS0_27CallInterfaceDescriptorDataE
__ZN4mojo12_GLOBAL__N_114ResponderThunkD0Ev
__ZN4mojo12_GLOBAL__N_114ResponderThunkD1Ev
__ZN2v88internal25ResumeGeneratorDescriptor26InitializePlatformSpecificEPNS0_27CallInterfaceDescriptorDataE
__ZN2v88internal25ResumeGeneratorDescriptor29InitializePlatformIndependentEPNS0_27CallInterfaceDescriptorDataE
__ZN2v88internal28RunMicrotasksEntryDescriptor26InitializePlatformSpecificEPNS0_27CallInterfaceDescriptorDataE
__ZN2v88internal28RunMicrotasksEntryDescriptor29InitializePlatformIndependentEPNS0_27CallInterfaceDescriptorDataE
__ZN2v88internal23RunMicrotasksDescriptor26InitializePlatformSpecificEPNS0_27CallInterfaceDescriptorDataE
__ZN2v88internal23RunMicrotasksDescriptor29InitializePlatformIndependentEPNS0_27CallInterfaceDescriptorDataE
__ZN4base8internal9BindStateIMN15service_manager5mojom32Service_OnStart_ProxyToResponderEFvN4mojo15PendingReceiverINS3_9ConnectorEEENS5_25PendingAssociatedReceiverINS3_14ServiceControlEEEEJNSt3__110unique_ptrIS4_NSE_14default_deleteIS4_EEEEEE7DestroyEPKNS0_13BindStateBaseE
__ZNSt3__110unique_ptrIN15service_manager5mojom32Service_OnStart_ProxyToResponderENS_14default_deleteIS3_EEE5resetEPS3_
__ZN2v88internal15StoreDescriptor26InitializePlatformSpecificEPNS0_27CallInterfaceDescriptorDataE
__ZN2v88internal15StoreDescriptor16ReceiverRegisterEv
__ZN2v88internal15StoreDescriptor12NameRegisterEv
__ZN2v88internal15StoreDescriptor13ValueRegisterEv
__ZN2v88internal15StoreDescriptor12SlotRegisterEv
__ZN2v88internal15StoreDescriptor29InitializePlatformIndependentEPNS0_27CallInterfaceDescriptorDataE
__ZN2v88internal21StoreGlobalDescriptor26InitializePlatformSpecificEPNS0_27CallInterfaceDescriptorDataE
__ZN15service_manager7Service7OnStartEv
__ZN4mojo8internal22MessageDispatchContextD1Ev
__ZN2v88internal21StoreGlobalDescriptor29InitializePlatformIndependentEPNS0_27CallInterfaceDescriptorDataE
__ZN4mojo8internal22MessageDispatchContextD2Ev
__ZN2v88internal31StoreGlobalWithVectorDescriptor26InitializePlatformSpecificEPNS0_27CallInterfaceDescriptorDataE
__ZN2v88internal25StoreWithVectorDescriptor14VectorRegisterEv
__ZN2v88internal31StoreGlobalWithVectorDescriptor29InitializePlatformIndependentEPNS0_27CallInterfaceDescriptorDataE
__ZN2v88internal25StoreTransitionDescriptor26InitializePlatformSpecificEPNS0_27CallInterfaceDescriptorDataE
__ZN2v88internal25StoreTransitionDescriptor11MapRegisterEv
__ZN2v88internal25StoreTransitionDescriptor12SlotRegisterEv
__ZN2v88internal25StoreTransitionDescriptor14VectorRegisterEv
__ZN4base13TaskAnnotator16ScopedSetIpcHashD1Ev
__ZN2v88internal25StoreTransitionDescriptor29InitializePlatformIndependentEPNS0_27CallInterfaceDescriptorDataE
__ZN4base13TaskAnnotator16ScopedSetIpcHashD2Ev
__ZN2v88internal25StoreWithVectorDescriptor26InitializePlatformSpecificEPNS0_27CallInterfaceDescriptorDataE
__ZN2v88internal25StoreWithVectorDescriptor29InitializePlatformIndependentEPNS0_27CallInterfaceDescriptorDataE
__ZN2v88internal18StringAtDescriptor26InitializePlatformSpecificEPNS0_27CallInterfaceDescriptorDataE
__ZN2v88internal18StringAtDescriptor29InitializePlatformIndependentEPNS0_27CallInterfaceDescriptorDataE
__ZN2v88internal26StringAtAsStringDescriptor26InitializePlatformSpecificEPNS0_27CallInterfaceDescriptorDataE
__ZN2v88internal26StringAtAsStringDescriptor29InitializePlatformIndependentEPNS0_27CallInterfaceDescriptorDataE
__ZN2v88internal25StringSubstringDescriptor26InitializePlatformSpecificEPNS0_27CallInterfaceDescriptorDataE
__ZN2v88internal25StringSubstringDescriptor29InitializePlatformIndependentEPNS0_27CallInterfaceDescriptorDataE
__ZN2v88internal24TypeConversionDescriptor26InitializePlatformSpecificEPNS0_27CallInterfaceDescriptorDataE
__ZN2v88internal24TypeConversionDescriptor16ArgumentRegisterEv
__ZN2v88internal24TypeConversionDescriptor29InitializePlatformIndependentEPNS0_27CallInterfaceDescriptorDataE
__ZN2v88internal38TypeConversionStackParameterDescriptor26InitializePlatformSpecificEPNS0_27CallInterfaceDescriptorDataE
__ZN2v88internal38TypeConversionStackParameterDescriptor29InitializePlatformIndependentEPNS0_27CallInterfaceDescriptorDataE
__ZN2v88internal16TypeofDescriptor26InitializePlatformSpecificEPNS0_27CallInterfaceDescriptorDataE
__ZN2v88internal16TypeofDescriptor29InitializePlatformIndependentEPNS0_27CallInterfaceDescriptorDataE
__ZN2v88internal14VoidDescriptor26InitializePlatformSpecificEPNS0_27CallInterfaceDescriptorDataE
__ZN2v88internal14VoidDescriptor29InitializePlatformIndependentEPNS0_27CallInterfaceDescriptorDataE
__ZN2v88internal26WasmAtomicNotifyDescriptor26InitializePlatformSpecificEPNS0_27CallInterfaceDescriptorDataE
__ZN2v88internal26WasmAtomicNotifyDescriptor29InitializePlatformIndependentEPNS0_27CallInterfaceDescriptorDataE
__ZN2v88internal27WasmI32AtomicWaitDescriptor26InitializePlatformSpecificEPNS0_27CallInterfaceDescriptorDataE
__ZN2v88internal27WasmI32AtomicWaitDescriptor29InitializePlatformIndependentEPNS0_27CallInterfaceDescriptorDataE
__ZN2v88internal27WasmI64AtomicWaitDescriptor26InitializePlatformSpecificEPNS0_27CallInterfaceDescriptorDataE
__ZN2v88internal27WasmI64AtomicWaitDescriptor29InitializePlatformIndependentEPNS0_27CallInterfaceDescriptorDataE
__ZN2v88internal24WasmMemoryGrowDescriptor26InitializePlatformSpecificEPNS0_27CallInterfaceDescriptorDataE
__ZN2v88internal24WasmMemoryGrowDescriptor29InitializePlatformIndependentEPNS0_27CallInterfaceDescriptorDataE
__ZN2v88internal22WasmTableGetDescriptor26InitializePlatformSpecificEPNS0_27CallInterfaceDescriptorDataE
__ZN2v88internal22WasmTableGetDescriptor29InitializePlatformIndependentEPNS0_27CallInterfaceDescriptorDataE
__ZN2v88internal22WasmTableSetDescriptor26InitializePlatformSpecificEPNS0_27CallInterfaceDescriptorDataE
__ZN2v88internal22WasmTableSetDescriptor29InitializePlatformIndependentEPNS0_27CallInterfaceDescriptorDataE
__ZN2v88internal19WasmThrowDescriptor26InitializePlatformSpecificEPNS0_27CallInterfaceDescriptorDataE
__ZN2v88internal19WasmThrowDescriptor29InitializePlatformIndependentEPNS0_27CallInterfaceDescriptorDataE
__ZN2v88internal24FastNewClosureDescriptor26InitializePlatformSpecificEPNS0_27CallInterfaceDescriptorDataE
__ZN2v88internal24FastNewClosureDescriptor29InitializePlatformIndependentEPNS0_27CallInterfaceDescriptorDataE
__ZN2v88internal29CreateRegExpLiteralDescriptor26InitializePlatformSpecificEPNS0_27CallInterfaceDescriptorDataE
__ZN4base8internal9BindStateIMN4mojo13SimpleWatcherEFvijRKNS2_18HandleSignalsStateEEJNS_7WeakPtrIS3_EEijS4_EE7DestroyEPKNS0_13BindStateBaseE
__ZN2v88internal29CreateRegExpLiteralDescriptor29InitializePlatformIndependentEPNS0_27CallInterfaceDescriptorDataE
__ZN2v88internal33CreateEmptyArrayLiteralDescriptor26InitializePlatformSpecificEPNS0_27CallInterfaceDescriptorDataE
__ZN2v88internal33CreateEmptyArrayLiteralDescriptor29InitializePlatformIndependentEPNS0_27CallInterfaceDescriptorDataE
__ZN2v88internal35CreateShallowArrayLiteralDescriptor26InitializePlatformSpecificEPNS0_27CallInterfaceDescriptorDataE
__ZN2v88internal35CreateShallowArrayLiteralDescriptor29InitializePlatformIndependentEPNS0_27CallInterfaceDescriptorDataE
__ZN2v88internal36CreateShallowObjectLiteralDescriptor26InitializePlatformSpecificEPNS0_27CallInterfaceDescriptorDataE
__ZN2v88internal36CreateShallowObjectLiteralDescriptor29InitializePlatformIndependentEPNS0_27CallInterfaceDescriptorDataE
__ZN2v88internal23StringIndexOfDescriptor26InitializePlatformSpecificEPNS0_27CallInterfaceDescriptorDataE
__ZN2v88internal23StringIndexOfDescriptor29InitializePlatformIndependentEPNS0_27CallInterfaceDescriptorDataE
__ZN2v88internal35OrderedHashTableHealIndexDescriptor26InitializePlatformSpecificEPNS0_27CallInterfaceDescriptorDataE
__ZN2v88internal35OrderedHashTableHealIndexDescriptor29InitializePlatformIndependentEPNS0_27CallInterfaceDescriptorDataE
__ZN2v88internal37CopyFastSmiOrObjectElementsDescriptor26InitializePlatformSpecificEPNS0_27CallInterfaceDescriptorDataE
__ZN2v88internal37CopyFastSmiOrObjectElementsDescriptor29InitializePlatformIndependentEPNS0_27CallInterfaceDescriptorDataE
__ZN2v88internal26EnqueueMicrotaskDescriptor26InitializePlatformSpecificEPNS0_27CallInterfaceDescriptorDataE
__ZN2v88internal26EnqueueMicrotaskDescriptor29InitializePlatformIndependentEPNS0_27CallInterfaceDescriptorDataE
__ZN2v88internal21HasPropertyDescriptor26InitializePlatformSpecificEPNS0_27CallInterfaceDescriptorDataE
__ZN2v88internal21HasPropertyDescriptor29InitializePlatformIndependentEPNS0_27CallInterfaceDescriptorDataE
__ZN2v88internal24DeletePropertyDescriptor26InitializePlatformSpecificEPNS0_27CallInterfaceDescriptorDataE
__ZN2v88internal24DeletePropertyDescriptor29InitializePlatformIndependentEPNS0_27CallInterfaceDescriptorDataE
__ZN2v88internal28CopyDataPropertiesDescriptor26InitializePlatformSpecificEPNS0_27CallInterfaceDescriptorDataE
__ZN2v88internal28CopyDataPropertiesDescriptor29InitializePlatformIndependentEPNS0_27CallInterfaceDescriptorDataE
__ZN2v88internal27SetDataPropertiesDescriptor26InitializePlatformSpecificEPNS0_27CallInterfaceDescriptorDataE
__ZN2v88internal27SetDataPropertiesDescriptor29InitializePlatformIndependentEPNS0_27CallInterfaceDescriptorDataE
__ZN2v88internal34ArrayIncludesSmiOrObjectDescriptor26InitializePlatformSpecificEPNS0_27CallInterfaceDescriptorDataE
__ZN2v88internal34ArrayIncludesSmiOrObjectDescriptor29InitializePlatformIndependentEPNS0_27CallInterfaceDescriptorDataE
__ZN2v88internal36ArrayIncludesPackedDoublesDescriptor26InitializePlatformSpecificEPNS0_27CallInterfaceDescriptorDataE
__ZN2v88internal36ArrayIncludesPackedDoublesDescriptor29InitializePlatformIndependentEPNS0_27CallInterfaceDescriptorDataE
__ZN2v88internal35ArrayIncludesHoleyDoublesDescriptor26InitializePlatformSpecificEPNS0_27CallInterfaceDescriptorDataE
__ZN2v88internal35ArrayIncludesHoleyDoublesDescriptor29InitializePlatformIndependentEPNS0_27CallInterfaceDescriptorDataE
__ZN2v88internal33ArrayIndexOfSmiOrObjectDescriptor26InitializePlatformSpecificEPNS0_27CallInterfaceDescriptorDataE
__ZN2v88internal33ArrayIndexOfSmiOrObjectDescriptor29InitializePlatformIndependentEPNS0_27CallInterfaceDescriptorDataE
__ZN2v88internal35ArrayIndexOfPackedDoublesDescriptor26InitializePlatformSpecificEPNS0_27CallInterfaceDescriptorDataE
__ZN2v88internal35ArrayIndexOfPackedDoublesDescriptor29InitializePlatformIndependentEPNS0_27CallInterfaceDescriptorDataE
__ZN2v88internal34ArrayIndexOfHoleyDoublesDescriptor26InitializePlatformSpecificEPNS0_27CallInterfaceDescriptorDataE
__ZN2v88internal34ArrayIndexOfHoleyDoublesDescriptor29InitializePlatformIndependentEPNS0_27CallInterfaceDescriptorDataE
__ZN2v88internal26CloneFastJSArrayDescriptor26InitializePlatformSpecificEPNS0_27CallInterfaceDescriptorDataE
__ZN2v88internal26CloneFastJSArrayDescriptor29InitializePlatformIndependentEPNS0_27CallInterfaceDescriptorDataE
__ZN2v88internal38CloneFastJSArrayFillingHolesDescriptor26InitializePlatformSpecificEPNS0_27CallInterfaceDescriptorDataE
__ZN2v88internal38CloneFastJSArrayFillingHolesDescriptor29InitializePlatformIndependentEPNS0_27CallInterfaceDescriptorDataE
__ZN2v88internal28ExtractFastJSArrayDescriptor26InitializePlatformSpecificEPNS0_27CallInterfaceDescriptorDataE
__ZN2v88internal28ExtractFastJSArrayDescriptor29InitializePlatformIndependentEPNS0_27CallInterfaceDescriptorDataE
__ZN2v88internal26FlattenIntoArrayDescriptor26InitializePlatformSpecificEPNS0_27CallInterfaceDescriptorDataE
__ZN2v88internal26FlattenIntoArrayDescriptor29InitializePlatformIndependentEPNS0_27CallInterfaceDescriptorDataE
__ZN2v88internal26FlatMapIntoArrayDescriptor26InitializePlatformSpecificEPNS0_27CallInterfaceDescriptorDataE
__ZN2v88internal26FlatMapIntoArrayDescriptor29InitializePlatformIndependentEPNS0_27CallInterfaceDescriptorDataE
__ZN2v88internal28AsyncFunctionEnterDescriptor26InitializePlatformSpecificEPNS0_27CallInterfaceDescriptorDataE
__ZN2v88internal28AsyncFunctionEnterDescriptor29InitializePlatformIndependentEPNS0_27CallInterfaceDescriptorDataE
__ZN2v88internal29AsyncFunctionRejectDescriptor26InitializePlatformSpecificEPNS0_27CallInterfaceDescriptorDataE
__ZN2v88internal29AsyncFunctionRejectDescriptor29InitializePlatformIndependentEPNS0_27CallInterfaceDescriptorDataE
__ZN2v88internal30AsyncFunctionResolveDescriptor26InitializePlatformSpecificEPNS0_27CallInterfaceDescriptorDataE
__ZN2v88internal30AsyncFunctionResolveDescriptor29InitializePlatformIndependentEPNS0_27CallInterfaceDescriptorDataE
__ZN2v88internal34AsyncFunctionAwaitCaughtDescriptor26InitializePlatformSpecificEPNS0_27CallInterfaceDescriptorDataE
__ZN2v88internal34AsyncFunctionAwaitCaughtDescriptor29InitializePlatformIndependentEPNS0_27CallInterfaceDescriptorDataE
__ZN2v88internal36AsyncFunctionAwaitUncaughtDescriptor26InitializePlatformSpecificEPNS0_27CallInterfaceDescriptorDataE
__ZN2v88internal36AsyncFunctionAwaitUncaughtDescriptor29InitializePlatformIndependentEPNS0_27CallInterfaceDescriptorDataE
__ZN2v88internal32CreateIterResultObjectDescriptor26InitializePlatformSpecificEPNS0_27CallInterfaceDescriptorDataE
__ZN2v88internal32CreateIterResultObjectDescriptor29InitializePlatformIndependentEPNS0_27CallInterfaceDescriptorDataE
__ZN2v88internal31CreateGeneratorObjectDescriptor26InitializePlatformSpecificEPNS0_27CallInterfaceDescriptorDataE
__ZN2v88internal31CreateGeneratorObjectDescriptor29InitializePlatformIndependentEPNS0_27CallInterfaceDescriptorDataE
__ZN2v88internal24IterableToListDescriptor26InitializePlatformSpecificEPNS0_27CallInterfaceDescriptorDataE
__ZN2v88internal24IterableToListDescriptor29InitializePlatformIndependentEPNS0_27CallInterfaceDescriptorDataE
__ZN2v88internal40IterableToListWithSymbolLookupDescriptor26InitializePlatformSpecificEPNS0_27CallInterfaceDescriptorDataE
__ZN2v88internal40IterableToListWithSymbolLookupDescriptor29InitializePlatformIndependentEPNS0_27CallInterfaceDescriptorDataE
__ZN2v88internal40IterableToListMayPreserveHolesDescriptor26InitializePlatformSpecificEPNS0_27CallInterfaceDescriptorDataE
__ZN2v88internal40IterableToListMayPreserveHolesDescriptor29InitializePlatformIndependentEPNS0_27CallInterfaceDescriptorDataE
__ZN2v88internal37IterableToFixedArrayForWasmDescriptor26InitializePlatformSpecificEPNS0_27CallInterfaceDescriptorDataE
__ZN2v88internal37IterableToFixedArrayForWasmDescriptor29InitializePlatformIndependentEPNS0_27CallInterfaceDescriptorDataE
__ZN2v88internal32StringListFromIterableDescriptor26InitializePlatformSpecificEPNS0_27CallInterfaceDescriptorDataE
__ZN2v88internal32StringListFromIterableDescriptor29InitializePlatformIndependentEPNS0_27CallInterfaceDescriptorDataE
__ZN4base16sequence_manager8internal22LazilyDeallocatedDequeINS0_4TaskEXadL_ZNS_6subtle28TimeTicksNowIgnoringOverrideEvEEE4RingD2Ev
__ZN2v88internal33FindOrderedHashMapEntryDescriptor26InitializePlatformSpecificEPNS0_27CallInterfaceDescriptorDataE
__ZN2v88internal33FindOrderedHashMapEntryDescriptor29InitializePlatformIndependentEPNS0_27CallInterfaceDescriptorDataE
__ZN2v88internal27MapIteratorToListDescriptor26InitializePlatformSpecificEPNS0_27CallInterfaceDescriptorDataE
__ZN2v88internal27MapIteratorToListDescriptor29InitializePlatformIndependentEPNS0_27CallInterfaceDescriptorDataE
__ZN2v88internal18ParseIntDescriptor26InitializePlatformSpecificEPNS0_27CallInterfaceDescriptorDataE
__ZN2v88internal18ParseIntDescriptor29InitializePlatformIndependentEPNS0_27CallInterfaceDescriptorDataE
__ZN2v88internal20BitwiseNotDescriptor26InitializePlatformSpecificEPNS0_27CallInterfaceDescriptorDataE
__ZN2v88internal20BitwiseNotDescriptor29InitializePlatformIndependentEPNS0_27CallInterfaceDescriptorDataE
__ZN2v88internal19DecrementDescriptor26InitializePlatformSpecificEPNS0_27CallInterfaceDescriptorDataE
__ZN2v88internal19DecrementDescriptor29InitializePlatformIndependentEPNS0_27CallInterfaceDescriptorDataE
__ZN2v88internal19IncrementDescriptor26InitializePlatformSpecificEPNS0_27CallInterfaceDescriptorDataE
__ZN2v88internal19IncrementDescriptor29InitializePlatformIndependentEPNS0_27CallInterfaceDescriptorDataE
__ZN2v88internal16NegateDescriptor26InitializePlatformSpecificEPNS0_27CallInterfaceDescriptorDataE
__ZN2v88internal16NegateDescriptor29InitializePlatformIndependentEPNS0_27CallInterfaceDescriptorDataE
__ZN2v88internal39CreateObjectWithoutPropertiesDescriptor26InitializePlatformSpecificEPNS0_27CallInterfaceDescriptorDataE
__ZN2v88internal39CreateObjectWithoutPropertiesDescriptor29InitializePlatformIndependentEPNS0_27CallInterfaceDescriptorDataE
__ZN2v88internal24ObjectToStringDescriptor26InitializePlatformSpecificEPNS0_27CallInterfaceDescriptorDataE
__ZN2v88internal24ObjectToStringDescriptor29InitializePlatformIndependentEPNS0_27CallInterfaceDescriptorDataE
__ZN2v88internal24ForInEnumerateDescriptor26InitializePlatformSpecificEPNS0_27CallInterfaceDescriptorDataE
__ZN2v88internal24ForInEnumerateDescriptor29InitializePlatformIndependentEPNS0_27CallInterfaceDescriptorDataE
__ZN2v88internal21ForInFilterDescriptor26InitializePlatformSpecificEPNS0_27CallInterfaceDescriptorDataE
__ZN2v88internal21ForInFilterDescriptor29InitializePlatformIndependentEPNS0_27CallInterfaceDescriptorDataE
__ZN2v88internal23RejectPromiseDescriptor26InitializePlatformSpecificEPNS0_27CallInterfaceDescriptorDataE
__ZN2v88internal23RejectPromiseDescriptor29InitializePlatformIndependentEPNS0_27CallInterfaceDescriptorDataE
__ZN2v88internal24ResolvePromiseDescriptor26InitializePlatformSpecificEPNS0_27CallInterfaceDescriptorDataE
__ZN2v88internal24ResolvePromiseDescriptor29InitializePlatformIndependentEPNS0_27CallInterfaceDescriptorDataE
__ZN2v88internal30NewPromiseCapabilityDescriptor26InitializePlatformSpecificEPNS0_27CallInterfaceDescriptorDataE
__ZN2v88internal30NewPromiseCapabilityDescriptor29InitializePlatformIndependentEPNS0_27CallInterfaceDescriptorDataE
__ZN2v88internal28PerformPromiseThenDescriptor26InitializePlatformSpecificEPNS0_27CallInterfaceDescriptorDataE
__ZN2v88internal28PerformPromiseThenDescriptor29InitializePlatformIndependentEPNS0_27CallInterfaceDescriptorDataE
__ZN2v88internal34PromiseRejectReactionJobDescriptor26InitializePlatformSpecificEPNS0_27CallInterfaceDescriptorDataE
__ZN2v88internal34PromiseRejectReactionJobDescriptor29InitializePlatformIndependentEPNS0_27CallInterfaceDescriptorDataE
__ZN2v88internal35PromiseFulfillReactionJobDescriptor26InitializePlatformSpecificEPNS0_27CallInterfaceDescriptorDataE
__ZN2v88internal35PromiseFulfillReactionJobDescriptor29InitializePlatformIndependentEPNS0_27CallInterfaceDescriptorDataE
__ZN2v88internal35PromiseResolveThenableJobDescriptor26InitializePlatformSpecificEPNS0_27CallInterfaceDescriptorDataE
__ZN2v88internal35PromiseResolveThenableJobDescriptor29InitializePlatformIndependentEPNS0_27CallInterfaceDescriptorDataE
__ZN2v88internal24PromiseResolveDescriptor26InitializePlatformSpecificEPNS0_27CallInterfaceDescriptorDataE
__ZN2v88internal24PromiseResolveDescriptor29InitializePlatformIndependentEPNS0_27CallInterfaceDescriptorDataE
__ZN2v88internal24RegExpExecAtomDescriptor26InitializePlatformSpecificEPNS0_27CallInterfaceDescriptorDataE
__ZN2v88internal24RegExpExecAtomDescriptor29InitializePlatformIndependentEPNS0_27CallInterfaceDescriptorDataE
__ZN2v88internal28RegExpExecInternalDescriptor26InitializePlatformSpecificEPNS0_27CallInterfaceDescriptorDataE
__ZN2v88internal28RegExpExecInternalDescriptor29InitializePlatformIndependentEPNS0_27CallInterfaceDescriptorDataE
__ZN2v88internal32SetOrSetIteratorToListDescriptor26InitializePlatformSpecificEPNS0_27CallInterfaceDescriptorDataE
__ZN2v88internal32SetOrSetIteratorToListDescriptor29InitializePlatformIndependentEPNS0_27CallInterfaceDescriptorDataE
__ZN2v88internal34ThrowWasmTrapUnreachableDescriptor26InitializePlatformSpecificEPNS0_27CallInterfaceDescriptorDataE
__ZN2v88internal34ThrowWasmTrapUnreachableDescriptor29InitializePlatformIndependentEPNS0_27CallInterfaceDescriptorDataE
__ZN2v88internal37ThrowWasmTrapMemOutOfBoundsDescriptor26InitializePlatformSpecificEPNS0_27CallInterfaceDescriptorDataE
__ZN2v88internal37ThrowWasmTrapMemOutOfBoundsDescriptor29InitializePlatformIndependentEPNS0_27CallInterfaceDescriptorDataE
__ZN2v88internal38ThrowWasmTrapUnalignedAccessDescriptor26InitializePlatformSpecificEPNS0_27CallInterfaceDescriptorDataE
__ZN2v88internal38ThrowWasmTrapUnalignedAccessDescriptor29InitializePlatformIndependentEPNS0_27CallInterfaceDescriptorDataE
__ZN2v88internal32ThrowWasmTrapDivByZeroDescriptor26InitializePlatformSpecificEPNS0_27CallInterfaceDescriptorDataE
__ZN2v88internal32ThrowWasmTrapDivByZeroDescriptor29InitializePlatformIndependentEPNS0_27CallInterfaceDescriptorDataE
__ZN2v88internal41ThrowWasmTrapDivUnrepresentableDescriptor26InitializePlatformSpecificEPNS0_27CallInterfaceDescriptorDataE
__ZN2v88internal41ThrowWasmTrapDivUnrepresentableDescriptor29InitializePlatformIndependentEPNS0_27CallInterfaceDescriptorDataE
__ZN2v88internal32ThrowWasmTrapRemByZeroDescriptor26InitializePlatformSpecificEPNS0_27CallInterfaceDescriptorDataE
__ZN2v88internal32ThrowWasmTrapRemByZeroDescriptor29InitializePlatformIndependentEPNS0_27CallInterfaceDescriptorDataE
__ZN15service_manager5mojom31ProcessMetadataRequestValidator6AcceptEPN4mojo7MessageE
__ZN2v88internal43ThrowWasmTrapFloatUnrepresentableDescriptor26InitializePlatformSpecificEPNS0_27CallInterfaceDescriptorDataE
__ZN2v88internal43ThrowWasmTrapFloatUnrepresentableDescriptor29InitializePlatformIndependentEPNS0_27CallInterfaceDescriptorDataE
__ZN4mojo8internal39ValidateMessageIsRequestWithoutResponseEPKNS_7MessageEPNS0_17ValidationContextE
__ZN2v88internal34ThrowWasmTrapFuncInvalidDescriptor26InitializePlatformSpecificEPNS0_27CallInterfaceDescriptorDataE
__ZN15service_manager5mojom8internal34ProcessMetadata_SetPID_Params_Data8ValidateEPKvPN4mojo8internal17ValidationContextE
__ZN2v88internal34ThrowWasmTrapFuncInvalidDescriptor29InitializePlatformIndependentEPNS0_27CallInterfaceDescriptorDataE
__ZN9mojo_base5mojom8internal14ProcessId_Data8ValidateEPKvPN4mojo8internal17ValidationContextE
__ZN2v88internal38ThrowWasmTrapFuncSigMismatchDescriptor26InitializePlatformSpecificEPNS0_27CallInterfaceDescriptorDataE
__ZN2v88internal38ThrowWasmTrapFuncSigMismatchDescriptor29InitializePlatformIndependentEPNS0_27CallInterfaceDescriptorDataE
__ZN2v88internal41ThrowWasmTrapDataSegmentDroppedDescriptor26InitializePlatformSpecificEPNS0_27CallInterfaceDescriptorDataE
__ZN2v88internal41ThrowWasmTrapDataSegmentDroppedDescriptor29InitializePlatformIndependentEPNS0_27CallInterfaceDescriptorDataE
__ZN15service_manager5mojom19ProcessMetadataStubIN4mojo19RawPtrImplRefTraitsINS0_15ProcessMetadataEEEE6AcceptEPNS2_7MessageE
__ZN15service_manager5mojom27ProcessMetadataStubDispatch6AcceptEPNS0_15ProcessMetadataEPN4mojo7MessageE
__ZN4mojo12StructTraitsIN9mojo_base5mojom17ProcessIdDataViewEiE4ReadES3_Pi
__ZN2v88internal41ThrowWasmTrapElemSegmentDroppedDescriptor26InitializePlatformSpecificEPNS0_27CallInterfaceDescriptorDataE
__ZN2v88internal41ThrowWasmTrapElemSegmentDroppedDescriptor29InitializePlatformIndependentEPNS0_27CallInterfaceDescriptorDataE
__ZN2v88internal39ThrowWasmTrapTableOutOfBoundsDescriptor26InitializePlatformSpecificEPNS0_27CallInterfaceDescriptorDataE
__ZN2v88internal39ThrowWasmTrapTableOutOfBoundsDescriptor29InitializePlatformIndependentEPNS0_27CallInterfaceDescriptorDataE
__ZN2v88internal32WeakMapLookupHashIndexDescriptor26InitializePlatformSpecificEPNS0_27CallInterfaceDescriptorDataE
__ZN2v88internal32WeakMapLookupHashIndexDescriptor29InitializePlatformIndependentEPNS0_27CallInterfaceDescriptorDataE
__ZN2v88internal30WeakCollectionDeleteDescriptor26InitializePlatformSpecificEPNS0_27CallInterfaceDescriptorDataE
__ZN2v88internal30WeakCollectionDeleteDescriptor29InitializePlatformIndependentEPNS0_27CallInterfaceDescriptorDataE
__ZN2v88internal27WeakCollectionSetDescriptor26InitializePlatformSpecificEPNS0_27CallInterfaceDescriptorDataE
__ZN2v88internal27WeakCollectionSetDescriptor29InitializePlatformIndependentEPNS0_27CallInterfaceDescriptorDataE
__ZN2v88internal31AsyncGeneratorResolveDescriptor26InitializePlatformSpecificEPNS0_27CallInterfaceDescriptorDataE
__ZN2v88internal31AsyncGeneratorResolveDescriptor29InitializePlatformIndependentEPNS0_27CallInterfaceDescriptorDataE
__ZN2v88internal30AsyncGeneratorRejectDescriptor26InitializePlatformSpecificEPNS0_27CallInterfaceDescriptorDataE
__ZN2v88internal30AsyncGeneratorRejectDescriptor29InitializePlatformIndependentEPNS0_27CallInterfaceDescriptorDataE
__ZN2v88internal29AsyncGeneratorYieldDescriptor26InitializePlatformSpecificEPNS0_27CallInterfaceDescriptorDataE
__ZN2v88internal29AsyncGeneratorYieldDescriptor29InitializePlatformIndependentEPNS0_27CallInterfaceDescriptorDataE
__ZN2v88internal30AsyncGeneratorReturnDescriptor26InitializePlatformSpecificEPNS0_27CallInterfaceDescriptorDataE
__ZN2v88internal30AsyncGeneratorReturnDescriptor29InitializePlatformIndependentEPNS0_27CallInterfaceDescriptorDataE
__ZN2v88internal34AsyncGeneratorResumeNextDescriptor26InitializePlatformSpecificEPNS0_27CallInterfaceDescriptorDataE
__ZN2v88internal34AsyncGeneratorResumeNextDescriptor29InitializePlatformIndependentEPNS0_27CallInterfaceDescriptorDataE
__ZN2v88internal35AsyncGeneratorAwaitCaughtDescriptor26InitializePlatformSpecificEPNS0_27CallInterfaceDescriptorDataE
__ZN2v88internal35AsyncGeneratorAwaitCaughtDescriptor29InitializePlatformIndependentEPNS0_27CallInterfaceDescriptorDataE
__ZN2v88internal37AsyncGeneratorAwaitUncaughtDescriptor26InitializePlatformSpecificEPNS0_27CallInterfaceDescriptorDataE
__ZN2v88internal37AsyncGeneratorAwaitUncaughtDescriptor29InitializePlatformIndependentEPNS0_27CallInterfaceDescriptorDataE
__ZN4mojo9Connector11HandleErrorEbb
__ZN2v88internal29StringAdd_CheckNoneDescriptor26InitializePlatformSpecificEPNS0_27CallInterfaceDescriptorDataE
__ZN2v88internal29StringAdd_CheckNoneDescriptor29InitializePlatformIndependentEPNS0_27CallInterfaceDescriptorDataE
__ZN2v88internal19SubStringDescriptor26InitializePlatformSpecificEPNS0_27CallInterfaceDescriptorDataE
__ZN2v88internal19SubStringDescriptor29InitializePlatformIndependentEPNS0_27CallInterfaceDescriptorDataE
__ZN2v88internal33GetPropertyWithReceiverDescriptor26InitializePlatformSpecificEPNS0_27CallInterfaceDescriptorDataE
__ZN2v88internal33GetPropertyWithReceiverDescriptor29InitializePlatformIndependentEPNS0_27CallInterfaceDescriptorDataE
__ZN2v88internal21SetPropertyDescriptor26InitializePlatformSpecificEPNS0_27CallInterfaceDescriptorDataE
__ZN2v88internal21SetPropertyDescriptor29InitializePlatformIndependentEPNS0_27CallInterfaceDescriptorDataE
__ZN2v88internal30SetPropertyInLiteralDescriptor26InitializePlatformSpecificEPNS0_27CallInterfaceDescriptorDataE
__ZN2v88internal30SetPropertyInLiteralDescriptor29InitializePlatformIndependentEPNS0_27CallInterfaceDescriptorDataE
__ZN2v88internal31StringToLowerCaseIntlDescriptor26InitializePlatformSpecificEPNS0_27CallInterfaceDescriptorDataE
__ZN2v88internal31StringToLowerCaseIntlDescriptor29InitializePlatformIndependentEPNS0_27CallInterfaceDescriptorDataE
__ZN2v88internal25TorqueInterfaceDescriptorILi8EE26InitializePlatformSpecificEPNS0_27CallInterfaceDescriptorDataE
__ZN2v88internal25TorqueInterfaceDescriptorILi8EE29InitializePlatformIndependentEPNS0_27CallInterfaceDescriptorDataE
__ZN2v88internal36ArrayEveryLoopContinuationDescriptor10ReturnTypeEv
__ZN2v88internal36ArrayEveryLoopContinuationDescriptor14ParameterTypesEv
__ZNSt3__16vectorIN2v88internal11MachineTypeENS_9allocatorIS3_EEE6insertIPS3_EENS_9enable_ifIXaasr21__is_forward_iteratorIT_EE5valuesr16is_constructibleIS3_NS_15iterator_traitsISA_E9referenceEEE5valueENS_11__wrap_iterIS8_EEE4typeENSE_IPKS3_EESA_SA_
__ZN2v88internal37ArrayFilterLoopContinuationDescriptor10ReturnTypeEv
__ZN2v88internal37ArrayFilterLoopContinuationDescriptor14ParameterTypesEv
__ZN2v88internal25TorqueInterfaceDescriptorILi6EE26InitializePlatformSpecificEPNS0_27CallInterfaceDescriptorDataE
__ZN2v88internal25TorqueInterfaceDescriptorILi6EE29InitializePlatformIndependentEPNS0_27CallInterfaceDescriptorDataE
__ZN2v88internal35ArrayFindLoopContinuationDescriptor10ReturnTypeEv
__ZN2v88internal35ArrayFindLoopContinuationDescriptor14ParameterTypesEv
__ZN2v88internal40ArrayFindIndexLoopContinuationDescriptor10ReturnTypeEv
__ZN2v88internal40ArrayFindIndexLoopContinuationDescriptor14ParameterTypesEv
__ZN2v88internal38ArrayForEachLoopContinuationDescriptor10ReturnTypeEv
__ZN2v88internal38ArrayForEachLoopContinuationDescriptor14ParameterTypesEv
__ZN2v88internal25TorqueInterfaceDescriptorILi2EE26InitializePlatformSpecificEPNS0_27CallInterfaceDescriptorDataE
__ZN2v88internal25TorqueInterfaceDescriptorILi2EE29InitializePlatformIndependentEPNS0_27CallInterfaceDescriptorDataE
__ZN2v88internal46LoadJoinElement_DictionaryElements_0Descriptor10ReturnTypeEv
__ZN2v88internal46LoadJoinElement_DictionaryElements_0Descriptor14ParameterTypesEv
__ZN2v88internal51LoadJoinElement_FastSmiOrObjectElements_0Descriptor10ReturnTypeEv
__ZN2v88internal51LoadJoinElement_FastSmiOrObjectElements_0Descriptor14ParameterTypesEv
__ZN2v88internal46LoadJoinElement_FastDoubleElements_0Descriptor10ReturnTypeEv
__ZN2v88internal46LoadJoinElement_FastDoubleElements_0Descriptor14ParameterTypesEv
__ZN2v88internal25TorqueInterfaceDescriptorILi3EE26InitializePlatformSpecificEPNS0_27CallInterfaceDescriptorDataE
__ZN2v88internal25TorqueInterfaceDescriptorILi3EE29InitializePlatformIndependentEPNS0_27CallInterfaceDescriptorDataE
__ZN2v88internal31ConvertToLocaleStringDescriptor10ReturnTypeEv
__ZN2v88internal31ConvertToLocaleStringDescriptor14ParameterTypesEv
__ZN2v88internal23JoinStackPushDescriptor10ReturnTypeEv
__ZN2v88internal23JoinStackPushDescriptor14ParameterTypesEv
__ZN2v88internal22JoinStackPopDescriptor10ReturnTypeEv
__ZN2v88internal22JoinStackPopDescriptor14ParameterTypesEv
__ZN2v88internal25TorqueInterfaceDescriptorILi7EE26InitializePlatformSpecificEPNS0_27CallInterfaceDescriptorDataE
__ZN2v88internal25TorqueInterfaceDescriptorILi7EE29InitializePlatformIndependentEPNS0_27CallInterfaceDescriptorDataE
__ZN2v88internal34ArrayMapLoopContinuationDescriptor10ReturnTypeEv
__ZN2v88internal34ArrayMapLoopContinuationDescriptor14ParameterTypesEv
__ZN2v88internal42ArrayReduceRightLoopContinuationDescriptor10ReturnTypeEv
__ZN2v88internal42ArrayReduceRightLoopContinuationDescriptor14ParameterTypesEv
__ZN2v88internal37ArrayReduceLoopContinuationDescriptor10ReturnTypeEv
__ZN2v88internal37ArrayReduceLoopContinuationDescriptor14ParameterTypesEv
__ZN2v88internal35ArraySomeLoopContinuationDescriptor10ReturnTypeEv
__ZN2v88internal35ArraySomeLoopContinuationDescriptor14ParameterTypesEv
__ZN2v88internal25TorqueInterfaceDescriptorILi1EE26InitializePlatformSpecificEPNS0_27CallInterfaceDescriptorDataE
__ZN2v88internal25TorqueInterfaceDescriptorILi1EE29InitializePlatformIndependentEPNS0_27CallInterfaceDescriptorDataE
__ZN2v88internal18ToStringDescriptor10ReturnTypeEv
__ZN2v88internal18ToStringDescriptor14ParameterTypesEv
__ZN2v88internal32FastCreateDataPropertyDescriptor10ReturnTypeEv
__ZN2v88internal32FastCreateDataPropertyDescriptor14ParameterTypesEv
__ZN2v88internal28CheckNumberInRangeDescriptor10ReturnTypeEv
__ZN2v88internal28CheckNumberInRangeDescriptor14ParameterTypesEv
__ZN2v88internal26BigIntAddNoThrowDescriptor10ReturnTypeEv
__ZN2v88internal26BigIntAddNoThrowDescriptor14ParameterTypesEv
__ZN2v88internal19BigIntAddDescriptor10ReturnTypeEv
__ZN2v88internal19BigIntAddDescriptor14ParameterTypesEv
__ZN2v88internal26BigIntUnaryMinusDescriptor10ReturnTypeEv
__ZN2v88internal26BigIntUnaryMinusDescriptor14ParameterTypesEv
__ZN2v88internal25IncBlockCounterDescriptor10ReturnTypeEv
__ZN2v88internal25IncBlockCounterDescriptor14ParameterTypesEv
__ZN2v88internal25TorqueInterfaceDescriptorILi4EE26InitializePlatformSpecificEPNS0_27CallInterfaceDescriptorDataE
__ZN2v88internal25TorqueInterfaceDescriptorILi4EE29InitializePlatformIndependentEPNS0_27CallInterfaceDescriptorDataE
__ZN2v88internal33GetIteratorWithFeedbackDescriptor10ReturnTypeEv
__ZN2v88internal33GetIteratorWithFeedbackDescriptor14ParameterTypesEv
__ZN2v88internal34CallIteratorWithFeedbackDescriptor10ReturnTypeEv
__ZN2v88internal34CallIteratorWithFeedbackDescriptor14ParameterTypesEv
__ZN4base8internal7InvokerINS0_9BindStateIMN4mojo8internal15MultiplexRouterEFvbEJNS0_17UnretainedWrapperIS5_EEbEEEFvvEE7RunOnceEPNS0_13BindStateBaseE
__ZN2v88internal24FulfillPromiseDescriptor10ReturnTypeEv
__ZN2v88internal24FulfillPromiseDescriptor14ParameterTypesEv
__ZN4base14circular_dequeINSt3__110unique_ptrIN4mojo8internal15MultiplexRouter4TaskENS1_14default_deleteIS6_EEEEE12emplace_backIJS9_EEERS9_DpOT_
__ZN4base14circular_dequeINSt3__110unique_ptrIN4mojo8internal15MultiplexRouter4TaskENS1_14default_deleteIS6_EEEEE25ExpandCapacityIfNecessaryEm
__ZN2v88internal29ProxyDeletePropertyDescriptor10ReturnTypeEv
__ZN4base14circular_dequeINSt3__110unique_ptrIN4mojo8internal15MultiplexRouter4TaskENS1_14default_deleteIS6_EEEEE10MoveBufferERNS_8internal12VectorBufferIS9_EEmmPSD_PmSG_
__ZN2v88internal29ProxyDeletePropertyDescriptor14ParameterTypesEv
__ZN4base14circular_dequeINSt3__110unique_ptrIN4mojo8internal15MultiplexRouter4TaskENS1_14default_deleteIS6_EEEEE4backEv
__ZNK4base8internal29circular_deque_const_iteratorINSt3__110unique_ptrIN4mojo8internal15MultiplexRouter4TaskENS2_14default_deleteIS7_EEEEE18CheckUnstableUsageEv
__ZNK4base8internal29circular_deque_const_iteratorINSt3__110unique_ptrIN4mojo8internal15MultiplexRouter4TaskENS2_14default_deleteIS7_EEEEEdeEv
__ZNK4base14circular_dequeINSt3__110unique_ptrIN4mojo8internal15MultiplexRouter4TaskENS1_14default_deleteIS6_EEEEE15CheckValidIndexEm
__ZNSt3__110unique_ptrIN4mojo8internal15MultiplexRouter4TaskENS_14default_deleteIS4_EEED1Ev
__ZN2v88internal26ProxyGetPropertyDescriptor10ReturnTypeEv
__ZN2v88internal26ProxyGetPropertyDescriptor14ParameterTypesEv
__ZN4base14circular_dequeINSt3__110unique_ptrIN4mojo8internal15MultiplexRouter4TaskENS1_14default_deleteIS6_EEEEE5frontEv
__ZN4base14circular_dequeINSt3__110unique_ptrIN4mojo8internal15MultiplexRouter4TaskENS1_14default_deleteIS6_EEEEE9pop_frontEv
__ZN4base8internal12VectorBufferINSt3__110unique_ptrIN4mojo8internal15MultiplexRouter4TaskENS2_14default_deleteIS7_EEEEE13DestructRangeISA_Li0EEEvPSA_SD_
__ZN4mojo8internal15MultiplexRouter22ProcessNotifyErrorTaskEPNS1_4TaskENS1_18ClientCallBehaviorEPN4base19SequencedTaskRunnerE
__ZN4mojo23InterfaceEndpointClient11NotifyErrorERKN4base8OptionalINS_16DisconnectReasonEEE
__ZN2v88internal29ProxyGetPrototypeOfDescriptor10ReturnTypeEv
__ZN2v88internal29ProxyGetPrototypeOfDescriptor14ParameterTypesEv
__ZN2v88internal26ProxyHasPropertyDescriptor10ReturnTypeEv
__ZN2v88internal26ProxyHasPropertyDescriptor14ParameterTypesEv
__ZN2v88internal27ProxyIsExtensibleDescriptor10ReturnTypeEv
__ZN2v88internal27ProxyIsExtensibleDescriptor14ParameterTypesEv
__ZN2v88internal32ProxyPreventExtensionsDescriptor10ReturnTypeEv
__ZN2v88internal32ProxyPreventExtensionsDescriptor14ParameterTypesEv
__ZN2v88internal26ProxySetPropertyDescriptor10ReturnTypeEv
__ZN4mojo8internal19ControlMessageProxy17OnConnectionErrorEv
__ZN2v88internal26ProxySetPropertyDescriptor14ParameterTypesEv
__ZN2v88internal29ProxySetPrototypeOfDescriptor10ReturnTypeEv
__ZN2v88internal29ProxySetPrototypeOfDescriptor14ParameterTypesEv
__ZN2v88internal33RegExpPrototypeExecSlowDescriptor10ReturnTypeEv
__ZN2v88internal33RegExpPrototypeExecSlowDescriptor14ParameterTypesEv
__ZN2v88internal25RegExpMatchFastDescriptor10ReturnTypeEv
__ZN2v88internal25RegExpMatchFastDescriptor14ParameterTypesEv
__ZN2v88internal23RegExpReplaceDescriptor10ReturnTypeEv
__ZN2v88internal23RegExpReplaceDescriptor14ParameterTypesEv
__ZN2v88internal26RegExpSearchFastDescriptor10ReturnTypeEv
__ZN2v88internal26RegExpSearchFastDescriptor14ParameterTypesEv
__ZN2v88internal21RegExpSplitDescriptor10ReturnTypeEv
__ZN2v88internal21RegExpSplitDescriptor14ParameterTypesEv
__ZN2v88internal33RegExpPrototypeTestFastDescriptor10ReturnTypeEv
__ZN2v88internal33RegExpPrototypeTestFastDescriptor14ParameterTypesEv
__ZN2v88internal22StringToListDescriptor10ReturnTypeEv
__ZN2v88internal22StringToListDescriptor14ParameterTypesEv
__ZN2v88internal30StringAddConvertLeftDescriptor10ReturnTypeEv
__ZN2v88internal30StringAddConvertLeftDescriptor14ParameterTypesEv
__ZN2v88internal31StringAddConvertRightDescriptor10ReturnTypeEv
__ZN2v88internal31StringAddConvertRightDescriptor14ParameterTypesEv
__ZN2v88internal22StringCharAtDescriptor10ReturnTypeEv
__ZN2v88internal22StringCharAtDescriptor14ParameterTypesEv
__ZN2v88internal25TorqueInterfaceDescriptorILi5EE26InitializePlatformSpecificEPNS0_27CallInterfaceDescriptorDataE
__ZN2v88internal25TorqueInterfaceDescriptorILi5EE29InitializePlatformIndependentEPNS0_27CallInterfaceDescriptorDataE
__ZN2v88internal20CreateHTMLDescriptor10ReturnTypeEv
__ZN2v88internal20CreateHTMLDescriptor14ParameterTypesEv
__ZN2v88internal22StringRepeatDescriptor10ReturnTypeEv
__ZN2v88internal22StringRepeatDescriptor14ParameterTypesEv
__ZN2v88internal26CreateTypedArrayDescriptor10ReturnTypeEv
__ZN2v88internal26CreateTypedArrayDescriptor14ParameterTypesEv
__ZN2v88internal29TypedArrayMergeSortDescriptor10ReturnTypeEv
__ZN2v88internal29TypedArrayMergeSortDescriptor14ParameterTypesEv
__ZN2v88internal36GenericBuiltinTest_JSAny_0Descriptor10ReturnTypeEv
__ZN2v88internal36GenericBuiltinTest_JSAny_0Descriptor14ParameterTypesEv
__ZN2v88internal25TestHelperPlus1Descriptor10ReturnTypeEv
__ZN2v88internal25TestHelperPlus1Descriptor14ParameterTypesEv
__ZN2v88internal25TestHelperPlus2Descriptor10ReturnTypeEv
__ZN2v88internal25TestHelperPlus2Descriptor14ParameterTypesEv
__ZN2v88internal19NewSmiBoxDescriptor10ReturnTypeEv
__ZN2v88internal19NewSmiBoxDescriptor14ParameterTypesEv
__ZN2v88internal32Load_FastSmiElements_0Descriptor10ReturnTypeEv
__ZN2v88internal32Load_FastSmiElements_0Descriptor14ParameterTypesEv
__ZN2v88internal35Load_FastObjectElements_0Descriptor10ReturnTypeEv
__ZN2v88internal35Load_FastObjectElements_0Descriptor14ParameterTypesEv
__ZN2v88internal35Load_FastDoubleElements_0Descriptor10ReturnTypeEv
__ZN2v88internal35Load_FastDoubleElements_0Descriptor14ParameterTypesEv
__ZN2v88internal33Store_FastSmiElements_0Descriptor10ReturnTypeEv
__ZN2v88internal33Store_FastSmiElements_0Descriptor14ParameterTypesEv
__ZN2v88internal36Store_FastObjectElements_0Descriptor10ReturnTypeEv
__ZN2v88internal36Store_FastObjectElements_0Descriptor14ParameterTypesEv
__ZN2v88internal36Store_FastDoubleElements_0Descriptor10ReturnTypeEv
__ZN2v88internal36Store_FastDoubleElements_0Descriptor14ParameterTypesEv
__ZN2v88internal34Delete_FastSmiElements_0Descriptor10ReturnTypeEv
__ZN2v88internal34Delete_FastSmiElements_0Descriptor14ParameterTypesEv
__ZN2v88internal37Delete_FastObjectElements_0Descriptor10ReturnTypeEv
__ZN2v88internal37Delete_FastObjectElements_0Descriptor14ParameterTypesEv
__ZN2v88internal37Delete_FastDoubleElements_0Descriptor10ReturnTypeEv
__ZN2v88internal37Delete_FastDoubleElements_0Descriptor14ParameterTypesEv
__ZN2v88internal28SortCompareDefaultDescriptor10ReturnTypeEv
__ZN2v88internal28SortCompareDefaultDescriptor14ParameterTypesEv
__ZN2v88internal27SortCompareUserFnDescriptor10ReturnTypeEv
__ZN2v88internal27SortCompareUserFnDescriptor14ParameterTypesEv
__ZN2v88internal54CanUseSameAccessor_GenericElementsAccessor_0Descriptor10ReturnTypeEv
__ZN2v88internal54CanUseSameAccessor_GenericElementsAccessor_0Descriptor14ParameterTypesEv
__ZN2v88internal14CopyDescriptor10ReturnTypeEv
__ZN2v88internal14CopyDescriptor14ParameterTypesEv
__ZN2v88internal17MergeAtDescriptor10ReturnTypeEv
__ZN2v88internal17MergeAtDescriptor14ParameterTypesEv
__ZN2v88internal20GallopLeftDescriptor10ReturnTypeEv
__ZN2v88internal20GallopLeftDescriptor14ParameterTypesEv
__ZN2v88internal21GallopRightDescriptor10ReturnTypeEv
__ZN2v88internal21GallopRightDescriptor14ParameterTypesEv
__ZN2v88internal22ArrayTimSortDescriptor10ReturnTypeEv
__ZN2v88internal22ArrayTimSortDescriptor14ParameterTypesEv
__ZN2v88internal51LoadJoinElement_GenericElementsAccessor_0Descriptor10ReturnTypeEv
__ZN2v88internal51LoadJoinElement_GenericElementsAccessor_0Descriptor14ParameterTypesEv
__ZN2v88internal46LoadJoinTypedElement_Int32Elements_0Descriptor10ReturnTypeEv
__ZN2v88internal46LoadJoinTypedElement_Int32Elements_0Descriptor14ParameterTypesEv
__ZN2v88internal48LoadJoinTypedElement_Float32Elements_0Descriptor10ReturnTypeEv
__ZN2v88internal48LoadJoinTypedElement_Float32Elements_0Descriptor14ParameterTypesEv
__ZN2v88internal48LoadJoinTypedElement_Float64Elements_0Descriptor10ReturnTypeEv
__ZN2v88internal48LoadJoinTypedElement_Float64Elements_0Descriptor14ParameterTypesEv
__ZN2v88internal53LoadJoinTypedElement_Uint8ClampedElements_0Descriptor10ReturnTypeEv
__ZN2v88internal53LoadJoinTypedElement_Uint8ClampedElements_0Descriptor14ParameterTypesEv
__ZN2v88internal50LoadJoinTypedElement_BigUint64Elements_0Descriptor10ReturnTypeEv
__ZN2v88internal50LoadJoinTypedElement_BigUint64Elements_0Descriptor14ParameterTypesEv
__ZN2v88internal49LoadJoinTypedElement_BigInt64Elements_0Descriptor10ReturnTypeEv
__ZN2v88internal49LoadJoinTypedElement_BigInt64Elements_0Descriptor14ParameterTypesEv
__ZN2v88internal46LoadJoinTypedElement_Uint8Elements_0Descriptor10ReturnTypeEv
__ZN2v88internal46LoadJoinTypedElement_Uint8Elements_0Descriptor14ParameterTypesEv
__ZN2v88internal45LoadJoinTypedElement_Int8Elements_0Descriptor10ReturnTypeEv
__ZN2v88internal45LoadJoinTypedElement_Int8Elements_0Descriptor14ParameterTypesEv
__ZN2v88internal47LoadJoinTypedElement_Uint16Elements_0Descriptor10ReturnTypeEv
__ZN2v88internal47LoadJoinTypedElement_Uint16Elements_0Descriptor14ParameterTypesEv
__ZN2v88internal46LoadJoinTypedElement_Int16Elements_0Descriptor10ReturnTypeEv
__ZN2v88internal46LoadJoinTypedElement_Int16Elements_0Descriptor14ParameterTypesEv
__ZN2v88internal47LoadJoinTypedElement_Uint32Elements_0Descriptor10ReturnTypeEv
__ZN2v88internal47LoadJoinTypedElement_Uint32Elements_0Descriptor14ParameterTypesEv
__ZN2v88internal42LoadFixedElement_Int32Elements_0Descriptor10ReturnTypeEv
__ZN2v88internal42LoadFixedElement_Int32Elements_0Descriptor14ParameterTypesEv
__ZN2v88internal44LoadFixedElement_Float32Elements_0Descriptor10ReturnTypeEv
__ZN2v88internal44LoadFixedElement_Float32Elements_0Descriptor14ParameterTypesEv
__ZN2v88internal44LoadFixedElement_Float64Elements_0Descriptor10ReturnTypeEv
__ZN2v88internal44LoadFixedElement_Float64Elements_0Descriptor14ParameterTypesEv
__ZN2v88internal49LoadFixedElement_Uint8ClampedElements_0Descriptor10ReturnTypeEv
__ZN2v88internal49LoadFixedElement_Uint8ClampedElements_0Descriptor14ParameterTypesEv
__ZN2v88internal46LoadFixedElement_BigUint64Elements_0Descriptor10ReturnTypeEv
__ZN2v88internal46LoadFixedElement_BigUint64Elements_0Descriptor14ParameterTypesEv
__ZN2v88internal45LoadFixedElement_BigInt64Elements_0Descriptor10ReturnTypeEv
__ZN2v88internal45LoadFixedElement_BigInt64Elements_0Descriptor14ParameterTypesEv
__ZN2v88internal42LoadFixedElement_Uint8Elements_0Descriptor10ReturnTypeEv
__ZN2v88internal42LoadFixedElement_Uint8Elements_0Descriptor14ParameterTypesEv
__ZN2v88internal41LoadFixedElement_Int8Elements_0Descriptor10ReturnTypeEv
__ZN2v88internal41LoadFixedElement_Int8Elements_0Descriptor14ParameterTypesEv
__ZN2v88internal43LoadFixedElement_Uint16Elements_0Descriptor10ReturnTypeEv
__ZN2v88internal43LoadFixedElement_Uint16Elements_0Descriptor14ParameterTypesEv
__ZN2v88internal42LoadFixedElement_Int16Elements_0Descriptor10ReturnTypeEv
__ZN2v88internal42LoadFixedElement_Int16Elements_0Descriptor14ParameterTypesEv
__ZN2v88internal43LoadFixedElement_Uint32Elements_0Descriptor10ReturnTypeEv
__ZN2v88internal43LoadFixedElement_Uint32Elements_0Descriptor14ParameterTypesEv
__ZN2v88internal43StoreFixedElement_Int32Elements_0Descriptor10ReturnTypeEv
__ZN2v88internal43StoreFixedElement_Int32Elements_0Descriptor14ParameterTypesEv
__ZN2v88internal45StoreFixedElement_Float32Elements_0Descriptor10ReturnTypeEv
__ZN2v88internal45StoreFixedElement_Float32Elements_0Descriptor14ParameterTypesEv
__ZN2v88internal45StoreFixedElement_Float64Elements_0Descriptor10ReturnTypeEv
__ZN2v88internal45StoreFixedElement_Float64Elements_0Descriptor14ParameterTypesEv
__ZN2v88internal50StoreFixedElement_Uint8ClampedElements_0Descriptor10ReturnTypeEv
__ZN2v88internal50StoreFixedElement_Uint8ClampedElements_0Descriptor14ParameterTypesEv
__ZN2v88internal47StoreFixedElement_BigUint64Elements_0Descriptor10ReturnTypeEv
__ZN2v88internal47StoreFixedElement_BigUint64Elements_0Descriptor14ParameterTypesEv
__ZN2v88internal46StoreFixedElement_BigInt64Elements_0Descriptor10ReturnTypeEv
__ZN2v88internal46StoreFixedElement_BigInt64Elements_0Descriptor14ParameterTypesEv
__ZN2v88internal43StoreFixedElement_Uint8Elements_0Descriptor10ReturnTypeEv
__ZN2v88internal43StoreFixedElement_Uint8Elements_0Descriptor14ParameterTypesEv
__ZN2v88internal42StoreFixedElement_Int8Elements_0Descriptor10ReturnTypeEv
__ZN2v88internal42StoreFixedElement_Int8Elements_0Descriptor14ParameterTypesEv
__ZN2v88internal44StoreFixedElement_Uint16Elements_0Descriptor10ReturnTypeEv
__ZN2v88internal44StoreFixedElement_Uint16Elements_0Descriptor14ParameterTypesEv
__ZN2v88internal43StoreFixedElement_Int16Elements_0Descriptor10ReturnTypeEv
__ZN2v88internal43StoreFixedElement_Int16Elements_0Descriptor14ParameterTypesEv
__ZN2v88internal44StoreFixedElement_Uint32Elements_0Descriptor10ReturnTypeEv
__ZN2v88internal44StoreFixedElement_Uint32Elements_0Descriptor14ParameterTypesEv
__ZN2v88internal34GenericBuiltinTest_Smi_0Descriptor10ReturnTypeEv
__ZN2v88internal34GenericBuiltinTest_Smi_0Descriptor14ParameterTypesEv
__ZN2v88internal49CanUseSameAccessor_FastDoubleElements_0Descriptor10ReturnTypeEv
__ZN2v88internal49CanUseSameAccessor_FastDoubleElements_0Descriptor14ParameterTypesEv
__ZN2v88internal46CanUseSameAccessor_FastSmiElements_0Descriptor10ReturnTypeEv
__ZN2v88internal46CanUseSameAccessor_FastSmiElements_0Descriptor14ParameterTypesEv
__ZN2v88internal49CanUseSameAccessor_FastObjectElements_0Descriptor10ReturnTypeEv
__ZN2v88internal49CanUseSameAccessor_FastObjectElements_0Descriptor14ParameterTypesEv
__ZN2v88internal40Load_GenericElementsAccessor_0Descriptor10ReturnTypeEv
__ZN2v88internal40Load_GenericElementsAccessor_0Descriptor14ParameterTypesEv
__ZN2v88internal41Store_GenericElementsAccessor_0Descriptor10ReturnTypeEv
__ZN2v88internal41Store_GenericElementsAccessor_0Descriptor14ParameterTypesEv
__ZN2v88internal42Delete_GenericElementsAccessor_0Descriptor10ReturnTypeEv
__ZN2v88internal42Delete_GenericElementsAccessor_0Descriptor14ParameterTypesEv
__ZN2v88internal4wasm10WasmEngine24InitializeOncePerProcessEv
__ZN2v88internal4wasm15WasmCodeManagerC1Em
__ZN2v88internal21CancelableTaskManagerC1Ev
__ZN2v84base17ConditionVariableC1Ev
__ZN2v87Isolate8AllocateEv
__ZN2v88internal7Isolate3NewENS0_21IsolateAllocationModeE
__ZN2v88internal16IsolateAllocatorC1ENS0_21IsolateAllocationModeE
__ZN2v88internal16IsolateAllocatorC2ENS0_21IsolateAllocationModeE
__ZN2v88internal24GetPlatformPageAllocatorEv
__ZN2v88internal12_GLOBAL__N_123GetPageTableInitializerEv
__ZN2v88Platform16GetPageAllocatorEv
__ZN2v84base13PageAllocatorC1Ev
__ZN2v84base2OS16AllocatePageSizeEv
__ZN2v84base2OS14CommitPageSizeEv
__ZN2v88internal7IsolateC2ENSt3__110unique_ptrINS0_16IsolateAllocatorENS2_14default_deleteIS4_EEEE
__ZN2v88internal4HeapC1Ev
__ZN2v88internal4HeapC2Ev
__ZNSt3__112__hash_tableINS_17__hash_value_typeIN2v88internal14AllocationSiteEmEENS_22__unordered_map_hasherIS4_S5_NS3_6Object6HasherELb1EEENS_21__unordered_map_equalIS4_S5_NS_8equal_toIS4_EELb1EEENS_9allocatorIS5_EEE8__rehashEm
__ZN2v84base14RecursiveMutexC1Ev
__ZN2v84base14RecursiveMutexC2Ev
__ZNSt3__16vectorIN4mojo16ScopedHandleBaseINS1_6HandleEEENS_9allocatorIS4_EEE8__appendEm
__ZN4mojo4core10Dispatcher11DeserializeENS1_4TypeEPKvmPKNS0_5ports8PortNameEmPNS_14PlatformHandleEm
__ZN4mojo4core21MessagePipeDispatcher11DeserializeEPKvmPKNS0_5ports8PortNameEmPNS_14PlatformHandleEm
__ZN4mojo4core4Core25AddDispatchersFromTransitERKNSt3__16vectorINS0_10Dispatcher19DispatcherInTransitENS2_9allocatorIS5_EEEEPj
__ZN4mojo4core11HandleTable25AddDispatchersFromTransitERKNSt3__16vectorINS0_10Dispatcher19DispatcherInTransitENS2_9allocatorIS5_EEEEPj
__ZN2v88internal13ThreadManagerC1EPNS0_7IsolateE
__ZN2v88internal6LoggerC1EPNS0_7IsolateE
__ZN2v88internal7Isolate18InitializeCountersEv
__ZN4mojo8internal10Array_DataIjE8ValidateEPKvPNS0_17ValidationContextEPKNS0_23ContainerValidateParamsE
__ZN4mojo8internal24ArraySerializationHelperIjLb0ELb0EE16ValidateElementsEPKNS0_11ArrayHeaderEPKjPNS0_17ValidationContextEPKNS0_23ContainerValidateParamsE
__ZNK4mojo7Message9header_v2Ev
__ZNK4mojo7Message21payload_interface_idsEv
__ZN2v88internal8CountersC1EPNS0_7IsolateE
__ZNSt3__16vectorIN4mojo29ScopedInterfaceEndpointHandleENS_9allocatorIS2_EEE7reserveEm
__ZN2v88internal8CountersC2EPNS0_7IsolateE
__ZN15service_manager5mojom24ServiceResponseValidator6AcceptEPN4mojo7MessageE
__ZN4mojo8internal25ValidateMessageIsResponseEPKNS_7MessageEPNS0_17ValidationContextE
__ZN15service_manager5mojom8internal35Service_OnStart_ResponseParams_Data8ValidateEPKvPN4mojo8internal17ValidationContextE
__ZN4mojo8internal36ValidateHandleOrInterfaceNonNullableERKNS0_11Handle_DataEiPNS0_17ValidationContextE
__ZN4mojo8internal25ValidateHandleOrInterfaceERKNS0_11Handle_DataEPNS0_17ValidationContextE
__ZN4mojo8internal36ValidateHandleOrInterfaceNonNullableERKNS0_29AssociatedEndpointHandle_DataEiPNS0_17ValidationContextE
__ZN4mojo8internal25ValidateHandleOrInterfaceERKNS0_29AssociatedEndpointHandle_DataEPNS0_17ValidationContextE
__ZN15service_manager5mojom33Service_OnStart_ForwardToCallback6AcceptEPN4mojo7MessageE
__ZN4mojo8internal20SerializationContext20TakeHandleAsReceiverERKNS0_11Handle_DataEPNS0_20PendingReceiverStateE
__ZN4mojo8internal10SerializerINS_34AssociatedInterfaceRequestDataViewIN15service_manager5mojom27ServiceControlInterfaceBaseEEENS_25PendingAssociatedReceiverINS4_14ServiceControlEEEE11DeserializeEPNS0_29AssociatedEndpointHandle_DataEPS9_PNS0_20SerializationContextE
__ZN4mojo8internal20SerializationContext28TakeAssociatedEndpointHandleERKNS0_29AssociatedEndpointHandle_DataE
__ZN4mojo29ScopedInterfaceEndpointHandleaSEOS0_
__ZN4base8internal7InvokerINS0_9BindStateIMN15service_manager15ServiceInstanceEFvN4mojo15PendingReceiverINS3_5mojom9ConnectorEEENS5_25PendingAssociatedReceiverINS7_14ServiceControlEEEEJNS0_17UnretainedWrapperIS4_EEEEEFvS9_SC_EE7RunOnceEPNS0_13BindStateBaseEOS9_OSC_
__ZN15service_manager15ServiceInstance16OnStartCompletedEN4mojo15PendingReceiverINS_5mojom9ConnectorEEENS1_25PendingAssociatedReceiverINS3_14ServiceControlEEE
__ZN4mojo15ReceiverSetBaseINS_8ReceiverIN15service_manager5mojom9ConnectorENS_19RawPtrImplRefTraitsIS4_EEEEvE7AddImplEPS4_NS_15PendingReceiverIS4_EEb13scoped_refptrIN4base19SequencedTaskRunnerEE
__ZN4mojo15ReceiverSetBaseINS_8ReceiverIN15service_manager5mojom9ConnectorENS_19RawPtrImplRefTraitsIS4_EEEEvE5EntryC2EPS4_NS_15PendingReceiverIS4_EEPS8_mb13scoped_refptrIN4base19SequencedTaskRunnerEE
__ZN4mojo8ReceiverIN15service_manager5mojom9ConnectorENS_19RawPtrImplRefTraitsIS3_EEEC2EPS3_NS_15PendingReceiverIS3_EE13scoped_refptrIN4base19SequencedTaskRunnerEE
__ZN4mojo8internal12BindingStateIN15service_manager5mojom9ConnectorENS_19RawPtrImplRefTraitsIS4_EEE4BindEPNS0_20PendingReceiverStateE13scoped_refptrIN4base19SequencedTaskRunnerEE
__ZN2v88internal5DebugC1EPNS0_7IsolateE
__ZN2v88internal7Isolate29InitializeDefaultEmbeddedBlobEv
__ZN2v88internal12EmbeddedData8FromBlobEv
__ZN2v88internal7Isolate19CurrentEmbeddedBlobEv
__ZN2v88internal7Isolate23CurrentEmbeddedBlobSizeEv
__ZNK2v88internal12EmbeddedData22CreateEmbeddedBlobHashEv
__ZN4mojo8internal16BindingStateBase9SetFilterENSt3__110unique_ptrINS_13MessageFilterENS2_14default_deleteIS4_EEEE
__ZN4mojo23InterfaceEndpointClient9SetFilterENSt3__110unique_ptrINS_13MessageFilterENS1_14default_deleteIS3_EEEE
__ZN4mojo17MessageDispatcher9SetFilterENSt3__110unique_ptrINS_13MessageFilterENS1_14default_deleteIS3_EEEE
__ZN4base8internal8BindImplINS_12OnceCallbackEMN4mojo15ReceiverSetBaseINS3_8ReceiverIN15service_manager5mojom9ConnectorENS3_19RawPtrImplRefTraitsIS8_EEEEvE5EntryEFvjRKNSt3__112basic_stringIcNSE_11char_traitsIcEENSE_9allocatorIcEEEEEJNS0_17UnretainedWrapperISD_EEEEEDcOT0_DpOT1_
__ZN4mojo8internal16BindingStateBase40set_connection_error_with_reason_handlerEN4base12OnceCallbackIFvjRKNSt3__112basic_stringIcNS4_11char_traitsIcEENS4_9allocatorIcEEEEEEE
__ZN4base8internal8BindImplINS_17RepeatingCallbackEMN15service_manager15ServiceInstanceEFvvEJNS0_17UnretainedWrapperIS4_EEEEEDcOT0_DpOT1_
__ZN4mojo18AssociatedReceiverIN15service_manager5mojom14ServiceControlENS_19RawPtrImplRefTraitsIS3_EEE4BindENS_25PendingAssociatedReceiverIS3_EE13scoped_refptrIN4base19SequencedTaskRunnerEE
__ZN4mojo17AssociatedBindingIN15service_manager5mojom14ServiceControlENS_19RawPtrImplRefTraitsIS3_EEE4BindENS_26AssociatedInterfaceRequestIS3_EE13scoped_refptrIN4base19SequencedTaskRunnerEE
__ZN4mojo21AssociatedBindingBase8BindImplENS_29ScopedInterfaceEndpointHandleEPNS_34MessageReceiverWithResponderStatusENSt3__110unique_ptrINS_15MessageReceiverENS4_14default_deleteIS6_EEEEb13scoped_refptrIN4base19SequencedTaskRunnerEEjPKc
__ZN15service_manager14ServiceManager20NotifyServiceStartedERKNS_8IdentityEi
__ZN15service_manager14ServiceManager24NotifyServicePIDReceivedERKNS_8IdentityEi
__ZN4base8internal9BindStateIMN15service_manager15ServiceInstanceEFvN4mojo15PendingReceiverINS2_5mojom9ConnectorEEENS4_25PendingAssociatedReceiverINS6_14ServiceControlEEEEJNS0_17UnretainedWrapperIS3_EEEE7DestroyEPKNS0_13BindStateBaseE
__ZN15service_manager5mojom33Service_OnStart_ForwardToCallbackD0Ev
__ZN15service_manager5mojom25ConnectorRequestValidator6AcceptEPN4mojo7MessageE
__ZN15service_manager5mojom8internal27Connector_Clone_Params_Data8ValidateEPKvPN4mojo8internal17ValidationContextE
__ZN4mojo15ReceiverSetBaseINS_8ReceiverIN15service_manager5mojom9ConnectorENS_19RawPtrImplRefTraitsIS4_EEEEvE5Entry14DispatchFilter12WillDispatchEPNS_7MessageE
__ZN15service_manager5mojom13ConnectorStubIN4mojo19RawPtrImplRefTraitsINS0_9ConnectorEEEE6AcceptEPNS2_7MessageE
__ZN15service_manager5mojom21ConnectorStubDispatch6AcceptEPNS0_9ConnectorEPN4mojo7MessageE
__ZN15service_manager15ServiceInstance5CloneEN4mojo15PendingReceiverINS_5mojom9ConnectorEEE
__ZN4mojo15ReceiverSetBaseINS_8ReceiverIN15service_manager5mojom9ConnectorENS_19RawPtrImplRefTraitsIS4_EEEEvE5Entry14DispatchFilter19DidDispatchOrRejectEPNS_7MessageEb
__ZNSt3__111__sift_downIRNS_6__lessINS_10unique_ptrIN4mojo4core5ports16UserMessageEventENS_14default_deleteIS6_EEEES9_EENS_11__wrap_iterIPS9_EEEEvT0_SF_T_NS_15iterator_traitsISF_E15difference_typeESF_
__ZN4base14circular_dequeIN4mojo7MessageEE12emplace_backIJS2_EEERS2_DpOT_
__ZN4base14circular_dequeIN4mojo7MessageEE25ExpandCapacityIfNecessaryEm
__ZN4base14circular_dequeIN4mojo7MessageEE10MoveBufferERNS_8internal12VectorBufferIS2_EEmmPS6_PmS9_
__ZN4base14circular_dequeIN4mojo7MessageEE4backEv
__ZNK4base8internal29circular_deque_const_iteratorIN4mojo7MessageEE18CheckUnstableUsageEv
__ZNK4base8internal29circular_deque_const_iteratorIN4mojo7MessageEEdeEv
__ZNK4base14circular_dequeIN4mojo7MessageEE15CheckValidIndexEm
__ZN4mojo9Connector30PostDispatchNextMessageInQueueEv
__ZN4base8internal9BindStateIMN4mojo9ConnectorEFvvEJNS_7WeakPtrIS3_EEEE6CreateIS5_JRS7_EEEPS8_PFvvEOT_DpOT0_
__ZN4base8internal7InvokerINS0_9BindStateIMN4mojo15ReceiverSetBaseINS3_8ReceiverIN15service_manager5mojom9ConnectorENS3_19RawPtrImplRefTraitsIS8_EEEEvE5EntryEFvjRKNSt3__112basic_stringIcNSE_11char_traitsIcEENSE_9allocatorIcEEEEEJNS0_17UnretainedWrapperISD_EEEEEFvjSM_EE7RunOnceEPNS0_13BindStateBaseEjSM_
__ZN4mojo15ReceiverSetBaseINS_8ReceiverIN15service_manager5mojom9ConnectorENS_19RawPtrImplRefTraitsIS4_EEEEvE5Entry12OnDisconnectEjRKNSt3__112basic_stringIcNSA_11char_traitsIcEENSA_9allocatorIcEEEE
__ZN4mojo15ReceiverSetBaseINS_8ReceiverIN15service_manager5mojom9ConnectorENS_19RawPtrImplRefTraitsIS4_EEEEvE12OnDisconnectEmjRKNSt3__112basic_stringIcNS9_11char_traitsIcEENS9_9allocatorIcEEEE
__ZNSt3__16__treeINS_12__value_typeImNS_10unique_ptrIN4mojo15ReceiverSetBaseINS3_8ReceiverIN15service_manager5mojom9ConnectorENS3_19RawPtrImplRefTraitsIS8_EEEEvE5EntryENS_14default_deleteISD_EEEEEENS_19__map_value_compareImSH_NS_4lessImEELb1EEENS_9allocatorISH_EEE5eraseENS_21__tree_const_iteratorISH_PNS_11__tree_nodeISH_PvEElEE
__ZN4base8internal7InvokerINS0_9BindStateIMN15service_manager15ServiceInstanceEFvvEJNS0_17UnretainedWrapperIS4_EEEEEFvvEE3RunEPNS0_13BindStateBaseE
__ZN15service_manager15ServiceInstance23OnConnectorDisconnectedEv
__ZN4mojo8internal16BindingStateBase5CloseEv
__ZN4mojo15ReceiverSetBaseINS_8ReceiverIN15service_manager5mojom9ConnectorENS_19RawPtrImplRefTraitsIS4_EEEEvE5Entry14DispatchFilterD0Ev
__ZN15service_manager5mojom25ConnectorRequestValidatorD0Ev
__ZN4base8internal9BindStateIMN4mojo8internal15MultiplexRouterEFvNS2_15ConnectionGroup3RefEEJ13scoped_refptrIS4_EEE7DestroyEPKNS0_13BindStateBaseE
__ZN4mojo8internal16BindingStateBaseD2Ev
__ZN4base8internal9BindStateIMN4mojo15ReceiverSetBaseINS2_8ReceiverIN15service_manager5mojom9ConnectorENS2_19RawPtrImplRefTraitsIS7_EEEEvE5EntryEFvjRKNSt3__112basic_stringIcNSD_11char_traitsIcEENSD_9allocatorIcEEEEEJNS0_17UnretainedWrapperISC_EEEE7DestroyEPKNS0_13BindStateBaseE
__ZN4base8internal23QueryCancellationTraitsINS0_9BindStateIMN4mojo9ConnectorEFvvEJNS_7WeakPtrIS4_EEEEEEEbPKNS0_13BindStateBaseENSA_21CancellationQueryModeE
__ZN4base8internal7InvokerINS0_9BindStateIMN4mojo9ConnectorEFvvEJNS_7WeakPtrIS4_EEEEEFvvEE7RunOnceEPNS0_13BindStateBaseE
__ZN4mojo9Connector30CallDispatchNextMessageInQueueEv
__ZN4mojo9Connector26DispatchNextMessageInQueueEv
__ZN4base14circular_dequeIN4mojo7MessageEE5frontEv
__ZN4base14circular_dequeIN4mojo7MessageEE9pop_frontEv
__ZN4base14circular_dequeIN4mojo7MessageEE25ShrinkCapacityIfNecessaryEv
__ZN4base8internal9BindStateIMN4mojo9ConnectorEFvvEJNS_7WeakPtrIS3_EEEE7DestroyEPKNS0_13BindStateBaseE
__ZN2v88internal14MicrotaskQueue26SetUpDefaultMicrotaskQueueEPNS0_7IsolateE
__ZN4node12NodePlatform15RegisterIsolateEPN2v87IsolateEP9uv_loop_s
__ZNSt3__112__hash_tableINS_17__hash_value_typeIPN2v87IsolateENS_10shared_ptrIN4node22PerIsolatePlatformDataEEEEENS_22__unordered_map_hasherIS4_S9_NS_4hashIS4_EELb1EEENS_21__unordered_map_equalIS4_S9_NS_8equal_toIS4_EELb1EEENS_9allocatorIS9_EEE25__emplace_unique_key_argsIS4_JRKNS_21piecewise_construct_tENS_5tupleIJRKS4_EEENSP_IJEEEEEENS_4pairINS_15__hash_iteratorIPNS_11__hash_nodeIS9_PvEEEEbEERKT_DpOT0_
__ZNSt3__112__hash_tableINS_17__hash_value_typeIPN2v87IsolateENS_10shared_ptrIN4node22PerIsolatePlatformDataEEEEENS_22__unordered_map_hasherIS4_S9_NS_4hashIS4_EELb1EEENS_21__unordered_map_equalIS4_S9_NS_8equal_toIS4_EELb1EEENS_9allocatorIS9_EEE6rehashEm
__ZNSt3__112__hash_tableINS_17__hash_value_typeIPN2v87IsolateENS_10shared_ptrIN4node22PerIsolatePlatformDataEEEEENS_22__unordered_map_hasherIS4_S9_NS_4hashIS4_EELb1EEENS_21__unordered_map_equalIS4_S9_NS_8equal_toIS4_EELb1EEENS_9allocatorIS9_EEE8__rehashEm
__ZN4node22PerIsolatePlatformDataC2EPN2v87IsolateEP9uv_loop_s
__ZN3gin13IsolateHolderC1E13scoped_refptrIN4base22SingleThreadTaskRunnerEENS0_10AccessModeENS0_20AllowAtomicsWaitModeENS0_11IsolateTypeENS0_19IsolateCreationModeEPN2v87IsolateE
__ZN3gin13IsolateHolderC2E13scoped_refptrIN4base22SingleThreadTaskRunnerEENS0_10AccessModeENS0_20AllowAtomicsWaitModeENS0_11IsolateTypeENS0_19IsolateCreationModeEPN2v87IsolateE
__ZN3gin14PerIsolateDataC1EPN2v87IsolateEPNS1_11ArrayBuffer9AllocatorENS_13IsolateHolder10AccessModeE13scoped_refptrIN4base22SingleThreadTaskRunnerEE
__ZN3gin14PerIsolateDataC2EPN2v87IsolateEPNS1_11ArrayBuffer9AllocatorENS_13IsolateHolder10AccessModeE13scoped_refptrIN4base22SingleThreadTaskRunnerEE
__ZN3gin22V8ForegroundTaskRunnerC1E13scoped_refptrIN4base22SingleThreadTaskRunnerEE
__ZN3gin26V8ForegroundTaskRunnerBaseC2Ev
__ZN3gin9DebugImpl22GetJitCodeEventHandlerEv
__ZN4base7SysInfo21AmountOfVirtualMemoryEv
__ZN2v819ResourceConstraints17ConfigureDefaultsEyy
__ZN2v88internal4Heap26HeapSizeFromPhysicalMemoryEy
__ZN2v88internal4Heap27GenerationSizesFromHeapSizeEmPmS2_
__ZN2v87Isolate10InitializeEPS0_RKNS0_12CreateParamsE
__ZN2v88internal8Snapshot19DefaultSnapshotBlobEv
__ZN2v88internal4Heap13ConfigureHeapERKNS_19ResourceConstraintsE
__ZN2v84base4bits21RoundUpToPowerOfTwo64Ey
__ZN2v88internal7Isolate5EnterEv
__ZN2v84base6Thread14GetThreadLocalEi
__ZN2v88internal7Isolate40FindOrAllocatePerThreadDataForThisThreadEv
__ZN2v88internal8ThreadId18GetCurrentThreadIdEv
__ZN2v84base6Thread14SetThreadLocalEiPv
__ZN2v84base2OS22AdjustSchedulingParamsEv
__ZNSt3__112__hash_tableINS_17__hash_value_typeIN2v88internal8ThreadIdEPNS3_7Isolate20PerIsolateThreadDataEEENS_22__unordered_map_hasherIS4_S8_NS5_15ThreadDataTable6HasherELb1EEENS_21__unordered_map_equalIS4_S8_NS_8equal_toIS4_EELb1EEENS_9allocatorIS8_EEE25__emplace_unique_key_argsIS4_JNS_4pairIS4_S7_EEEEENSL_INS_15__hash_iteratorIPNS_11__hash_nodeIS8_PvEEEEbEERKT_DpOT0_
__ZNSt3__112__hash_tableINS_17__hash_value_typeIN2v88internal8ThreadIdEPNS3_7Isolate20PerIsolateThreadDataEEENS_22__unordered_map_hasherIS4_S8_NS5_15ThreadDataTable6HasherELb1EEENS_21__unordered_map_equalIS4_S8_NS_8equal_toIS4_EELb1EEENS_9allocatorIS8_EEE6rehashEm
__ZNSt3__112__hash_tableINS_17__hash_value_typeIN2v88internal8ThreadIdEPNS3_7Isolate20PerIsolateThreadDataEEENS_22__unordered_map_hasherIS4_S8_NS5_15ThreadDataTable6HasherELb1EEENS_21__unordered_map_equalIS4_S8_NS_8equal_toIS4_EELb1EEENS_9allocatorIS8_EEE8__rehashEm
__ZN2v88internal8Snapshot10InitializeEPNS0_7IsolateE
__ZN2v88internal8Snapshot12CheckVersionEPKNS_11StartupDataE
__ZN2v88internal7Version9GetStringENS0_6VectorIcEE
__ZN2v88internal8Snapshot14VerifyChecksumEPKNS_11StartupDataE
__ZN2v88internal8ChecksumC2ENS0_6VectorIKhEE
__ZN2v88internal8Snapshot18ExtractStartupDataEPKNS_11StartupDataE
__ZN2v88internal12_GLOBAL__N_111ExtractDataEPKNS_11StartupDataEjj
__ZN2v88internal12DeserializerC2IKNS0_12SnapshotDataEEEPT_b
__ZNK2v88internal12SnapshotData7PayloadEv
__ZNK2v88internal12SnapshotData12ReservationsEv
__ZN2v88internal21DeserializerAllocator17DecodeReservationERKNSt3__16vectorINS0_14SerializedData11ReservationENS2_9allocatorIS5_EEEE
__ZNSt3__16vectorINS_10shared_ptrIN2v88internal12BackingStoreEEENS_9allocatorIS5_EEE21__push_back_slow_pathIS5_EEvOT_
__ZN2v88internal7Isolate16InitWithSnapshotEPNS0_20ReadOnlyDeserializerEPNS0_19StartupDeserializerE
__ZN2v88internal7Isolate4InitEPNS0_20ReadOnlyDeserializerEPNS0_19StartupDeserializerE
__ZN2v88internal4Heap31MonotonicallyIncreasingTimeInMsEv
__ZN4node12NodePlatform27MonotonicallyIncreasingTimeEv
__ZN2v88internal16CompilationCacheC1EPNS0_7IsolateE
__ZN2v88internal16CompilationCacheC2EPNS0_7IsolateE
__ZN2v88internal13GlobalHandlesC1EPNS0_7IsolateE
__ZN2v88internal12BootstrapperC1EPNS0_7IsolateE
__ZN2v88internal9StubCacheC1EPNS0_7IsolateE
__ZN2v88internal11RegExpStackC1Ev
__ZN2v88internal9DateCacheC1Ev
__ZN2v88internal4Intl19CreateTimeZoneCacheEv
__ZN2v88internal9DateCache14ResetDateCacheENS_4base13TimezoneCache17TimeZoneDetectionE
__ZN2v88internal16ICUTimezoneCache5ClearENS_4base13TimezoneCache17TimeZoneDetectionE
__ZN2v88internal12HeapProfilerC1EPNS0_4HeapE
__ZN2v88internal14HeapObjectsMapC1EPNS0_4HeapE
__ZNSt3__16vectorIN2v88internal14HeapObjectsMap9EntryInfoENS_9allocatorIS4_EEE12emplace_backIJiRKmibEEEvDpOT_
__ZN2v88internal14StringsStorageC1Ev
__ZN2v88internal11interpreter11InterpreterC1EPNS0_7IsolateE
__ZN2v88internal18CompilerDispatcherC1EPNS0_7IsolateEPNS_8PlatformEm
__ZN2v88internal18CompilerDispatcherC2EPNS0_7IsolateEPNS_8PlatformEm
__ZN4node12NodePlatform23GetForegroundTaskRunnerEPN2v87IsolateE
__ZN2v84base9SemaphoreC1Ei
__ZN2v88internal6Logger5SetUpEPNS0_7IsolateE
__ZN2v84base2OS20isDirectorySeparatorEc
__ZNSt3__113basic_ostreamIcNS_11char_traitsIcEEElsEPKv
__ZNKSt3__17num_putIcNS_19ostreambuf_iteratorIcNS_11char_traitsIcEEEEE6do_putES4_RNS_8ios_baseEcPKv
__ZN2v84base2OS19GetCurrentProcessIdEv
__ZNSt3__113basic_ostreamIcNS_11char_traitsIcEEElsEi
__ZNKSt3__17num_putIcNS_19ostreambuf_iteratorIcNS_11char_traitsIcEEEEE6do_putES4_RNS_8ios_baseEcl
__ZN2v88internal3LogC1EPNS0_6LoggerEPKc
__ZN2v88internal3LogC2EPNS0_6LoggerEPKc
__ZN2v88internal3Log18CreateOutputHandleEPKc
__ZN2v88internal8OFStreamC1EP7__sFILE
__ZNSt3__18ios_base5clearEj
__ZN2v87sampler7SamplerC2EPNS_7IsolateE
__ZN2v84base6ThreadC2ERKNS1_7OptionsE
__ZN2v84base12ElapsedTimer5StartEv
__ZN2v84base9TimeTicks17HighResolutionNowEv
__ZN2v84base9TimeTicks3NowEv
__ZN2v84base14RecursiveMutex4LockEv
__ZN2v88internal10StackGuard10InitThreadERKNS0_15ExecutionAccessE
__ZN2v88internal10StackGuard11ThreadLocal10InitializeEPNS0_7IsolateERKNS0_15ExecutionAccessE
__ZN2v88internal23GetCurrentStackPositionEv
__ZN2v84base14RecursiveMutex6UnlockEv
__ZN2v88internal4Heap12HasBeenSetUpEv
__ZN2v88internal4Heap5SetUpEv
__ZN2v88internal17GetRandomMmapAddrEv
__ZN2v84base13PageAllocator17GetRandomMmapAddrEv
__ZN2v84base2OS17GetRandomMmapAddrEv
__ZN2v84base21RandomNumberGeneratorC1Ev
__ZN2v84base21RandomNumberGeneratorC2Ev
__ZN3gin12_GLOBAL__N_115GenerateEntropyEPhm
__ZN2v84base21RandomNumberGenerator9NextBytesEPvm
__ZN2v88internal15MemoryAllocatorC1EPNS0_7IsolateEmm
__ZN2v88internal7Isolate14page_allocatorEv
__ZN2v88internal15MemoryAllocator8UnmapperC2EPNS0_4HeapEPS1_
__ZN2v88internal15MemoryAllocator27InitializeCodePageAllocatorEPNS_13PageAllocatorEm
__ZN2v88internal14CommitPageSizeEv
__ZN2v84base13PageAllocator14CommitPageSizeEv
__ZN2v84base16LazyInstanceImplINS_8internal20CodeRangeAddressHintENS0_32StaticallyAllocatedInstanceTraitIS3_EENS0_21DefaultConstructTraitIS3_EENS0_23ThreadSafeInitOnceTraitENS0_18LeakyInstanceTraitIS3_EEE12InitInstanceEPv
__ZN2v88internal20CodeRangeAddressHint14GetAddressHintEm
__ZN2v84base13PageAllocator16AllocatePageSizeEv
__ZN2v88internal13VirtualMemoryC1EPNS_13PageAllocatorEmPvm
__ZN2v88internal13VirtualMemoryC2EPNS_13PageAllocatorEmPvm
__ZN2v88internal13AllocatePagesEPNS_13PageAllocatorEPvmmNS1_10PermissionE
__ZN2v84base13PageAllocator13AllocatePagesEPvmmNS_13PageAllocator10PermissionE
__ZN2v84base2OS8AllocateEPvmmNS1_16MemoryPermissionE
__ZN2v88internal6Logger10is_loggingEv
__ZN2v88internal13VirtualMemory5ResetEv
__ZN2v84base20BoundedPageAllocatorC1EPNS_13PageAllocatorEmmm
__ZN2v84base20BoundedPageAllocatorC2EPNS_13PageAllocatorEmmm
__ZN2v84base15RegionAllocatorC1Emmm
__ZN2v84base15RegionAllocatorC2Emmm
__ZN2v84base15RegionAllocator17FreeListAddRegionEPNS1_6RegionE
__ZN2v88internal13VirtualMemoryD1Ev
__ZN2v88internal20MarkCompactCollectorC1EPNS0_4HeapE
__ZN2v88internal20MarkCompactCollector15MarkingWorklistC2EPNS0_4HeapE
__ZN2v88internal11WeakObjectsC2Ev
__ZN2v88internal7SweeperC1EPNS0_4HeapEPNS0_26MajorNonAtomicMarkingStateE
__ZN2v88internal18ScavengerCollectorC1EPNS0_4HeapE
__ZN2v88internal18IncrementalMarkingC1EPNS0_4HeapEPNS0_20MarkCompactCollector15MarkingWorklistEPNS0_11WeakObjectsE
__ZN2v88internal17ConcurrentMarkingC1EPNS0_4HeapEPNS0_8WorklistINS0_10HeapObjectELi64EEES7_PNS0_11WeakObjectsEPNS4_IS5_Li16EEE
__ZN2v88internal12ReadOnlyHeap5SetUpEPNS0_7IsolateEPNS0_20ReadOnlyDeserializerE
__ZNKSt3__110__function12__alloc_funcIZN2v88internal12ReadOnlyHeap5SetUpEPNS3_7IsolateEPNS3_20ReadOnlyDeserializerEE3$_0NS_9allocatorIS9_EEFvvEE7__cloneEv
__ZNSt3__110__function16__policy_invokerIFvvEE11__call_implINS0_12__alloc_funcIZN2v88internal12ReadOnlyHeap5SetUpEPNS7_7IsolateEPNS7_20ReadOnlyDeserializerEE3$_0NS_9allocatorISD_EES2_EEEEvPKNS0_16__policy_storageE
__ZN2v88internal8MallocednwEm
__ZN2v88internal14AllocWithRetryEm
__ZN2v88internal13ReadOnlySpaceC1EPNS0_4HeapE
__ZN2v88internal8FreeList14CreateFreeListEv
__ZN2v88internal18FreeListManyCachedC2Ev
__ZN2v88internal10PagedSpaceC2EPNS0_4HeapENS0_15AllocationSpaceENS0_13ExecutabilityEPNS0_8FreeListENS0_14LocalSpaceKindE
__ZN2v88internal7Isolate21SetUpFromReadOnlyHeapEPNS0_12ReadOnlyHeapE
__ZN2v88internal4Heap21SetUpFromReadOnlyHeapEPNS0_12ReadOnlyHeapE
__ZN2v88internal20ReadOnlyDeserializer15DeserializeIntoEPNS0_7IsolateE
__ZN2v88internal12Deserializer10InitializeEPNS0_7IsolateE
__ZN2v88internal21DeserializerAllocator12ReserveSpaceEv
__ZN2v88internal4Heap12ReserveSpaceEPNSt3__16vectorINS1_5ChunkENS2_9allocatorIS4_EEEEPNS3_ImNS5_ImEEEE
__ZN2v88internal17MemoryChunkLayout30AllocatableMemoryInMemoryChunkENS0_15AllocationSpaceE
__ZN2v88internal4Heap11paged_spaceEi
__ZN2v88internal10PagedSpace20AllocateRawUnalignedEiNS0_16AllocationOriginE
__ZN2v88internal10PagedSpace30SlowRefillLinearAllocationAreaEiNS0_16AllocationOriginE
__ZN2v88internal10PagedSpace33RawSlowRefillLinearAllocationAreaEiNS0_16AllocationOriginE
__ZN2v88internal10PagedSpace38RefillLinearAllocationAreaFromFreeListEmNS0_16AllocationOriginE
__ZN2v88internal10PagedSpace24FreeLinearAllocationAreaEv
__ZN2v88internal4Heap28ShouldOptimizeForMemoryUsageEv
__ZN2v88internal4Heap22CanExpandOldGenerationEm
__ZN2v88internal4Heap49StartIncrementalMarkingIfAllocationLimitIsReachedEiNS_15GCCallbackFlagsE
__ZN2v88internal4Heap30IncrementalMarkingLimitReachedEv
__ZN2v88internal18IncrementalMarking14CanBeActivatedEv
__ZN2v88internal24FreeListManyCachedOrigin8AllocateEmPmNS0_16AllocationOriginE
__ZN2v88internal26FreeListManyCachedFastPath8AllocateEmPmNS0_16AllocationOriginE
__ZN2v88internal8FreeList19SearchForNodeInListEimPm
__ZN2v88internal12FreeListMany26SelectFreeListCategoryTypeEm
__ZN2v88internal4Heap41ShouldExpandOldGenerationOnSlowAllocationEv
__ZN2v88internal10PagedSpace6ExpandEv
__ZN2v88internal15MemoryAllocator13AllocateChunkEmmNS0_13ExecutabilityEPNS0_5SpaceE
__ZN2v88internal15MemoryAllocator21AllocateAlignedMemoryEmmmNS0_13ExecutabilityEPvPNS0_13VirtualMemoryE
__ZN2v84base2OS4FreeEPvm
__ZN2v88internal13VirtualMemory14SetPermissionsEmmNS_13PageAllocator10PermissionE
__ZN2v84base13PageAllocator14SetPermissionsEPvmNS_13PageAllocator10PermissionE
__ZN2v84base2OS14SetPermissionsEPvmNS1_16MemoryPermissionE
__ZNK2v88internal16StatsCounterBase24FindLocationInStatsTableEv
__ZN2v88internal11MemoryChunk10InitializeEPNS0_4HeapEmmmmNS0_13ExecutabilityEPNS0_5SpaceENS0_13VirtualMemoryE
__ZN2v88internal16BasicMemoryChunkC1Emmm
__ZN2v88internal10PagedSpace14InitializePageEPNS0_11MemoryChunkE
__ZN2v88internal4Page26AllocateFreeListCategoriesEv
__ZN2v88internal10PagedSpace7AddPageEPNS0_4PageE
__ZN2v84base4ListINS_8internal11MemoryChunkEE8PushBackEPS3_
__ZN2v88internal15AllocationStats22IncreaseAllocatedBytesEmPNS0_4PageE
__ZNSt3__112__hash_tableINS_17__hash_value_typeIPN2v88internal4PageEmEENS_22__unordered_map_hasherIS5_S6_NS3_11MemoryChunk6HasherELb1EEENS_21__unordered_map_equalIS5_S6_NS_8equal_toIS5_EELb1EEENS_9allocatorIS6_EEE25__emplace_unique_key_argsIS5_JRKNS_21piecewise_construct_tENS_5tupleIJRKS5_EEENSM_IJEEEEEENS_4pairINS_15__hash_iteratorIPNS_11__hash_nodeIS6_PvEEEEbEERKT_DpOT0_
__ZNSt3__112__hash_tableINS_17__hash_value_typeIPN2v88internal4PageEmEENS_22__unordered_map_hasherIS5_S6_NS3_11MemoryChunk6HasherELb1EEENS_21__unordered_map_equalIS5_S6_NS_8equal_toIS5_EELb1EEENS_9allocatorIS6_EEE6rehashEm
__ZNSt3__112__hash_tableINS_17__hash_value_typeIPN2v88internal4PageEmEENS_22__unordered_map_hasherIS5_S6_NS3_11MemoryChunk6HasherELb1EEENS_21__unordered_map_equalIS5_S6_NS_8equal_toIS5_EELb1EEENS_9allocatorIS6_EEE8__rehashEm
__ZN2v88internal5Space34IncrementExternalBackingStoreBytesENS0_24ExternalBackingStoreTypeEm
__ZN2v88internal10PagedSpace24RelinkFreeListCategoriesEPNS0_4PageE
__ZN2v88internal18FreeListManyCached11AddCategoryEPNS0_16FreeListCategoryE
__ZN2v88internal8FreeList11AddCategoryEPNS0_16FreeListCategoryE
__ZN2v88internal4Page37AvailableInFreeListFromAllocatedBytesEv
__ZN2v88internal4Heap20CreateFillerObjectAtEmiNS0_18ClearRecordedSlotsENS0_20ClearFreedMemoryModeE
__ZN2v88internal10PagedSpace13AccountedFreeEmm
__ZN2v88internal18FreeListManyCached4FreeEmmNS0_8FreeModeE
__ZN2v88internal4Page22DecreaseAllocatedBytesEm
__ZN2v88internal16FreeListCategory4FreeEmmNS0_8FreeModeEPNS0_8FreeListE
__ZN2v88internal9FreeSpace7IsValidEv
__ZN2v88internal15AllocationStats22DecreaseAllocatedBytesEmPNS0_4PageE
__ZN2v88internal4Heap28NotifyOldGenerationExpansionEv
__ZN2v88internal16FreeListCategory11SumFreeListEv
__ZN2v88internal8FreeList13TryFindNodeInEimPm
__ZN2v88internal16FreeListCategory16PickNodeFromListEmPm
__ZN2v88internal18FreeListManyCached14RemoveCategoryEPNS0_16FreeListCategoryE
__ZN2v88internal8FreeList14RemoveCategoryEPNS0_16FreeListCategoryE
__ZN2v88internal19SpaceWithLinearArea12ComputeLimitEmmm
__ZN2v88internal10PagedSpace24SupportsInlineAllocationEv
__ZN2v88internal10PagedSpace23SetLinearAllocationAreaEmm
__ZN2v88internal19SpaceWithLinearArea20InlineAllocationStepEmmmm
__ZN2v88internal13ThreadManager21FirstThreadStateInUseEv
__ZNK2v88internal12ReadOnlyHeap37read_only_object_cache_is_initializedEv
__ZN2v88internal20PerThreadAssertScopeILNS0_19PerThreadAssertTypeE0ELb0EEC2Ev
__ZN2v88internal18PointerWithPayloadINS0_19PerThreadAssertDataEbLi1EE6updateEPS2_b
__ZN2v88internal13ReadOnlyRoots7IterateEPNS0_11RootVisitorE
__ZN2v88internal12Deserializer17VisitRootPointersENS0_4RootEPKcNS0_14FullObjectSlotES5_
__ZN2v88internal12Deserializer8ReadDataINS0_19FullMaybeObjectSlotEEEbT_S4_NS0_13SnapshotSpaceEm
__ZN2v88internal12Deserializer12ReadDataCaseINS0_19FullMaybeObjectSlotELNS0_22SerializerDeserializer8BytecodeE0ELNS0_13SnapshotSpaceE6EEET_PNS0_7IsolateES7_mhb
__ZN2v88internal12Deserializer10ReadObjectENS0_13SnapshotSpaceE
__ZN2v88internal21DeserializerAllocator8AllocateENS0_13SnapshotSpaceEi
__ZN2v88internal21DeserializerAllocator11AllocateRawENS0_13SnapshotSpaceEi
__ZN2v88internal12Deserializer12ReadDataCaseINS0_19FullMaybeObjectSlotELNS0_22SerializerDeserializer8BytecodeE8ELNS0_13SnapshotSpaceE6EEET_PNS0_7IsolateES7_mhb
__ZN2v88internal12Deserializer23GetBackReferencedObjectENS0_13SnapshotSpaceE
__ZN2v88internal21DeserializerAllocator9GetObjectENS0_13SnapshotSpaceEjj
__ZN2v88internal20PerThreadAssertScopeILNS0_19PerThreadAssertTypeE0ELb1EE9IsAllowedEv
__ZN2v88internal12Deserializer18ReadRepeatedObjectINS0_19FullMaybeObjectSlotEEET_S4_i
__ZN2v88internal12Deserializer20PostProcessNewObjectENS0_10HeapObjectENS0_13SnapshotSpaceE
__ZNK2v88internal10HeapObject14NeedsRehashingEv
__ZNK2v88internal10HeapObject16IsExternalStringEv
__ZN2v88internal4Heap14GetFillToAlignEmNS0_19AllocationAlignmentE
__ZN2v88internal12Deserializer12ReadDataCaseINS0_19FullMaybeObjectSlotELNS0_22SerializerDeserializer8BytecodeE17ELNS0_13SnapshotSpaceE0EEET_PNS0_7IsolateES7_mhb
__ZN2v88internal12Deserializer11SynchronizeENS0_22VisitorSynchronization7SyncTagE
__ZN2v88internal13ReadOnlySpace35RepairFreeListsAfterDeserializationEv
__ZN2v88internal12ReadOnlyHeap25ExtendReadOnlyObjectCacheEv
__ZNK2v88internal13ReadOnlyRoots9CheckTypeENS0_9RootIndexE
__ZN2v88internal21DeserializerAllocator15MoveToNextChunkENS0_13SnapshotSpaceE
__ZN2v88internal12Deserializer26DeserializeDeferredObjectsEv
__ZN2v88internal22SerializerDeserializer13CanBeDeferredENS0_10HeapObjectE
__ZN2v88internal20PerThreadAssertScopeILNS0_19PerThreadAssertTypeE0ELb0EED2Ev
__ZN2v88internal20PerThreadAssertScopeILNS0_19PerThreadAssertTypeE0ELb0EE7ReleaseEv
__ZN2v88internal4Heap18InitializeHashSeedEv
__ZN2v88internal7Isolate23random_number_generatorEv
__ZN2v84base21RandomNumberGenerator9NextInt64Ev
__ZN2v88internal12Deserializer6RehashEv
__ZN2v88internal10HeapObject16RehashBasedOnMapENS0_13ReadOnlyRootsE
__ZN2v88internal12ReadOnlyHeap8ContainsENS0_10HeapObjectE
__ZN2v88internal6String17ComputeAndSetHashEv
__ZNK2v88internal10HeapObject12IsConsStringEv
__ZNK2v88internal10HeapObject12IsThinStringEv
__ZN2v88internal12StringHasher20HashSequentialStringIhEEjPKT_iy
__ZN2v88internal9HashTableINS0_16NumberDictionaryENS0_21NumberDictionaryShapeEE6RehashENS0_13ReadOnlyRootsE
__ZN2v88internal27Heap_PageFlagsAreConsistentENS0_10HeapObjectE
__ZN2v88internal4Heap22PageFlagsAreConsistentENS0_10HeapObjectE
__ZN2v88internal9HashTableINS0_16NumberDictionaryENS0_21NumberDictionaryShapeEE5KeyAtEPNS0_7IsolateENS0_13InternalIndexE
__ZN2v88internal10FixedArray3setEiNS0_3SmiE
__ZN2v88internal9HashTableINS0_14NameDictionaryENS0_19NameDictionaryShapeEE6RehashENS0_13ReadOnlyRootsE
__ZN2v88internal9HashTableINS0_14NameDictionaryENS0_19NameDictionaryShapeEE5KeyAtENS0_13InternalIndexE
__ZN2v88internal12StringHasher18MakeArrayIndexHashEji
__ZN2v88internal13ReadOnlySpace4SealENS1_8SealModeE
__ZN2v88internal15MemoryAllocator16UnregisterMemoryEPNS0_11MemoryChunkE
__ZN2v88internal11MemoryChunk44ReleaseAllocatedMemoryNeededForWritableChunkEv
__ZN2v84base5MutexD1Ev
__ZN2v84base5MutexD2Ev
__ZN2v88internal14SetPermissionsEPNS_13PageAllocatorEPvmNS1_10PermissionE
__ZNSt3__110__function8__policy15__large_destroyINS0_12__alloc_funcIZN2v88internal12ReadOnlyHeap5SetUpEPNS5_7IsolateEPNS5_20ReadOnlyDeserializerEE3$_0NS_9allocatorISB_EEFvvEEEEEvPv
__ZN2v88internal4Heap11SetUpSpacesEv
__ZN2v88internal8NewSpaceC1EPNS0_4HeapEPNS_13PageAllocatorEmm
__ZN2v88internal8NewSpaceC2EPNS0_4HeapEPNS_13PageAllocatorEmm
__ZN2v88internal9SemiSpace6CommitEv
__ZN2v88internal15MemoryAllocator12AllocatePageILNS1_14AllocationModeE1ENS0_9SemiSpaceEEEPNS0_4PageEmPT0_NS0_13ExecutabilityE
__ZN2v88internal15MemoryAllocator18AllocatePagePooledINS0_9SemiSpaceEEEPNS0_11MemoryChunkEPT_
__ZN2v88internal15MemoryAllocator8Unmapper27TryGetPooledMemoryChunkSafeEv
__ZN2v88internal9SemiSpace14InitializePageEPNS0_11MemoryChunkE
__ZN2v88internal8NewSpace25ResetLinearAllocationAreaEv
__ZN2v88internal19SpaceWithLinearArea29StartNextInlineAllocationStepEv
__ZN2v88internal17ConcurrentMarking20ClearMemoryChunkDataEPNS0_11MemoryChunkE
__ZN2v88internal17MemoryChunkLayout27AllocatableMemoryInCodePageEv
__ZN2v88internal17MemoryChunkLayout27ObjectStartOffsetInCodePageEv
__ZN2v88internal11FreeListMapC1Ev
__ZN2v88internal19OldLargeObjectSpaceC1EPNS0_4HeapE
__ZN2v88internal17MemoryChunkLayout27AllocatableMemoryInDataPageEv
__ZN2v88internal19NewLargeObjectSpaceC1EPNS0_4HeapEm
__ZN2v88internal20CodeLargeObjectSpaceC1EPNS0_4HeapE
__ZNSt3__112__hash_tableINS_17__hash_value_typeImPN2v88internal9LargePageEEENS_22__unordered_map_hasherImS6_NS_4hashImEELb1EEENS_21__unordered_map_equalImS6_NS_8equal_toImEELb1EEENS_9allocatorIS6_EEE8__rehashEm
__ZN2v88internal8GCTracerC1EPNS0_4HeapE
__ZN2v88internal25MinorMarkCompactCollectorC1EPNS0_4HeapE
__ZN2v88internal25MinorMarkCompactCollectorC2EPNS0_4HeapE
__ZN2v88internal17MemoryMeasurementC1EPNS0_7IsolateE
__ZN2v88internal13MemoryReducerC1EPNS0_4HeapE
__ZN2v88internal20MarkCompactCollector5SetUpEv
__ZN2v88internal25MinorMarkCompactCollector5SetUpEv
__ZN2v88internal19SpaceWithLinearArea21AddAllocationObserverEPNS0_18AllocationObserverE
__ZN2v88internal5Space21AddAllocationObserverEPNS0_18AllocationObserverE
__ZN2v88internal8NewSpace27UpdateInlineAllocationLimitEm
__ZN2v88internal8NewSpace24SupportsInlineAllocationEv
__ZN2v88internal5Space30RoundSizeDownToObjectAlignmentEi
__ZN2v88internal22ExternalReferenceTable4InitEPNS0_7IsolateE
__ZN2v88internal22ExternalReferenceTable13AddReferencesEPNS0_7IsolateEPi
__ZN2v88internal17ExternalReference17abort_with_reasonEv
__ZN2v88internal17ExternalReference30address_of_double_abs_constantEv
__ZN2v88internal17ExternalReference30address_of_double_neg_constantEv
__ZN2v88internal17ExternalReference29address_of_float_abs_constantEv
__ZN2v88internal17ExternalReference29address_of_float_neg_constantEv
__ZN2v88internal17ExternalReference18address_of_min_intEv
__ZN2v88internal17ExternalReference42address_of_mock_arraybuffer_allocator_flagEv
__ZN2v88internal17ExternalReference19address_of_one_halfEv
__ZN2v88internal17ExternalReference29address_of_runtime_stats_flagEv
__ZN2v88internal17ExternalReference23address_of_the_hole_nanEv
__ZN2v88internal17ExternalReference22address_of_uint32_biasEv
__ZN2v88internal17ExternalReference27bytecode_size_table_addressEv
__ZN2v88internal17ExternalReference17check_object_typeEv
__ZN2v88internal17ExternalReference20compute_integer_hashEv
__ZN2v88internal17ExternalReference30compute_output_frames_functionEv
__ZN2v88internal17ExternalReference48copy_fast_number_jsarray_elements_to_typed_arrayEv
__ZN2v88internal17ExternalReference31copy_typed_array_elements_sliceEv
__ZN2v88internal17ExternalReference40copy_typed_array_elements_to_typed_arrayEv
__ZN2v88internal17ExternalReference12cpu_featuresEv
__ZN2v88internal17ExternalReference30delete_handle_scope_extensionsEv
__ZN2v88internal17ExternalReference36ephemeron_key_write_barrier_functionEv
__ZN2v88internal17ExternalReference25f64_acos_wrapper_functionEv
__ZN2v88internal17ExternalReference25f64_asin_wrapper_functionEv
__ZN2v88internal17ExternalReference24f64_mod_wrapper_functionEv
__ZN2v88internal17ExternalReference23get_date_field_functionEv
__ZN2v88internal17ExternalReference22get_or_create_hash_rawEv
__ZN2v88internal17ExternalReference21ieee754_acos_functionEv
__ZN2v88internal17ExternalReference22ieee754_acosh_functionEv
__ZN2v88internal17ExternalReference21ieee754_asin_functionEv
__ZN2v88internal17ExternalReference22ieee754_asinh_functionEv
__ZN2v88internal17ExternalReference21ieee754_atan_functionEv
__ZN2v88internal17ExternalReference22ieee754_atan2_functionEv
__ZN2v88internal17ExternalReference22ieee754_atanh_functionEv
__ZN2v88internal17ExternalReference21ieee754_cbrt_functionEv
__ZN2v88internal17ExternalReference20ieee754_cos_functionEv
__ZN2v88internal17ExternalReference21ieee754_cosh_functionEv
__ZN2v88internal17ExternalReference20ieee754_exp_functionEv
__ZN2v88internal17ExternalReference22ieee754_expm1_functionEv
__ZN2v88internal17ExternalReference20ieee754_log_functionEv
__ZN2v88internal17ExternalReference22ieee754_log10_functionEv
__ZN2v88internal17ExternalReference22ieee754_log1p_functionEv
__ZN2v88internal17ExternalReference21ieee754_log2_functionEv
__ZN2v88internal17ExternalReference20ieee754_pow_functionEv
__ZN2v88internal17ExternalReference20ieee754_sin_functionEv
__ZN2v88internal17ExternalReference21ieee754_sinh_functionEv
__ZN2v88internal17ExternalReference20ieee754_tan_functionEv
__ZN2v88internal17ExternalReference21ieee754_tanh_functionEv
__ZN2v88internal17ExternalReference41incremental_marking_record_write_functionEv
__ZN2v88internal17ExternalReference30insert_remembered_set_functionEv
__ZN2v88internal17ExternalReference36invalidate_prototype_chains_functionEv
__ZN2v88internal17ExternalReference31invoke_accessor_getter_callbackEv
__ZN2v88internal17ExternalReference24invoke_function_callbackEv
__ZN2v88internal17ExternalReference46jsarray_array_join_concat_to_sequential_stringEv
__ZN2v88internal17ExternalReference31jsreceiver_create_identity_hashEv
__ZN2v88internal17ExternalReference20libc_memchr_functionEv
__ZN2v88internal17ExternalReference20libc_memcpy_functionEv
__ZN2v88internal17ExternalReference21libc_memmove_functionEv
__ZN2v88internal17ExternalReference20libc_memset_functionEv
__ZN2v88internal17ExternalReference25mod_two_doubles_operationEv
__ZN2v88internal17ExternalReference54mutable_big_int_absolute_add_and_canonicalize_functionEv
__ZN2v88internal17ExternalReference41mutable_big_int_absolute_compare_functionEv
__ZN2v88internal17ExternalReference54mutable_big_int_absolute_sub_and_canonicalize_functionEv
__ZN2v88internal17ExternalReference24new_deoptimizer_functionEv
__ZN2v88internal17ExternalReference35object_to_array_index_slow_functionEv
__ZN2v88internal17ExternalReference26orderedhashmap_gethash_rawEv
__ZN2v88internal17ExternalReference15printf_functionEv
__ZN2v88internal17ExternalReference18refill_math_randomEv
__ZN2v88internal17ExternalReference25search_string_raw_one_oneEv
__ZN2v88internal17ExternalReference25search_string_raw_one_twoEv
__ZN2v88internal17ExternalReference25search_string_raw_two_oneEv
__ZN2v88internal17ExternalReference25search_string_raw_two_twoEv
__ZN2v88internal17ExternalReference34smi_lexicographic_compare_functionEv
__ZN2v88internal17ExternalReference31try_internalize_string_functionEv
__ZN2v88internal17ExternalReference35wasm_call_trap_callback_for_testingEv
__ZN2v88internal17ExternalReference13wasm_f32_ceilEv
__ZN2v88internal17ExternalReference14wasm_f32_floorEv
__ZN2v88internal17ExternalReference20wasm_f32_nearest_intEv
__ZN2v88internal17ExternalReference14wasm_f32_truncEv
__ZN2v88internal17ExternalReference13wasm_f64_ceilEv
__ZN2v88internal17ExternalReference14wasm_f64_floorEv
__ZN2v88internal17ExternalReference20wasm_f64_nearest_intEv
__ZN2v88internal17ExternalReference14wasm_f64_truncEv
__ZN2v88internal17ExternalReference21wasm_float32_to_int64Ev
__ZN2v88internal17ExternalReference22wasm_float32_to_uint64Ev
__ZN2v88internal17ExternalReference16wasm_float64_powEv
__ZN2v88internal17ExternalReference21wasm_float64_to_int64Ev
__ZN2v88internal17ExternalReference22wasm_float64_to_uint64Ev
__ZN2v88internal17ExternalReference14wasm_int64_divEv
__ZN2v88internal17ExternalReference14wasm_int64_modEv
__ZN2v88internal17ExternalReference21wasm_int64_to_float32Ev
__ZN2v88internal17ExternalReference21wasm_int64_to_float64Ev
__ZN2v88internal17ExternalReference15wasm_uint64_divEv
__ZN2v88internal17ExternalReference15wasm_uint64_modEv
__ZN2v88internal17ExternalReference22wasm_uint64_to_float32Ev
__ZN2v88internal17ExternalReference22wasm_uint64_to_float64Ev
__ZN2v88internal17ExternalReference15wasm_word32_ctzEv
__ZN2v88internal17ExternalReference18wasm_word32_popcntEv
__ZN2v88internal17ExternalReference15wasm_word32_rolEv
__ZN2v88internal17ExternalReference15wasm_word32_rorEv
__ZN2v88internal17ExternalReference15wasm_word64_ctzEv
__ZN2v88internal17ExternalReference18wasm_word64_popcntEv
__ZN2v88internal17ExternalReference16wasm_memory_copyEv
__ZN2v88internal17ExternalReference16wasm_memory_fillEv
__ZN2v88internal17ExternalReference31call_enqueue_microtask_functionEv
__ZN2v88internal17ExternalReference27call_enter_context_functionEv
__ZN2v88internal17ExternalReference25atomic_pair_load_functionEv
__ZN2v88internal17ExternalReference26atomic_pair_store_functionEv
__ZN2v88internal17ExternalReference24atomic_pair_add_functionEv
__ZN2v88internal17ExternalReference24atomic_pair_sub_functionEv
__ZN2v88internal17ExternalReference24atomic_pair_and_functionEv
__ZN2v88internal17ExternalReference23atomic_pair_or_functionEv
__ZN2v88internal17ExternalReference24atomic_pair_xor_functionEv
__ZN2v88internal17ExternalReference29atomic_pair_exchange_functionEv
__ZN2v88internal17ExternalReference37atomic_pair_compare_exchange_functionEv
__ZN2v88internal17ExternalReference30intl_convert_one_byte_to_lowerEv
__ZN2v88internal17ExternalReference26intl_to_latin1_lower_tableEv
__ZN2v88internal4Intl18ToLatin1LowerTableEv
__ZN2v88internal17ExternalReference15isolate_addressEPNS0_7IsolateE
__ZN2v88internal17ExternalReference16builtins_addressEPNS0_7IsolateE
__ZN2v88internal4Heap15builtin_addressEi
__ZN2v88internal17ExternalReference32handle_scope_implementer_addressEPNS0_7IsolateE
__ZN2v88internal17ExternalReference57address_of_interpreter_entry_trampoline_instruction_startEPNS0_7IsolateE
__ZN2v88internal17ExternalReference29interpreter_dispatch_countersEPNS0_7IsolateE
__ZN2v88internal17ExternalReference34interpreter_dispatch_table_addressEPNS0_7IsolateE
__ZN2v88internal17ExternalReference16date_cache_stampEPNS0_7IsolateE
__ZN2v88internal17ExternalReference18stress_deopt_countEPNS0_7IsolateE
__ZN2v88internal17ExternalReference15force_slow_pathEPNS0_7IsolateE
__ZN2v88internal17ExternalReference12isolate_rootEPNS0_7IsolateE
__ZN2v88internal17ExternalReference29allocation_sites_list_addressEPNS0_7IsolateE
__ZN2v88internal17ExternalReference18address_of_jslimitEPNS0_7IsolateE
__ZN2v88internal17ExternalReference23address_of_real_jslimitEPNS0_7IsolateE
__ZN2v88internal17ExternalReference28heap_is_marking_flag_addressEPNS0_7IsolateE
__ZN2v88internal17ExternalReference32new_space_allocation_top_addressEPNS0_7IsolateE
__ZN2v88internal17ExternalReference34new_space_allocation_limit_addressEPNS0_7IsolateE
__ZN2v88internal17ExternalReference32old_space_allocation_top_addressEPNS0_7IsolateE
__ZN2v88internal17ExternalReference34old_space_allocation_limit_addressEPNS0_7IsolateE
__ZN2v88internal17ExternalReference26handle_scope_level_addressEPNS0_7IsolateE
__ZN2v88internal11HandleScope21current_level_addressEPNS0_7IsolateE
__ZN2v88internal17ExternalReference25handle_scope_next_addressEPNS0_7IsolateE
__ZN2v88internal11HandleScope20current_next_addressEPNS0_7IsolateE
__ZN2v88internal17ExternalReference26handle_scope_limit_addressEPNS0_7IsolateE
__ZN2v88internal11HandleScope21current_limit_addressEPNS0_7IsolateE
__ZN2v88internal17ExternalReference27scheduled_exception_addressEPNS0_7IsolateE
__ZN2v88internal17ExternalReference30address_of_pending_message_objEPNS0_7IsolateE
__ZN2v88internal17ExternalReference20promise_hook_addressEPNS0_7IsolateE
__ZN2v88internal17ExternalReference28async_event_delegate_addressEPNS0_7IsolateE
__ZN2v88internal17ExternalReference44promise_hook_or_async_event_delegate_addressEPNS0_7IsolateE
__ZN2v88internal17ExternalReference63promise_hook_or_debug_is_active_or_async_event_delegate_addressEPNS0_7IsolateE
__ZN2v88internal17ExternalReference28debug_execution_mode_addressEPNS0_7IsolateE
__ZN2v88internal17ExternalReference23debug_is_active_addressEPNS0_7IsolateE
__ZN2v88internal17ExternalReference35debug_hook_on_function_call_addressEPNS0_7IsolateE
__ZN2v88internal17ExternalReference30runtime_function_table_addressEPNS0_7IsolateE
__ZN2v88internal7Runtime20RuntimeFunctionTableEPNS0_7IsolateE
__ZN2v88internal17ExternalReference20is_profiling_addressEPNS0_7IsolateE
__ZN2v88internal17ExternalReference33debug_suspended_generator_addressEPNS0_7IsolateE
__ZN2v88internal17ExternalReference24debug_restart_fp_addressEPNS0_7IsolateE
__ZN2v88internal17ExternalReference29fast_c_call_caller_fp_addressEPNS0_7IsolateE
__ZN2v88internal17ExternalReference29fast_c_call_caller_pc_addressEPNS0_7IsolateE
__ZN2v88internal17ExternalReference25stack_is_iterable_addressEPNS0_7IsolateE
__ZN2v88internal17ExternalReference37address_of_regexp_stack_limit_addressEPNS0_7IsolateE
__ZN2v88internal17ExternalReference42address_of_regexp_stack_memory_top_addressEPNS0_7IsolateE
__ZN2v88internal17ExternalReference32address_of_static_offsets_vectorEPNS0_7IsolateE
__ZN2v88internal17ExternalReference32re_case_insensitive_compare_uc16EPNS0_7IsolateE
__ZN2v88internal17ExternalReference26re_check_stack_guard_stateEPNS0_7IsolateE
__ZN2v88internal17ExternalReference13re_grow_stackEPNS0_7IsolateE
__ZN2v88internal17ExternalReference25re_match_for_call_from_jsEPNS0_7IsolateE
__ZN2v88internal17ExternalReference21re_word_character_mapEPNS0_7IsolateE
__ZN2v88internal22ExternalReferenceTable11AddBuiltinsEPi
__ZN2v88internal17ExternalReference6CreateEm
__ZN2v88internal22ExternalReferenceTable19AddRuntimeFunctionsEPi
__ZN2v88internal17ExternalReference6CreateENS0_7Runtime10FunctionIdE
__ZN2v88internal7Runtime13FunctionForIdENS1_10FunctionIdE
__ZN2v88internal22ExternalReferenceTable19AddIsolateAddressesEPNS0_7IsolateEPi
__ZN2v88internal7Isolate19get_address_from_idENS0_16IsolateAddressIdE
__ZN2v88internal22ExternalReferenceTable12AddAccessorsEPi
__ZN2v88internal22ExternalReferenceTable12AddStubCacheEPNS0_7IsolateEPi
__ZN2v88internal22ExternalReferenceTable26AddNativeCodeStatsCountersEPNS0_7IsolateEPi
__ZN2v88internal4wasm10WasmEngine13GetWasmEngineEv
__ZN2v88internal4wasm10WasmEngine10AddIsolateEPNS0_7IsolateE
__ZNKSt3__112__hash_tableINS_17__hash_value_typeIPN2v88internal7IsolateENS_10unique_ptrINS3_4wasm10WasmEngine11IsolateInfoENS_14default_deleteIS9_EEEEEENS_22__unordered_map_hasherIS5_SD_NS_4hashIS5_EELb1EEENS_21__unordered_map_equalIS5_SD_NS_8equal_toIS5_EELb1EEENS_9allocatorISD_EEE4findIS5_EENS_21__hash_const_iteratorIPNS_11__hash_nodeISD_PvEEEERKT_
__ZN2v88internal4wasm10WasmEngine11IsolateInfoC2EPNS0_7IsolateE
__ZN2v88internal4wasm8WasmCode14ShouldBeLoggedEPNS0_7IsolateE
__ZN2v88internal6Logger27is_listening_to_code_eventsEv
__ZNSt3__112__hash_tableINS_17__hash_value_typeIPN2v88internal7IsolateENS_10unique_ptrINS3_4wasm10WasmEngine11IsolateInfoENS_14default_deleteIS9_EEEEEENS_22__unordered_map_hasherIS5_SD_NS_4hashIS5_EELb1EEENS_21__unordered_map_equalIS5_SD_NS_8equal_toIS5_EELb1EEENS_9allocatorISD_EEE25__emplace_unique_key_argsIS5_JRS5_SC_EEENS_4pairINS_15__hash_iteratorIPNS_11__hash_nodeISD_PvEEEEbEERKT_DpOT0_
__ZNSt3__112__hash_tableINS_17__hash_value_typeIPN2v88internal7IsolateENS_10unique_ptrINS3_4wasm10WasmEngine11IsolateInfoENS_14default_deleteIS9_EEEEEENS_22__unordered_map_hasherIS5_SD_NS_4hashIS5_EELb1EEENS_21__unordered_map_equalIS5_SD_NS_8equal_toIS5_EELb1EEENS_9allocatorISD_EEE6rehashEm
__ZNSt3__112__hash_tableINS_17__hash_value_typeIPN2v88internal7IsolateENS_10unique_ptrINS3_4wasm10WasmEngine11IsolateInfoENS_14default_deleteIS9_EEEEEENS_22__unordered_map_hasherIS5_SD_NS_4hashIS5_EELb1EEENS_21__unordered_map_equalIS5_SD_NS_8equal_toIS5_EELb1EEENS_9allocatorISD_EEE8__rehashEm
__ZN2v88internal4Heap21AddGCEpilogueCallbackEPFvPNS_7IsolateENS_6GCTypeENS_15GCCallbackFlagsEPvES4_S6_
__ZN2v88internal15DeoptimizerDataC1EPNS0_4HeapE
__ZN2v88internal4Heap19RegisterStrongRootsENS0_14FullObjectSlotES2_
__ZN2v88internal20SetupIsolateDelegate9SetupHeapEPNS0_4HeapE
__ZN2v88internal7Isolate21InitializeThreadLocalEv
__ZN2v88internal14ThreadLocalTop10InitializeEPNS0_7IsolateE
__ZN2v88internal12trap_handler33GetThreadInWasmThreadLocalAddressEv
__ZN2v88internal7Isolate23clear_pending_exceptionEv
__ZN2v88internal7Isolate25clear_scheduled_exceptionEv
__ZN2v88internal22TracingCpuProfilerImplC1EPNS0_7IsolateE
__ZN2v88internal12Bootstrapper10InitializeEb
__ZN2v88internal20SetupIsolateDelegate13SetupBuiltinsEPNS0_7IsolateE
__ZN2v88internal22init_memcopy_functionsEv
__ZN2v88internal27OptimizingCompileDispatcherC2EPNS0_7IsolateE
__ZN2v88internal15RuntimeProfilerC1EPNS0_7IsolateE
__ZN2v88internal10PagedSpace18SetReadAndWritableEv
__ZN2v88internal19StartupDeserializer15DeserializeIntoEPNS0_7IsolateE
__ZN2v88internal16LargeObjectSpace13SizeOfObjectsEv
__ZN2v84base20BoundedPageAllocator14CommitPageSizeEv
__ZN2v84base20BoundedPageAllocator16AllocatePageSizeEv
__ZN2v84base20BoundedPageAllocator13AllocatePagesEPvmmNS_13PageAllocator10PermissionE
__ZN2v84base15RegionAllocator14AllocateRegionEm
__ZN2v84base15RegionAllocator5SplitEPNS1_6RegionEm
__ZN2v84base15RegionAllocator20FreeListRemoveRegionEPNS1_6RegionE
__ZN2v84base2OS18DiscardSystemPagesEPvm
__ZN2v88internal15MemoryAllocator22CommitExecutableMemoryEPNS0_13VirtualMemoryEmmm
__ZN2v84base20BoundedPageAllocator14SetPermissionsEPvmNS_13PageAllocator10PermissionE
__ZN2v88internal15MemoryAllocator29RegisterExecutableMemoryChunkEPNS0_11MemoryChunkE
__ZNSt3__112__hash_tableIPN2v88internal11MemoryChunkENS_4hashIS4_EENS_8equal_toIS4_EENS_9allocatorIS4_EEE4findIS4_EENS_15__hash_iteratorIPNS_11__hash_nodeIS4_PvEEEERKT_
__ZNSt3__112__hash_tableIPN2v88internal11MemoryChunkENS_4hashIS4_EENS_8equal_toIS4_EENS_9allocatorIS4_EEE25__emplace_unique_key_argsIS4_JRKS4_EEENS_4pairINS_15__hash_iteratorIPNS_11__hash_nodeIS4_PvEEEEbEERKT_DpOT0_
__ZNSt3__112__hash_tableIPN2v88internal11MemoryChunkENS_4hashIS4_EENS_8equal_toIS4_EENS_9allocatorIS4_EEE6rehashEm
__ZNSt3__112__hash_tableIPN2v88internal11MemoryChunkENS_4hashIS4_EENS_8equal_toIS4_EENS_9allocatorIS4_EEE8__rehashEm
__ZN2v88internal11FreeListMap8AllocateEmPmNS0_16AllocationOriginE
__ZN2v88internal8FreeList4FreeEmmNS0_8FreeModeE
__ZN2v88internal11FreeListMap26SelectFreeListCategoryTypeEm
__ZN2v88internal4Heap15IterateSmiRootsEPNS0_11RootVisitorE
__ZN2v88internal4Heap18IterateStrongRootsEPNS0_11RootVisitorENS0_9VisitModeE
__ZN2v88internal12Deserializer15LogScriptEventsENS0_6ScriptE
__ZN2v88internal7tracing16TraceEventHelper20GetTracingControllerEv
__ZN2v88internal12Deserializer12ReadDataCaseINS0_19FullMaybeObjectSlotELNS0_22SerializerDeserializer8BytecodeE19ELNS0_13SnapshotSpaceE0EEET_PNS0_7IsolateES7_mhb
__ZNK2v88internal12ReadOnlyHeap23cached_read_only_objectEm
__ZN2v88internal18CodeObjectRegistry32RegisterNewlyAllocatedCodeObjectEm
__ZN2v88internal12Deserializer18ReadCodeObjectBodyENS0_13SnapshotSpaceEm
__ZN2v88internal13RelocIteratorC1ENS0_4CodeEi
__ZN2v88internal13RelocIteratorC1ENS0_4CodeENS0_9ByteArrayEi
__ZNK2v88internal4Code17has_constant_poolEv
__ZNK2v88internal4Code18constant_pool_sizeEv
__ZN2v88internal13RelocIteratorC2ENS0_4CodeEmmPKhS4_i
__ZN2v88internal13RelocIterator4nextEv
__ZN2v88internal9RelocInfo5VisitINS0_12DeserializerEEEvPT_
__ZN2v88internal9RelocInfo18set_target_addressEmNS0_16WriteBarrierModeENS0_15ICacheFlushModeE
__ZN2v88internal21FlushInstructionCacheEPvm
__ZN2v88internal11CpuFeatures11FlushICacheEPvm
__ZN2v88internal12Bootstrapper7IterateEPNS0_11RootVisitorE
__ZN2v88internal11RootVisitor16VisitRootPointerENS0_4RootEPKcNS0_14FullObjectSlotE
__ZN2v88internal7Isolate7IterateEPNS0_11RootVisitorE
__ZN2v88internal7Isolate7IterateEPNS0_11RootVisitorEPNS0_14ThreadLocalTopE
__ZN2v88internal4wasm16WasmCodeRefScopeC1Ev
__ZN2v88internal18StackFrameIteratorC1EPNS0_7IsolateEPNS0_14ThreadLocalTopE
__ZN2v88internal18StackFrameIteratorC2EPNS0_7IsolateEPNS0_14ThreadLocalTopE
__ZN2v88internal22StackFrameIteratorBaseC2EPNS0_7IsolateEb
__ZN2v88internal9ExitFrame23GetStateForFramePointerEmPNS0_10StackFrame5StateE
__ZN2v88internal4wasm16WasmCodeRefScopeD1Ev
__ZN2v88internal4wasm16WasmCodeRefScopeD2Ev
__ZNSt3__16vectorIPN2v88internal4wasm8WasmCodeENS_9allocatorIS5_EEE6assignINS_21__hash_const_iteratorIPNS_11__hash_nodeIS5_PvEEEEEENS_9enable_ifIXaasr21__is_forward_iteratorIT_EE5valuesr16is_constructibleIS5_NS_15iterator_traitsISH_E9referenceEEE5valueEvE4typeESH_SH_
__ZN2v88internal4wasm8WasmCode17DecrementRefCountENS0_6VectorIKPS2_EE
__ZN2v88internal11Relocatable7IterateEPNS0_7IsolateEPNS0_11RootVisitorE
__ZN2v88internal5Debug7IterateEPNS0_11RootVisitorE
__ZN2v88internal16CompilationCache7IterateEPNS0_11RootVisitorE
__ZN2v88internal22HandleScopeImplementer7IterateEPNS0_11RootVisitorE
__ZN2v88internal22HandleScopeImplementer11IterateThisEPNS0_11RootVisitorE
__ZN2v88internal7Isolate22IterateDeferredHandlesEPNS0_11RootVisitorE
__ZN2v88internal8Builtins4nameEi
__ZN2v88internal12Deserializer18VisitOffHeapTargetENS0_4CodeEPNS0_9RelocInfoE
__ZNK2v88internal7Isolate13embedded_blobEv
__ZNK2v88internal12EmbeddedData25InstructionStartOfBuiltinEi
__ZN2v88internal9RelocInfo29OffHeapTargetIsCodedSpeciallyEv
__ZN2v88internal13ThreadManager7IterateEPNS0_11RootVisitorE
__ZN2v88internal14MicrotaskQueue17IterateMicrotasksEPNS0_11RootVisitorE
__ZN2v88internal22SerializerDeserializer7IterateEPNS0_7IsolateEPNS0_11RootVisitorE
__ZN2v88internal4Heap16IterateWeakRootsEPNS0_11RootVisitorENS0_9VisitModeE
__ZN2v88internal22SerializerDeserializer35RestoreExternalReferenceRedirectorsERKNSt3__16vectorINS0_12AccessorInfoENS2_9allocatorIS4_EEEE
__ZN2v88internal22SerializerDeserializer35RestoreExternalReferenceRedirectorsERKNSt3__16vectorINS0_15CallHandlerInfoENS2_9allocatorIS4_EEEE
__ZN2v88internal9HashTableINS0_14NameDictionaryENS0_19NameDictionaryShapeEE4SwapENS0_13InternalIndexES5_NS0_16WriteBarrierModeE
__ZN2v88internal10FixedArray3setEiNS0_6ObjectENS0_16WriteBarrierModeE
__ZN2v88internal14MarkingBarrierENS0_10HeapObjectENS0_14FullObjectSlotENS0_6ObjectE
__ZN2v88internal19GenerationalBarrierENS0_10HeapObjectENS0_14FullObjectSlotENS0_6ObjectE
__ZN2v88internal9HashTableINS0_11StringTableENS0_16StringTableShapeEE6RehashENS0_13ReadOnlyRootsE
__ZN2v88internal9HashTableINS0_11StringTableENS0_16StringTableShapeEE5KeyAtEPNS0_7IsolateENS0_13InternalIndexE
__ZN2v88internal9HashTableINS0_11StringTableENS0_16StringTableShapeEE4SwapENS0_13InternalIndexES5_NS0_16WriteBarrierModeE
__ZN2v88internal9StubCache10InitializeEv
__ZN2v88internal9StubCache5ClearEv
__ZN2v88internal8Builtins7builtinEi
__ZN2v88internal4Heap7builtinEi
__ZN2v88internal11interpreter11Interpreter10InitializeEv
__ZN2v88internal8Builtins14builtin_handleEi
__ZNK2v88internal4Code23OffHeapInstructionStartEv
__ZN2v88internal11interpreter11Interpreter15ForEachBytecodeERKNSt3__18functionIFvNS1_8BytecodeENS1_12OperandScaleEEEE
__ZNSt3__110__function16__policy_invokerIFvN2v88internal11interpreter8BytecodeENS4_12OperandScaleEEE11__call_implINS0_12__alloc_funcIZNS4_11Interpreter10InitializeEvE3$_0NS_9allocatorISC_EES7_EEEEvPKNS0_16__policy_storageES5_S6_
__ZN2v88internal11interpreter9Bytecodes18BytecodeHasHandlerENS1_8BytecodeENS1_12OperandScaleE
__ZN2v88internal11interpreter9Bytecodes8ToStringENS1_8BytecodeENS1_12OperandScaleEPKc
__ZN2v88internal11interpreter9Bytecodes8ToStringENS1_8BytecodeE
__ZN2v88internal11interpreter11Interpreter18SetBytecodeHandlerENS1_8BytecodeENS1_12OperandScaleENS0_4CodeE
__ZN2v88internal11interpreter9Bytecodes30IsBytecodeWithScalableOperandsENS1_8BytecodeE
__ZNSt3__110__function8__policy15__large_destroyINS0_12__alloc_funcIZN2v88internal11interpreter11Interpreter10InitializeEvE3$_0NS_9allocatorIS8_EEFvNS6_8BytecodeENS6_12OperandScaleEEEEEEvPv
__ZN2v88internal4Heap29NotifyDeserializationCompleteEv
__ZN2v88internal10PagedSpace28ShrinkImmortalImmovablePagesEv
__ZN2v88internal10PagedSpace13ResetFreeListEv
__ZN2v88internal10PagedSpace25ShrinkPageToHighWaterMarkEPNS0_4PageE
__ZN2v88internal4Page21ShrinkToHighWaterMarkEv
__ZNK2v88internal10HeapObject11SizeFromMapENS0_3MapE
__ZN2v88internal15AllocationStats16DecreaseCapacityEm
__ZN2v88internal15MemoryAllocator17PartialFreeMemoryEPNS0_11MemoryChunkEmmm
__ZN2v88internal13VirtualMemory7ReleaseEm
__ZN2v88internal12ReleasePagesEPNS_13PageAllocatorEPvmm
__ZN2v84base13PageAllocator12ReleasePagesEPvmm
__ZN2v84base2OS7ReleaseEPvm
__ZN2v88internal4Heap31UnprotectAndRegisterMemoryChunkEPNS0_11MemoryChunkE
__ZN2v84base20BoundedPageAllocator12ReleasePagesEPvmm
__ZN2v84base15RegionAllocator11CheckRegionEm
__ZN2v84base15RegionAllocator10FindRegionEm
__ZN2v88internal32CodeSpaceMemoryModificationScopeD2Ev
__ZN2v88internal10PagedSpace20SetReadAndExecutableEv
__ZN2v88internal11MemoryChunk52DecrementWriteUnprotectCounterAndMaybeSetPermissionsENS_13PageAllocator10PermissionE
__ZN2v88internal20SetupIsolateDelegateD0Ev
__ZN2v88internal8Builtins27InitializeBuiltinEntryTableEPNS0_7IsolateE
__ZN2v88internal8Builtins20EmitCodeCreateEventsEPNS0_7IsolateE
__ZN2v88internal12EmbeddedData8FromBlobEPNS0_7IsolateE
__ZNK2v88internal7Isolate18embedded_blob_sizeEv
__ZN2v88internal7Isolate26HashIsolateForEmbeddedBlobEv
__ZN2v88internal18AstStringConstantsC1EPNS0_7IsolateEy
__ZN2v88internal18AstStringConstantsC2EPNS0_7IsolateEy
__ZN2v88internal4ZoneC1EPNS0_19AccountingAllocatorEPKc
__ZN2v88internal19AccountingAllocator12ZoneCreationEPKNS0_4ZoneE
__ZN2v88internal4Zone9NewExpandEm
__ZN2v88internal19AccountingAllocator15AllocateSegmentEm
__ZNK2v84base19TemplateHashMapImplIPvS2_NS0_26HashEqualityThenKeyMatcherIS2_PFbS2_S2_EEENS0_23DefaultAllocationPolicyEE5ProbeERKS2_j
__ZN2v84base19TemplateHashMapImplIPvS2_NS0_26HashEqualityThenKeyMatcherIS2_PFbS2_S2_EEENS0_23DefaultAllocationPolicyEE6ResizeES7_
__ZN2v88internal12AstRawString7CompareEPvS2_
__ZN2v88internal11HandleScope10CloseScopeEPNS0_7IsolateEPmS4_
__ZN2v88internal11HandleScope8ZapRangeEPmS2_
__ZN2v88internal12DeserializerD2Ev
__ZNK2v88internal21DeserializerAllocator24ReservationsAreFullyUsedEv
__ZN2v88internal21DeserializerAllocatorD2Ev
__ZN2v88internal7Isolate4ExitEv
__ZN3gin27V8IsolateMemoryDumpProviderC1EPNS_13IsolateHolderE13scoped_refptrIN4base22SingleThreadTaskRunnerEE
__ZN3gin27V8IsolateMemoryDumpProviderC2EPNS_13IsolateHolderE13scoped_refptrIN4base22SingleThreadTaskRunnerEE
__ZN2v87Isolate5EnterEv
__ZN2v86Locker10InitializeEPNS_7IsolateE
__ZN2v88internal13ThreadManager13RestoreThreadEv
__ZN2v88internal7Isolate30FindPerThreadDataForThisThreadEv
__ZN2v88internal7Isolate26FindPerThreadDataForThreadENS0_8ThreadIdE
__ZN2v88internal5Debug10ThreadInitEv
__ZN2v811HandleScopeC1EPNS_7IsolateE
__ZN2v811HandleScope10InitializeEPNS_7IsolateE
__ZN2v86Locker8IsActiveEv
__ZN4node10NewContextEPN2v87IsolateENS0_5LocalINS0_14ObjectTemplateEEE
__ZN2v87Context3NewEPNS_7IsolateEPNS_22ExtensionConfigurationENS_10MaybeLocalINS_14ObjectTemplateEEENS5_INS_5ValueEEENS_33DeserializeInternalFieldsCallbackEPNS_14MicrotaskQueueE
__ZN2v810NewContextEPNS_7IsolateEPNS_22ExtensionConfigurationENS_10MaybeLocalINS_14ObjectTemplateEEENS4_INS_5ValueEEEmNS_33DeserializeInternalFieldsCallbackEPNS_14MicrotaskQueueE
__ZN2v88internal21PerIsolateAssertScopeILNS0_20PerIsolateAssertTypeE5ELb0EEC2EPNS0_7IsolateE
__ZN2v88internal12Bootstrapper17CreateEnvironmentENS0_11MaybeHandleINS0_13JSGlobalProxyEEENS_5LocalINS_14ObjectTemplateEEEPNS_22ExtensionConfigurationEmNS_33DeserializeInternalFieldsCallbackEPNS_14MicrotaskQueueE
__ZN2v88internal7GenesisC2EPNS0_7IsolateENS0_11MaybeHandleINS0_13JSGlobalProxyEEENS_5LocalINS_14ObjectTemplateEEEmNS_33DeserializeInternalFieldsCallbackEPNS_14MicrotaskQueueE
__ZN2v88internal11SaveContextC1EPNS0_7IsolateE
__ZN2v88internal7Factory29NewUninitializedJSGlobalProxyEi
__ZN2v88internal7Factory6NewMapENS0_12InstanceTypeEiNS0_12ElementsKindEi
__ZN2v88internal4Heap15AllocateRawWithILNS1_19AllocationRetryModeE1EEENS0_10HeapObjectEiNS0_14AllocationTypeENS0_16AllocationOriginENS0_19AllocationAlignmentE
__ZN2v88internal20PerThreadAssertScopeILNS0_19PerThreadAssertTypeE1ELb1EE9IsAllowedEv
__ZN2v88internal4Heap34AllocateRawWithRetryOrFailSlowPathEiNS0_14AllocationTypeENS0_16AllocationOriginENS0_19AllocationAlignmentE
__ZN2v88internal4Heap33AllocateRawWithLightRetrySlowPathEiNS0_14AllocationTypeENS0_16AllocationOriginENS0_19AllocationAlignmentE
__ZN2v88internal4Heap11AllocateRawEiNS0_14AllocationTypeENS0_16AllocationOriginENS0_19AllocationAlignmentE
__ZN2v88internal4Heap23IncrementObjectCountersEv
__ZNK2v88internal18IncrementalMarking27IsBelowActivationThresholdsEv
__ZN2v88internal4Heap26OldGenerationSizeOfObjectsEv
__ZN2v88internal10PagedSpace13SizeOfObjectsEv
__ZN2v88internal10PagedSpace4SizeEv
__ZN2v88internal4Heap27OldGenerationSpaceAvailableEv
__ZN2v88internal4Heap21GlobalMemoryAvailableEv
__ZN2v88internal7Factory13InitializeMapENS0_3MapENS0_12InstanceTypeEiNS0_12ElementsKindEi
__ZN2v88internal3Map13set_prototypeENS0_10HeapObjectENS0_16WriteBarrierModeE
__ZN2v88internal3Map30set_constructor_or_backpointerENS0_6ObjectENS0_16WriteBarrierModeE
__ZNK2v88internal3Map21GetInObjectPropertiesEv
__ZN2v88internal3Map31SetInObjectUnusedPropertyFieldsEi
__ZN2v88internal3Map22SetInstanceDescriptorsEPNS0_7IsolateENS0_15DescriptorArrayEi
__ZN2v88internal3Map25SetNumberOfOwnDescriptorsEi
__ZN2v88internal3Map12GetVisitorIdES1_
__ZN2v88internal11HandleScope12CreateHandleEPNS0_7IsolateEm
__ZN2v88internal11HandleScope6ExtendEPNS0_7IsolateE
__ZN2v88internal16DetachableVectorIPmE6ResizeEm
__ZN2v88internal7Factory18NewJSObjectFromMapENS0_6HandleINS0_3MapEEENS0_14AllocationTypeENS2_INS0_14AllocationSiteEEE
__ZN2v88internal7Factory29AllocateRawWithAllocationSiteENS0_6HandleINS0_3MapEEENS0_14AllocationTypeENS2_INS0_14AllocationSiteEEE
__ZN2v88internal8NewSpace11AllocateRawEiNS0_19AllocationAlignmentENS0_16AllocationOriginE
__ZN2v88internal7Factory25InitializeJSObjectFromMapENS0_6HandleINS0_8JSObjectEEENS2_INS0_6ObjectEEENS2_INS0_3MapEEE
__ZNK2v88internal3Map18GetInitialElementsEv
__ZN2v88internal7Factory22InitializeJSObjectBodyENS0_6HandleINS0_8JSObjectEEENS2_INS0_3MapEEEi
__ZN2v88internal8JSObject14InitializeBodyENS0_3MapEiNS0_6ObjectES3_
__ZN2v88internal8Snapshot22NewContextFromSnapshotEPNS0_7IsolateENS0_6HandleINS0_13JSGlobalProxyEEEmNS_33DeserializeInternalFieldsCallbackE
__ZN2v88internal8Snapshot18ExtractContextDataEPKNS_11StartupDataEj
__ZN2v88internal19PartialDeserializer18DeserializeContextEPNS0_7IsolateEPKNS0_12SnapshotDataEbNS0_6HandleINS0_13JSGlobalProxyEEENS_33DeserializeInternalFieldsCallbackE
__ZN2v88internal19PartialDeserializer11DeserializeEPNS0_7IsolateENS0_6HandleINS0_13JSGlobalProxyEEENS_33DeserializeInternalFieldsCallbackE
__ZN2v88internal12Deserializer17AddAttachedObjectENS0_6HandleINS0_10HeapObjectEEE
__ZN2v88internal12Deserializer12ReadDataCaseINS0_19FullMaybeObjectSlotELNS0_22SerializerDeserializer8BytecodeE16ELNS0_13SnapshotSpaceE0EEET_PNS0_7IsolateES7_mhb
__ZN2v88internal21DeserializerAllocator6GetMapEj
__ZN2v88internal12Deserializer12ReadDataCaseINS0_19FullMaybeObjectSlotELNS0_22SerializerDeserializer8BytecodeE18ELNS0_13SnapshotSpaceE0EEET_PNS0_7IsolateES7_mhb
__ZN2v88internal28Heap_GenerationalBarrierSlowENS0_10HeapObjectEmS1_
__ZN2v88internal11MemoryChunk15AllocateSlotSetILNS0_17RememberedSetTypeE0EEEPNS0_7SlotSetEv
__ZN2v88internal11MemoryChunk15AllocateSlotSetEPPNS0_7SlotSetE
__ZN2v88internal7SlotSet6InsertILNS0_10AccessModeE1EEEvi
__ZN2v88internal19PartialDeserializer25DeserializeEmbedderFieldsENS_33DeserializeInternalFieldsCallbackE
__ZN2v88internal21DeserializerAllocator45RegisterDeserializedObjectsForBlackAllocationEv
__ZN2v88internal4Heap45RegisterDeserializedObjectsForBlackAllocationEPNSt3__16vectorINS1_5ChunkENS2_9allocatorIS4_EEEERKNS3_INS0_10HeapObjectENS5_IS9_EEEERKNS3_ImNS5_ImEEEE
__ZN2v88internal15DescriptorArray4SortEv
__ZN2v88internal15DescriptorArray10GetDetailsENS0_13InternalIndexE
__ZN2v88internal15DescriptorArray10SetDetailsENS0_13InternalIndexENS0_15PropertyDetailsE
__ZNK2v88internal15DescriptorArray6GetKeyEPNS0_7IsolateENS0_13InternalIndexE
__ZN2v88internal15DescriptorArray20IsSortedNoDuplicatesEi
__ZN2v88internal9HashTableINS0_16GlobalDictionaryENS0_21GlobalDictionaryShapeEE6RehashENS0_13ReadOnlyRootsE
__ZN2v88internal9HashTableINS0_16GlobalDictionaryENS0_21GlobalDictionaryShapeEE5KeyAtENS0_13InternalIndexE
__ZN2v88internal21GlobalDictionaryShape6IsLiveENS0_13ReadOnlyRootsENS0_6ObjectE
__ZN2v88internal9HashTableINS0_16GlobalDictionaryENS0_21GlobalDictionaryShapeEE4SwapENS0_13InternalIndexES5_NS0_16WriteBarrierModeE
__ZN2v88internal9HashTableINS0_22SimpleNumberDictionaryENS0_27SimpleNumberDictionaryShapeEE6RehashENS0_13ReadOnlyRootsE
__ZN2v88internal9HashTableINS0_22SimpleNumberDictionaryENS0_27SimpleNumberDictionaryShapeEE5KeyAtEPNS0_7IsolateENS0_13InternalIndexE
__ZN2v88internal12Deserializer15LogNewMapEventsEv
__ZN2v88internalL26AddToWeakNativeContextListEPNS0_7IsolateENS0_7ContextE
__ZN2v88internal7Context3setEiNS0_6ObjectENS0_16WriteBarrierModeE
__ZN2v88internal7Genesis16CreateNewGlobalsENS_5LocalINS_14ObjectTemplateEEENS0_6HandleINS0_13JSGlobalProxyEEE
__ZN2v88internal7Isolate15object_functionEv
__ZN2v88internal7Factory20NewFunctionPrototypeENS0_6HandleINS0_10JSFunctionEEE
__ZNK2v88internal7Context15object_functionEv
__ZN2v88internal8JSObject11AddPropertyEPNS0_7IsolateENS0_6HandleIS1_EENS4_INS0_4NameEEENS4_INS0_6ObjectEEENS0_18PropertyAttributesE
__ZN2v88internal14LookupIteratorC2EPNS0_7IsolateENS0_6HandleINS0_6ObjectEEENS4_INS0_4NameEEENS4_INS0_10JSReceiverEEENS1_13ConfigurationE
__ZN2v88internal14LookupIterator5StartILb0EEEvv
__ZN2v88internal14LookupIterator21LookupInRegularHolderILb0EEENS1_5StateENS0_3MapENS0_10JSReceiverE
__ZN2v88internal15DescriptorArray15SearchWithCacheEPNS0_7IsolateENS0_4NameENS0_3MapE
__ZNK2v88internal14LookupIterator8NotFoundENS0_10JSReceiverE
__ZN2v88internal14LookupIterator12NextInternalILb0EEEvNS0_3MapENS0_10JSReceiverE
__ZN2v88internal14LookupIterator10NextHolderENS0_3MapE
__ZN2v88internal10JSReceiver21GetPropertyAttributesEPNS0_14LookupIteratorE
__ZN2v88internal6Object15AddDataPropertyEPNS0_14LookupIteratorENS0_6HandleIS1_EENS0_18PropertyAttributesENS_5MaybeINS0_11ShouldThrowEEENS0_11StoreOriginE
__ZNK2v88internal14LookupIterator14GetStoreTargetINS0_10JSReceiverEEENS0_6HandleIT_EEv
__ZN2v88internal14LookupIterator22ExtendingNonExtensibleENS0_6HandleINS0_10JSReceiverEEE
__ZN2v88internal14LookupIterator15UpdateProtectorEPNS0_7IsolateENS0_6HandleINS0_6ObjectEEENS4_INS0_4NameEEE
__ZN2v88internal14LookupIterator23InternalUpdateProtectorEPNS0_7IsolateENS0_6HandleINS0_6ObjectEEENS4_INS0_4NameEEE
__ZN2v88internal14LookupIterator31PrepareTransitionToDataPropertyENS0_6HandleINS0_10JSReceiverEEENS2_INS0_6ObjectEEENS0_18PropertyAttributesENS0_11StoreOriginE
__ZN2v88internal3Map24TransitionToDataPropertyEPNS0_7IsolateENS0_6HandleIS1_EENS4_INS0_4NameEEENS4_INS0_6ObjectEEENS0_18PropertyAttributesENS0_17PropertyConstnessENS0_11StoreOriginE
__ZN2v88internal19TransitionsAccessor10InitializeEv
__ZN2v88internal19TransitionsAccessor16SearchTransitionENS0_4NameENS0_12PropertyKindENS0_18PropertyAttributesE
__ZNK2v88internal3Map21TooManyFastPropertiesENS0_11StoreOriginE
__ZNK2v88internal6Object21OptimalRepresentationEPNS0_7IsolateE
__ZN2v88internal6Object11OptimalTypeEPNS0_7IsolateENS0_14RepresentationE
__ZN2v88internal9FieldType5ClassENS0_6HandleINS0_3MapEEEPNS0_7IsolateE
__ZN2v88internal3Map13CopyWithFieldEPNS0_7IsolateENS0_6HandleIS1_EENS4_INS0_4NameEEENS4_INS0_9FieldTypeEEENS0_18PropertyAttributesENS0_17PropertyConstnessENS0_14RepresentationENS0_14TransitionFlagE
__ZN2v88internal3Map13WrapFieldTypeEPNS0_7IsolateENS0_6HandleINS0_9FieldTypeEEE
__ZNK2v88internal9FieldType7IsClassEv
__ZNK2v88internal9FieldType7AsClassEv
__ZN2v88internal10Descriptor9DataFieldENS0_6HandleINS0_4NameEEEiNS0_18PropertyAttributesENS0_17PropertyConstnessENS0_14RepresentationERKNS0_17MaybeObjectHandleE
__ZN2v88internal10DescriptorC2ENS0_6HandleINS0_4NameEEERKNS0_17MaybeObjectHandleENS0_15PropertyDetailsE
__ZN2v88internal3Map17CopyAddDescriptorEPNS0_7IsolateENS0_6HandleIS1_EEPNS0_10DescriptorENS0_14TransitionFlagE
__ZN2v88internal15DescriptorArray8CopyUpToEPNS0_7IsolateENS0_6HandleIS1_EEii
__ZN2v88internal7Factory18NewDescriptorArrayEii
__ZN2v88internal15DescriptorArray10InitializeENS0_9EnumCacheENS0_10HeapObjectEii
__ZN2v88internal15DescriptorArray6AppendEPNS0_10DescriptorE
__ZN2v88internal15DescriptorArray3SetENS0_13InternalIndexEPNS0_10DescriptorE
__ZN2v88internal15DescriptorArray6SetKeyENS0_13InternalIndexENS0_4NameE
__ZN2v88internal15DescriptorArray8SetValueENS0_13InternalIndexENS0_11MaybeObjectE
__ZN2v88internal16LayoutDescriptor3NewEPNS0_7IsolateENS0_6HandleINS0_3MapEEENS4_INS0_15DescriptorArrayEEEi
__ZN2v88internal16LayoutDescriptor17CalculateCapacityENS0_3MapENS0_15DescriptorArrayEi
__ZN2v88internal16LayoutDescriptor3NewEPNS0_7IsolateEi
__ZN2v88internal16LayoutDescriptor10InitializeES1_NS0_3MapENS0_15DescriptorArrayEi
__ZN2v88internal16LayoutDescriptor8IsTaggedEi
__ZN2v88internal3Map22CopyReplaceDescriptorsEPNS0_7IsolateENS0_6HandleIS1_EENS4_INS0_15DescriptorArrayEEENS4_INS0_16LayoutDescriptorEEENS0_14TransitionFlagENS0_11MaybeHandleINS0_4NameEEEPKcNS0_20SimpleTransitionFlagE
__ZN2v88internal3Map19CopyDropDescriptorsEPNS0_7IsolateENS0_6HandleIS1_EE
__ZN2v88internal3Map7RawCopyEPNS0_7IsolateENS0_6HandleIS1_EEii
__ZN2v88internal3Map12SetPrototypeEPNS0_7IsolateENS0_6HandleIS1_EENS4_INS0_10HeapObjectEEEb
__ZN2v88internal8JSObject19OptimizeAsPrototypeENS0_6HandleIS1_EEb
__ZNK2v88internal10JSReceiver17HasFastPropertiesEPNS0_7IsolateE
__ZNK2v88internal3Map28should_be_fast_prototype_mapEv
__ZNK2v88internal3Map14GetConstructorEPNS0_7IsolateE
__ZN2v88internal3Map24CopyUnusedPropertyFieldsES1_
__ZN2v88internal15DescriptorArray19GeneralizeAllFieldsEv
__ZN2v88internal9FieldType3AnyEv
__ZN2v88internal3Map21InitializeDescriptorsEPNS0_7IsolateENS0_15DescriptorArrayENS0_16LayoutDescriptorE
__ZN2v88internal3Map25AccountAddedPropertyFieldEv
__ZN2v88internal14LookupIterator29ApplyTransitionToDataPropertyENS0_6HandleINS0_10JSReceiverEEE
__ZNK2v88internal3Map14GetBackPointerEPNS0_7IsolateE
__ZN2v88internal8JSObject12MigrateToMapEPNS0_7IsolateENS0_6HandleIS1_EENS4_INS0_3MapEEEi
__ZNK2v88internal3Map14NumberOfFieldsEv
__ZNK2v88internal3Map22InstancesNeedRewritingES1_iiiPi
__ZN2v88internal7Factory16NewPropertyArrayEi
__ZN2v88internal7Factory13NewFixedArrayEiNS0_14AllocationTypeE
__ZN2v88internal7Factory23NewFixedArrayWithFillerENS0_9RootIndexEiNS0_6ObjectENS0_14AllocationTypeE
__ZN2v88internal10FixedArray3setEiNS0_6ObjectE
__ZN2v88internal4Heap24NotifyObjectLayoutChangeENS0_10HeapObjectERKNS0_29PerThreadAssertScopeDebugOnlyILNS0_19PerThreadAssertTypeE0ELb0EEENS0_23InvalidateRecordedSlotsE
__ZN2v88internal10FieldIndex16ForPropertyIndexENS0_3MapEiNS0_14RepresentationE
__ZN2v88internal10FieldIndexC2EbiNS1_8EncodingEii
__ZN2v88internal8JSObject28RawFastInobjectPropertyAtPutENS0_10FieldIndexENS0_6ObjectENS0_16WriteBarrierModeE
__ZN2v88internal10JSReceiver13SetPropertiesENS0_10HeapObjectE
__ZN2v88internal12_GLOBAL__N_121GetIdentityHashHelperENS0_10JSReceiverE
__ZN2v88internal14LookupIterator25ReloadPropertyInformationILb0EEEvv
__ZN2v88internal12LinearSearchILNS0_10SearchModeE1ENS0_15DescriptorArrayEEEiPT0_NS0_4NameEiPi
__ZN2v88internal21DescriptorLookupCache6UpdateENS0_3MapENS0_4NameEi
__ZN2v88internal14LookupIterator14WriteDataValueENS0_6HandleINS0_6ObjectEEEb
__ZN2v88internal8JSObject12WriteToFieldENS0_13InternalIndexENS0_15PropertyDetailsENS0_6ObjectE
__ZN2v88internal15NewFunctionArgs23ForBuiltinWithPrototypeENS0_6HandleINS0_6StringEEENS2_INS0_10HeapObjectEEENS0_12InstanceTypeEiiiNS0_11MutableModeE
__ZN2v88internal15NewFunctionArgs31SetShouldCreateAndSetInitialMapEv
__ZN2v88internal7Factory11NewFunctionERKNS0_15NewFunctionArgsE
__ZNK2v88internal15NewFunctionArgs6GetMapEPNS0_7IsolateE
__ZN2v88internal7Isolate19strict_function_mapEv
__ZN2v88internal7Factory21NewSharedFunctionInfoENS0_11MaybeHandleINS0_6StringEEENS2_INS0_10HeapObjectEEEiNS0_12FunctionKindE
__ZN2v88internal6String7FlattenEPNS0_7IsolateENS0_6HandleIS1_EENS0_14AllocationTypeE
__ZN2v88internal7Factory3NewENS0_6HandleINS0_3MapEEENS0_14AllocationTypeE
__ZN2v88internal10PagedSpace11AllocateRawEiNS0_19AllocationAlignmentENS0_16AllocationOriginE
__ZN2v88internal5Space14AllocationStepEimi
__ZN2v88internal18SharedFunctionInfo27CalculateConstructAsBuiltinEv
__ZN2v88internal18SharedFunctionInfo22UpdateFunctionMapIndexEv
__ZN2v88internal18SharedFunctionInfo22set_function_map_indexEi
__ZN2v88internal7Factory11NewFunctionENS0_6HandleINS0_3MapEEENS2_INS0_18SharedFunctionInfoEEENS2_INS0_7ContextEEENS0_14AllocationTypeE
__ZN2v88internal10JSReceiver21initialize_propertiesEPNS0_7IsolateE
__ZNK2v88internal18SharedFunctionInfo7GetCodeEv
__ZN2v88internal10JSFunction11set_contextENS0_10HeapObjectE
__ZN2v88internal10JSFunction28set_prototype_or_initial_mapENS0_10HeapObjectENS0_16WriteBarrierModeE
__ZN2v88internal18SharedFunctionInfo27set_expected_nof_propertiesEi
__ZN2v88internal10JSFunction13SetInitialMapENS0_6HandleIS1_EENS2_INS0_3MapEEENS2_INS0_10HeapObjectEEE
__ZN2v88internal3Map4CopyEPNS0_7IsolateENS0_6HandleIS1_EEPKc
__ZN2v88internal15DescriptorArray8CopyFromENS0_13InternalIndexES1_
__ZN2v88internal13DependentCode28DeoptimizeDependentCodeGroupEPNS0_7IsolateENS1_15DependencyGroupE
__ZN2v88internal13DependentCode25MarkCodeForDeoptimizationEPNS0_7IsolateENS1_15DependencyGroupE
__ZN2v88internal3Map14SetConstructorENS0_6ObjectENS0_16WriteBarrierModeE
__ZN2v88internal14LookupIteratorC1EPNS0_7IsolateENS0_6HandleINS0_6ObjectEEENS4_INS0_4NameEEENS1_13ConfigurationE
__ZN2v88internal6Object11GetPropertyEPNS0_14LookupIteratorEb
__ZNK2v88internal14LookupIterator12GetDataValueEv
__ZNK2v88internal14LookupIterator10FetchValueEv
__ZN2v88internal8JSObject14FastPropertyAtENS0_6HandleIS1_EENS0_14RepresentationENS0_10FieldIndexE
__ZNK2v88internal8JSObject17RawFastPropertyAtEPNS0_7IsolateENS0_10FieldIndexE
__ZN2v88internal6Object11WrapForReadEPNS0_7IsolateENS0_6HandleIS1_EENS0_14RepresentationE
__ZN2v88internal7Factory17NewJSGlobalObjectENS0_6HandleINS0_10JSFunctionEEE
__ZNK2v88internal3Map21NextFreePropertyIndexEv
__ZN2v88internal18BaseNameDictionaryINS0_16GlobalDictionaryENS0_21GlobalDictionaryShapeEE3NewEPNS0_7IsolateEiNS0_14AllocationTypeENS0_15MinimumCapacityE
__ZN2v88internal9HashTableINS0_16GlobalDictionaryENS0_21GlobalDictionaryShapeEE3NewEPNS0_7IsolateEiNS0_14AllocationTypeENS0_15MinimumCapacityE
__ZN2v84base4bits21RoundUpToPowerOfTwo32Ej
__ZN2v88internal9HashTableINS0_16GlobalDictionaryENS0_21GlobalDictionaryShapeEE11NewInternalEPNS0_7IsolateEiNS0_14AllocationTypeE
__ZN2v88internal7Factory20NewFixedArrayWithMapINS0_10FixedArrayEEENS0_6HandleIT_EENS0_9RootIndexEiNS0_14AllocationTypeE
__ZN2v88internal9HashTableINS0_16GlobalDictionaryENS0_21GlobalDictionaryShapeEE11SetCapacityEi
__ZN2v88internal9FieldType3AnyEPNS0_7IsolateE
__ZN2v88internal7Context3setEiNS0_6ObjectE
__ZN2v88internal7Factory25ReinitializeJSGlobalProxyENS0_6HandleINS0_13JSGlobalProxyEEENS2_INS0_10JSFunctionEEE
__ZN2v88internal8JSObject15NotifyMapChangeENS0_6HandleINS0_3MapEEES4_PNS0_7IsolateE
__ZN2v88internal7Genesis18HookUpGlobalObjectENS0_6HandleINS0_14JSGlobalObjectEEE
__ZN2v88internal7Context10scope_infoEv
__ZNK2v88internal9ScopeInfo23HasContextExtensionSlotEv
__ZNK2v88internal9ScopeInfo5FlagsEv
__ZN2v88internal7Genesis23TransferNamedPropertiesENS0_6HandleINS0_8JSObjectEEES4_
__ZN2v88internal18BaseNameDictionaryINS0_16GlobalDictionaryENS0_21GlobalDictionaryShapeEE16IterationIndicesEPNS0_7IsolateENS0_6HandleIS2_EE
__ZNSt3__16__sortIRN2v88internal19EnumIndexComparatorINS2_16GlobalDictionaryEEENS2_10AtomicSlotEEEvT0_S8_T_
__ZNSt3__17__sort3IRN2v88internal19EnumIndexComparatorINS2_16GlobalDictionaryEEENS2_10AtomicSlotEEEjT0_S8_S8_T_
__ZN2v88internal19EnumIndexComparatorINS0_16GlobalDictionaryEEclEmm
__ZN2v88internal16GlobalDictionary6CellAtEPNS0_7IsolateENS0_13InternalIndexE
__ZNSt3__118__insertion_sort_3IRN2v88internal19EnumIndexComparatorINS2_16GlobalDictionaryEEENS2_10AtomicSlotEEEvT0_S8_T_
__ZN2v88internal10FixedArray13ShrinkOrEmptyEPNS0_7IsolateENS0_6HandleIS1_EEi
__ZN2v88internal10FixedArray6ShrinkEPNS0_7IsolateEi
__ZN2v88internal14LookupIterator21LookupInSpecialHolderILb0EEENS1_5StateENS0_3MapENS0_10JSReceiverE
__ZN2v88internal9HashTableINS0_16GlobalDictionaryENS0_21GlobalDictionaryShapeEE9FindEntryENS0_13ReadOnlyRootsENS0_6HandleINS0_4NameEEEi
__ZN2v88internal14JSGlobalObject23EnsureEmptyPropertyCellENS0_6HandleIS1_EENS2_INS0_4NameEEENS0_16PropertyCellTypeEPNS0_13InternalIndexE
__ZN2v88internal7Factory15NewPropertyCellENS0_6HandleINS0_4NameEEENS0_14AllocationTypeE
__ZN2v88internal18BaseNameDictionaryINS0_16GlobalDictionaryENS0_21GlobalDictionaryShapeEE3AddEPNS0_7IsolateENS0_6HandleIS2_EENS7_INS0_4NameEEENS7_INS0_6ObjectEEENS0_15PropertyDetailsEPNS0_13InternalIndexE
__ZN2v88internal18BaseNameDictionaryINS0_16GlobalDictionaryENS0_21GlobalDictionaryShapeEE20NextEnumerationIndexEv
__ZN2v88internal10DictionaryINS0_16GlobalDictionaryENS0_21GlobalDictionaryShapeEE3AddEPNS0_7IsolateENS0_6HandleIS2_EENS7_INS0_4NameEEENS7_INS0_6ObjectEEENS0_15PropertyDetailsEPNS0_13InternalIndexE
__ZN2v88internal18BaseNameDictionaryINS0_16GlobalDictionaryENS0_21GlobalDictionaryShapeEE14EnsureCapacityEPNS0_7IsolateENS0_6HandleIS2_EEi
__ZN2v88internal9HashTableINS0_16GlobalDictionaryENS0_21GlobalDictionaryShapeEE14EnsureCapacityEPNS0_7IsolateENS0_6HandleIS2_EEiNS0_14AllocationTypeE
__ZN2v88internal9HashTableINS0_16GlobalDictionaryENS0_21GlobalDictionaryShapeEE18FindInsertionEntryEj
__ZN2v88internal16GlobalDictionary8SetEntryEPNS0_7IsolateENS0_13InternalIndexENS0_6ObjectES5_NS0_15PropertyDetailsE
__ZN2v88internal21GlobalDictionaryShape12DetailsAtPutINS0_16GlobalDictionaryEEEvPNS0_7IsolateET_NS0_13InternalIndexENS0_15PropertyDetailsE
__ZN2v88internal18BaseNameDictionaryINS0_16GlobalDictionaryENS0_21GlobalDictionaryShapeEE23SetNextEnumerationIndexEi
__ZNK2v88internal18BaseNameDictionaryINS0_16GlobalDictionaryENS0_21GlobalDictionaryShapeEE4HashEv
__ZN2v88internal12PropertyCell11UpdatedTypeEPNS0_7IsolateENS0_6HandleIS1_EENS4_INS0_6ObjectEEENS0_15PropertyDetailsE
__ZN2v88internal8JSObject25InvalidatePrototypeChainsENS0_3MapE
__ZN2v88internal12_GLOBAL__N_133InvalidatePrototypeChainsInternalENS0_3MapE
__ZN2v88internal12_GLOBAL__N_142InvalidateOnePrototypeValidityCellInternalENS0_3MapE
__ZN2v88internal7Genesis25TransferIndexedPropertiesENS0_6HandleINS0_8JSObjectEEES4_
__ZN2v88internal7Factory14CopyFixedArrayENS0_6HandleINS0_10FixedArrayEEE
__ZN2v88internal7Genesis22ConfigureGlobalObjectsENS_5LocalINS_14ObjectTemplateEEE
__ZN2v88internal7Context12global_proxyEv
__ZN2v88internal7Context13global_objectEv
__ZN2v88internal7Context9extensionEv
__ZN2v88internal8JSObject17ForceSetPrototypeENS0_6HandleIS1_EENS2_INS0_10HeapObjectEEE
__ZN2v88internal8JSObject17MigrateSlowToFastENS0_6HandleIS1_EEiPKc
__ZN2v88internal17PrototypeIterator7AdvanceEv
__ZN2v88internal17PrototypeIterator22AdvanceIgnoringProxiesEv
__ZN2v88internal7Genesis34InitializeGlobal_harmony_weak_refsEv
__ZN2v88internal7Genesis45InitializeGlobal_harmony_regexp_match_indicesEv
__ZN2v88internal7Genesis39InitializeGlobal_harmony_intl_segmenterEv
__ZN2v88internal7Genesis42InitializeGlobal_harmony_sharedarraybufferEv
__ZN2v88internal7Isolate23shared_array_buffer_funEv
__ZNK2v88internal7Context23shared_array_buffer_funEv
__ZN2v88internal8JSObject11AddPropertyEPNS0_7IsolateENS0_6HandleIS1_EEPKcNS4_INS0_6ObjectEEENS0_18PropertyAttributesE
__ZN2v88internal7Factory21InternalizeUtf8StringERKNS0_6VectorIKcEE
__ZN2v88internal6VectorIKhE4castIKcEES3_NS1_IT_EE
__ZN2v88internal11Utf8DecoderC1ERKNS0_6VectorIKhEE
__ZN2v88internal11Utf8DecoderC2ERKNS0_6VectorIKhEE
__ZN2v88internal8HashSeedEPNS0_7IsolateE
__ZN2v88internal19SequentialStringKeyIhEC1ERKNS0_6VectorIKhEEyb
__ZN2v88internal11StringTable9LookupKeyINS0_19SequentialStringKeyIhEEEENS0_6HandleINS0_6StringEEEPNS0_7IsolateEPT_
__ZN2v88internal9HashTableINS0_11StringTableENS0_16StringTableShapeEE9FindEntryENS0_13ReadOnlyRootsEPNS0_14StringTableKeyEi
__ZN2v88internal16StringTableShape7IsMatchEPNS0_14StringTableKeyENS0_6ObjectE
__ZN2v88internal19SequentialStringKeyIhE7IsMatchENS0_6StringE
__ZN2v88internal6String8GetCharsIhEEPKT_RKNS0_29PerThreadAssertScopeDebugOnlyILNS0_19PerThreadAssertTypeE0ELb0EEE
__ZN2v88internal7Isolate14atomics_objectEv
__ZN2v88internal9HashTableINS0_11StringTableENS0_16StringTableShapeEE14EnsureCapacityEPNS0_7IsolateENS0_6HandleIS2_EEiNS0_14AllocationTypeE
__ZN2v88internal11StringTable14AddKeyNoResizeEPNS0_7IsolateEPNS0_14StringTableKeyE
__ZN2v88internal19SequentialStringKeyIhE8AsHandleEPNS0_7IsolateE
__ZN2v88internal7Factory28NewOneByteInternalizedStringERKNS0_6VectorIKhEEj
__ZN2v88internal7Factory36AllocateRawOneByteInternalizedStringEij
__ZN2v88internal9HashTableINS0_11StringTableENS0_16StringTableShapeEE18FindInsertionEntryEj
__ZN2v88internal12BinarySearchILNS0_10SearchModeE1ENS0_15DescriptorArrayEEEiPT0_NS0_4NameEiPi
__ZN2v88internal3Map36AccountAddedOutOfObjectPropertyFieldEi
__ZNK2v88internal10JSReceiver14property_arrayEPNS0_7IsolateE
__ZN2v88internal13PropertyArray3setEiNS0_6ObjectE
__ZN2v88internal7Genesis44InitializeGlobal_harmony_promise_all_settledEv
__ZN2v88internal7Isolate16promise_functionEv
__ZN2v88internal15NewFunctionArgs26ForBuiltinWithoutPrototypeENS0_6HandleINS0_6StringEEEiNS0_12LanguageModeE
__ZN2v88internal7Isolate37strict_function_without_prototype_mapEv
__ZN2v88internal8JSObject18MakePrototypesFastENS0_6HandleINS0_6ObjectEEENS0_12WhereToStartEPNS0_7IsolateE
__ZN2v88internal17PrototypeIterator10GetCurrentINS0_10HeapObjectEEENS0_6HandleIT_EERKS1_
__ZN2v88internal7Factory31NewSharedFunctionInfoForBuiltinENS0_11MaybeHandleINS0_6StringEEEiNS0_12FunctionKindE
__ZNK2v88internal7Context15string_functionEv
__ZN2v88internal13NativeContext17ResetErrorsThrownEv
__ZN2v88internal11SaveContextD1Ev
__ZN2v88internal20SaveAndSwitchContextC1EPNS0_7IsolateENS0_7ContextE
__ZN2v88internal20SaveAndSwitchContextC2EPNS0_7IsolateENS0_7ContextE
__ZN2v88internal7Genesis17InstallExtensionsEPNS0_7IsolateENS0_6HandleINS0_7ContextEEEPNS_22ExtensionConfigurationE
__ZN2v88internal7Genesis21InstallSpecialObjectsEPNS0_7IsolateENS0_6HandleINS0_7ContextEEE
__ZN2v88internal7Isolate14error_functionEv
__ZN2v88internal8JSObject31UpdatePrototypeUserRegistrationENS0_6HandleINS0_3MapEEES4_PNS0_7IsolateE
__ZN2v88internal8JSObject23UnregisterPrototypeUserENS0_6HandleINS0_3MapEEEPNS0_7IsolateE
__ZN2v88internal3Map18set_prototype_infoENS0_6ObjectENS0_16WriteBarrierModeE
__ZN2v88internal19TransitionsAccessor19NumberOfTransitionsEv
__ZN2v88internal6WasmJs7InstallEPNS0_7IsolateEb
__ZN2v88internal7Factory20NewStringFromOneByteERKNS0_6VectorIKhEENS0_14AllocationTypeE
__ZN2v88internal7Factory19NewRawOneByteStringEiNS0_14AllocationTypeE
__ZN2v88internal15NewFunctionArgs22ForFunctionWithoutCodeENS0_6HandleINS0_6StringEEENS2_INS0_3MapEEENS0_12LanguageModeE
__ZN2v88internal7Isolate24initial_object_prototypeEv
__ZN2v88internal10JSFunction12SetPrototypeENS0_6HandleIS1_EENS2_INS0_6ObjectEEE
__ZN2v88internal7Factory11NewJSObjectENS0_6HandleINS0_10JSFunctionEEENS0_14AllocationTypeE
__ZN2v88internal10JSFunction19EnsureHasInitialMapENS0_6HandleIS1_EE
__ZN2v88internal10JSFunction30CalculateExpectedNofPropertiesEPNS0_7IsolateENS0_6HandleIS1_EE
__ZN2v88internal17PrototypeIterator10GetCurrentINS0_10JSReceiverEEENS0_6HandleIT_EERKS1_
__ZN2v88internal15IsCompiledScopeC2ENS0_18SharedFunctionInfoEPNS0_7IsolateE
__ZN2v88internal10JSFunction27CalculateInstanceSizeHelperENS0_12InstanceTypeEbiiPiS3_
__ZN2v88internal8JSObject13GetHeaderSizeENS0_12InstanceTypeEb
__ZNK2v88internal10JSFunction22has_instance_prototypeEPNS0_7IsolateE
__ZNK2v88internal10JSFunction18instance_prototypeEPNS0_7IsolateE
__ZN2v88internal3Map26StartInobjectSlackTrackingEv
__ZN2v88internal11InstallFuncEPNS0_7IsolateENS0_6HandleINS0_8JSObjectEEEPKcPFvRKNS_20FunctionCallbackInfoINS_5ValueEEEEiNS0_18PropertyAttributesE
__ZN2v88internal10CreateFuncEPNS0_7IsolateENS0_6HandleINS0_6StringEEEPFvRKNS_20FunctionCallbackInfoINS_5ValueEEEE
__ZN2v816FunctionTemplate3NewEPNS_7IsolateEPFvRKNS_20FunctionCallbackInfoINS_5ValueEEEENS_5LocalIS4_EENSA_INS_9SignatureEEEiNS_19ConstructorBehaviorENS_14SideEffectTypeE
__ZN2v88internal21PerIsolateAssertScopeILNS0_20PerIsolateAssertTypeE0ELb0EEC2EPNS0_7IsolateE
__ZN2v8L19FunctionTemplateNewEPNS_8internal7IsolateEPFvRKNS_20FunctionCallbackInfoINS_5ValueEEEENS_5LocalIS4_EENSA_INS_9SignatureEEEibNSA_INS_7PrivateEEENS_14SideEffectTypeE
__ZN2v88internal7Factory9NewStructENS0_12InstanceTypeENS0_14AllocationTypeE
__ZN2v88internal3Map12GetStructMapEPNS0_7IsolateENS0_12InstanceTypeE
__ZN2v8L18InitializeTemplateENS_8internal6HandleINS0_12TemplateInfoEEEi
__ZN2v85Utils7ConvertINS_8internal20FunctionTemplateInfoENS_16FunctionTemplateEEENS_5LocalIT0_EENS2_6HandleIT_EE
__ZN2v816FunctionTemplate14SetCallHandlerEPFvRKNS_20FunctionCallbackInfoINS_5ValueEEEENS_5LocalIS2_EENS_14SideEffectTypeE
__ZN2v88internal7Factory18NewCallHandlerInfoEb
__ZN2v88internal7Factory10NewForeignEm
__ZNK2v88internal15CallHandlerInfo19redirected_callbackEv
__ZNK2v88internal30TorqueGeneratedCallHandlerInfoINS0_15CallHandlerInfoENS0_6StructEE8callbackEv
__ZNK2v88internal6Object11IsUndefinedEv
__ZN2v88internal17ExternalReference6CreateEPNS_11ApiFunctionENS1_4TypeE
__ZN2v88internal21PerIsolateAssertScopeILNS0_20PerIsolateAssertTypeE5ELb0EED2Ev
__ZN2v88internal21PerIsolateAssertScopeILNS0_20PerIsolateAssertTypeE0ELb0EED2Ev
__ZN2v816FunctionTemplate17ReadOnlyPrototypeEv
__ZN2v88internal10ApiNatives19InstantiateFunctionENS0_6HandleINS0_20FunctionTemplateInfoEEENS0_11MaybeHandleINS0_4NameEEE
__ZN2v88internal12_GLOBAL__N_119InstantiateFunctionEPNS0_7IsolateENS0_6HandleINS0_20FunctionTemplateInfoEEENS0_11MaybeHandleINS0_4NameEEE
__ZN2v88internal12_GLOBAL__N_119InstantiateFunctionEPNS0_7IsolateENS0_6HandleINS0_13NativeContextEEENS4_INS0_20FunctionTemplateInfoEEENS0_11MaybeHandleINS0_4NameEEE
__ZN2v88internal12_GLOBAL__N_124ProbeInstantiationsCacheEPNS0_7IsolateENS0_6HandleINS0_13NativeContextEEEiNS1_11CachingModeE
__ZNK2v88internal7Context34slow_template_instantiations_cacheEv
__ZN2v88internal9HashTableINS0_22SimpleNumberDictionaryENS0_27SimpleNumberDictionaryShapeEE9FindEntryEPNS0_7IsolateEj
__ZN2v88internal25NumberDictionaryBaseShape4HashEPNS0_7IsolateEj
__ZN2v88internal9HashTableINS0_22SimpleNumberDictionaryENS0_27SimpleNumberDictionaryShapeEE9FindEntryENS0_13ReadOnlyRootsEji
__ZNK2v88internal20FunctionTemplateInfo20GetPrototypeTemplateEPNS0_7IsolateE
__ZNK2v88internal20FunctionTemplateInfo28GetPrototypeProviderTemplateEPNS0_7IsolateE
__ZNK2v88internal20FunctionTemplateInfo17GetParentTemplateEPNS0_7IsolateE
__ZNK2v88internal20FunctionTemplateInfo23GetNamedPropertyHandlerEPNS0_7IsolateE
__ZNK2v88internal20FunctionTemplateInfo25GetIndexedPropertyHandlerEPNS0_7IsolateE
__ZN2v88internal10ApiNatives17CreateApiFunctionEPNS0_7IsolateENS0_6HandleINS0_13NativeContextEEENS4_INS0_20FunctionTemplateInfoEEENS4_INS0_6ObjectEEENS0_12InstanceTypeENS0_11MaybeHandleINS0_4NameEEE
__ZN2v88internal20FunctionTemplateInfo29GetOrCreateSharedFunctionInfoEPNS0_7IsolateENS0_6HandleIS1_EENS0_11MaybeHandleINS0_4NameEEE
__ZN2v88internal7Factory35NewSharedFunctionInfoForApiFunctionENS0_11MaybeHandleINS0_6StringEEENS0_6HandleINS0_20FunctionTemplateInfoEEENS0_12FunctionKindE
__ZN2v88internal18SharedFunctionInfo10set_lengthEi
__ZN2v88internal7Factory33NewFunctionFromSharedFunctionInfoENS0_6HandleINS0_18SharedFunctionInfoEEENS2_INS0_7ContextEEENS0_14AllocationTypeE
__ZN2v88internal7Factory33NewFunctionFromSharedFunctionInfoENS0_6HandleINS0_3MapEEENS2_INS0_18SharedFunctionInfoEEENS2_INS0_7ContextEEENS0_14AllocationTypeE
__ZN2v88internal8Compiler17PostInstantiationENS0_6HandleINS0_10JSFunctionEEE
__ZN2v88internal7Isolate43sloppy_function_with_readonly_prototype_mapEv
__ZNK2v88internal20FunctionTemplateInfo19GetInstanceTemplateEPNS0_7IsolateE
__ZNK2v88internal20FunctionTemplateInfo22GetInstanceCallHandlerEPNS0_7IsolateE
__ZN2v88internal12_GLOBAL__N_126CacheTemplateInstantiationEPNS0_7IsolateENS0_6HandleINS0_13NativeContextEEEiNS1_11CachingModeENS4_INS0_8JSObjectEEE
__ZN2v88internal22SimpleNumberDictionary3SetEPNS0_7IsolateENS0_6HandleIS1_EEjNS4_INS0_6ObjectEEE
__ZN2v88internal10DictionaryINS0_22SimpleNumberDictionaryENS0_27SimpleNumberDictionaryShapeEE5AtPutEPNS0_7IsolateENS0_6HandleIS2_EEjNS7_INS0_6ObjectEEENS0_15PropertyDetailsE
__ZN2v88internal10DictionaryINS0_22SimpleNumberDictionaryENS0_27SimpleNumberDictionaryShapeEE3AddEPNS0_7IsolateENS0_6HandleIS2_EEjNS7_INS0_6ObjectEEENS0_15PropertyDetailsEPNS0_13InternalIndexE
__ZN2v88internal9HashTableINS0_22SimpleNumberDictionaryENS0_27SimpleNumberDictionaryShapeEE14EnsureCapacityEPNS0_7IsolateENS0_6HandleIS2_EEiNS0_14AllocationTypeE
__ZN2v88internal7Factory17NewNumberFromUintEj
__ZN2v88internal9HashTableINS0_22SimpleNumberDictionaryENS0_27SimpleNumberDictionaryShapeEE18FindInsertionEntryEj
__ZN2v88internal10DictionaryINS0_22SimpleNumberDictionaryENS0_27SimpleNumberDictionaryShapeEE8SetEntryEPNS0_7IsolateENS0_13InternalIndexENS0_6ObjectES8_NS0_15PropertyDetailsE
__ZN2v88internal12_GLOBAL__N_123AccessCheckDisableScopeC1EPNS0_7IsolateENS0_6HandleINS0_8JSObjectEEE
__ZN2v88internal12_GLOBAL__N_123AccessCheckDisableScopeD1Ev
__ZN2v88internal12_GLOBAL__N_111InvokeScopeD1Ev
__ZN2v88internal7Isolate21has_pending_exceptionEv
__ZN2v88internal11StringTable12LookupStringEPNS0_7IsolateENS0_6HandleINS0_6StringEEE
__ZN2v88internal21InternalizedStringKeyC2ENS0_6HandleINS0_6StringEEE
__ZN2v88internal6String6IsFlatEv
__ZN2v88internal11StringTable9LookupKeyINS0_21InternalizedStringKeyEEENS0_6HandleINS0_6StringEEEPNS0_7IsolateEPT_
__ZN2v88internal21InternalizedStringKey7IsMatchENS0_6StringE
__ZN2v88internal6String10SlowEqualsES1_
__ZN2v88internal6String3GetEi
__ZN2v88internal11StringShape33DispatchToSpecificTypeWithoutCastIZNS1_22DispatchToSpecificTypeIZNS0_6String3GetEiE19StringGetDispatchertJRiEEET0_S4_DpOT1_E17CastingDispatchertJRS4_S6_EEES7_SA_
__ZNK2v88internal10HeapObject18IsSeqOneByteStringEPNS0_7IsolateE
__ZN2v88internal6String8MakeThinEPNS0_7IsolateES1_
__ZN2v88internal21InternalizedStringKey8AsHandleEPNS0_7IsolateE
__ZN2v88internal7Factory30InternalizedStringMapForStringENS0_6HandleINS0_6StringEEE
__ZNK2v88internal10HeapObject23IsExternalOneByteStringEPNS0_7IsolateE
__ZNK2v88internal10HeapObject23IsExternalTwoByteStringEPNS0_7IsolateE
__ZN2v88internal7Factory25NewInternalizedStringImplENS0_6HandleINS0_6StringEEEij
__ZN2v88internal7Factory30AllocateInternalizedStringImplILb1ENS0_6HandleINS0_6StringEEEEES5_T0_ij
__ZN2v88internal6String11WriteToFlatIhEEvS1_PT_ii
__ZN2v88internal24SetDummyInstanceTemplateEPNS0_7IsolateENS0_6HandleINS0_10JSFunctionEEE
__ZN2v814ObjectTemplate3NewEPNS_7IsolateENS_5LocalINS_16FunctionTemplateEEE
__ZN2v8L17ObjectTemplateNewEPNS_8internal7IsolateENS_5LocalINS_16FunctionTemplateEEEb
__ZN2v85Utils7ConvertINS_8internal18ObjectTemplateInfoENS_14ObjectTemplateEEENS_5LocalIT0_EENS2_6HandleIT_EE
__ZN2v88internal20FunctionTemplateInfo32AllocateFunctionTemplateRareDataEPNS0_7IsolateENS0_6HandleIS1_EE
__ZN2v88internal13InstallGetterEPNS0_7IsolateENS0_6HandleINS0_8JSObjectEEEPKcPFvRKNS_20FunctionCallbackInfoINS_5ValueEEEE
__ZN2v88internal4Name14ToFunctionNameEPNS0_7IsolateENS0_6HandleIS1_EENS4_INS0_6StringEEE
__ZN2v88internal4Name14ToFunctionNameEPNS0_7IsolateENS0_6HandleIS1_EE
__ZN2v88internal24IncrementalStringBuilderC1EPNS0_7IsolateE
__ZN2v88internal24IncrementalStringBuilderC2EPNS0_7IsolateE
__ZN2v88internal24IncrementalStringBuilder12AppendStringENS0_6HandleINS0_6StringEEE
__ZN2v88internal24IncrementalStringBuilder15CanAppendByCopyENS0_6HandleINS0_6StringEEE
__ZN2v88internal6String33IsOneByteRepresentationUnderneathES1_
__ZN2v88internal24IncrementalStringBuilder18AppendStringByCopyENS0_6HandleINS0_6StringEEE
__ZN2v88internal24IncrementalStringBuilder6AppendIhhEEvT_
__ZN2v88internal24IncrementalStringBuilder6FinishEv
__ZN2v88internal9SeqString8TruncateENS0_6HandleIS1_EEi
__ZN2v88internal24IncrementalStringBuilder10AccumulateENS0_6HandleINS0_6StringEEE
__ZN2v88internal7Factory13NewConsStringENS0_6HandleINS0_6StringEEES4_
__ZN2v85Utils7ConvertINS_8internal8JSObjectENS_6ObjectEEENS_5LocalIT0_EENS2_6HandleIT_EE
__ZN2v85Utils7ConvertINS_8internal6StringENS_6StringEEENS_5LocalIT0_EENS2_6HandleIT_EE
__ZN2v85Utils7ConvertINS_8internal10JSFunctionENS_8FunctionEEENS_5LocalIT0_EENS2_6HandleIT_EE
__ZN2v86Object19SetAccessorPropertyENS_5LocalINS_4NameEEENS1_INS_8FunctionEEES5_NS_17PropertyAttributeENS_13AccessControlE
__ZN2v88internal8JSObject14DefineAccessorENS0_6HandleIS1_EENS2_INS0_4NameEEENS2_INS0_6ObjectEEES7_NS0_18PropertyAttributesE
__ZN2v88internal14LookupIterator17PropertyOrElementEPNS0_7IsolateENS0_6HandleINS0_6ObjectEEENS4_INS0_4NameEEENS1_13ConfigurationE
__ZN2v88internal6String16SlowAsArrayIndexEPj
__ZN2v88internal8JSObject14DefineAccessorEPNS0_14LookupIteratorENS0_6HandleINS0_6ObjectEEES6_NS0_18PropertyAttributesE
__ZN2v88internal14LookupIterator28TransitionToAccessorPropertyENS0_6HandleINS0_6ObjectEEES4_NS0_18PropertyAttributesE
__ZNK2v88internal14LookupIterator14GetStoreTargetINS0_8JSObjectEEENS0_6HandleIT_EEv
__ZN2v88internal3Map28TransitionToAccessorPropertyEPNS0_7IsolateENS0_6HandleIS1_EENS4_INS0_4NameEEENS0_13InternalIndexENS4_INS0_6ObjectEEESA_NS0_18PropertyAttributesE
__ZN2v88internal7Factory15NewAccessorPairEv
__ZNK2v88internal6Object6IsNullEv
__ZN2v88internal10Descriptor16AccessorConstantENS0_6HandleINS0_4NameEEENS2_INS0_6ObjectEEENS0_18PropertyAttributesE
__ZN2v88internal10DescriptorC2ENS0_6HandleINS0_4NameEEERKNS0_17MaybeObjectHandleENS0_12PropertyKindENS0_18PropertyAttributesENS0_16PropertyLocationENS0_17PropertyConstnessENS0_14RepresentationEi
__ZN2v88internal15PropertyDetailsC2ENS0_12PropertyKindENS0_18PropertyAttributesENS0_16PropertyLocationENS0_17PropertyConstnessENS0_14RepresentationEi
__ZN2v88internal3Map20CopyInsertDescriptorEPNS0_7IsolateENS0_6HandleIS1_EEPNS0_10DescriptorENS0_14TransitionFlagE
__ZN2v88internal4wasm21WasmFeaturesFromFlagsEv
__ZN2v88internal19InstallGetterSetterEPNS0_7IsolateENS0_6HandleINS0_8JSObjectEEEPKcPFvRKNS_20FunctionCallbackInfoINS_5ValueEEEESE_
__ZN2v88internal7Isolate37sloppy_function_without_prototype_mapEv
__ZN2v88internal11HandleScope16DeleteExtensionsEPNS0_7IsolateE
__ZN2v88internal11SaveContextD2Ev
__ZN2v88internal4Heap23NotifyBootstrapCompleteEv
__ZN2v88internal11HandleScope14CloseAndEscapeINS0_7ContextEEENS0_6HandleIT_EES6_
__ZN2v85Utils7ConvertINS_8internal7ContextENS_7ContextEEENS_5LocalIT0_EENS2_6HandleIT_EE
__ZN4node17InitializeContextEN2v85LocalINS0_7ContextEEE
__ZN2v87Context10GetIsolateEv
__ZN2v87Context15SetEmbedderDataEiNS_5LocalINS_5ValueEEE
__ZN2v8L15EmbedderDataForEPNS_7ContextEibPKc
__ZNK2v88internal7Context13embedder_dataEv
__ZN2v88internal17EmbedderDataArray14EnsureCapacityEPNS0_7IsolateENS0_6HandleIS1_EEi
__ZN2v88internal7Factory20NewEmbedderDataArrayEi
__ZN2v88internal16EmbedderDataSlot12store_taggedENS0_17EmbedderDataArrayEiNS0_6ObjectE
__ZN2v87Context5EnterEv
__ZN2v88internal22HandleScopeImplementer12EnterContextENS0_7ContextE
__ZN2v88internal16DetachableVectorINS0_7ContextEE6ResizeEm
__ZN2v88internal16DetachableVectorIaE6ResizeEm
__ZN2v86String14NewFromOneByteEPNS_7IsolateEPKhNS_13NewStringTypeEi
__ZN2v86Object3NewEPNS_7IsolateE
__ZN2v86Object12SetPrototypeENS_5LocalINS_7ContextEEENS1_INS_5ValueEEE
__ZN2v8L27IsExecutionTerminatingCheckEPNS_8internal7IsolateE
__ZN2v88internal7Isolate23has_scheduled_exceptionEv
__ZN2v812_GLOBAL__N_114CallDepthScopeILb1EEC1EPNS_8internal7IsolateENS_5LocalINS_7ContextEEE
__ZN2v88internal15InterruptsScopeC1EPNS0_7IsolateElNS1_4ModeE
__ZN2v88internal10StackGuard19PushInterruptsScopeEPNS0_15InterruptsScopeE
__ZN2v88TryCatchC2EPNS_7IsolateE
__ZN2v88internal7Isolate23RegisterTryCatchHandlerEPNS_8TryCatchE
__ZN2v88internal10JSReceiver12SetPrototypeENS0_6HandleIS1_EENS2_INS0_6ObjectEEEbNS0_11ShouldThrowE
__ZN2v88internal8JSObject12SetPrototypeENS0_6HandleIS1_EENS2_INS0_6ObjectEEEbNS0_11ShouldThrowE
__ZNK2v88internal10HeapObject19IsAccessCheckNeededEPNS0_7IsolateE
__ZN2v88internal7Isolate37UpdateNoElementsProtectorOnSetElementENS0_6HandleINS0_8JSObjectEEE
__ZN2v88internal3Map21TransitionToPrototypeEPNS0_7IsolateENS0_6HandleIS1_EENS4_INS0_10HeapObjectEEE
__ZN2v88internal19TransitionsAccessor22GetPrototypeTransitionENS0_6HandleINS0_6ObjectEEE
__ZN2v88internal19TransitionsAccessor23GetPrototypeTransitionsEv
__ZN2v88internal15TransitionArray28NumberOfPrototypeTransitionsENS0_14WeakFixedArrayE
__ZN2v88internal19TransitionsAccessor22PutPrototypeTransitionENS0_6HandleINS0_6ObjectEEENS2_INS0_3MapEEE
__ZN2v88internal15TransitionArray31CompactPrototypeTransitionArrayEPNS0_7IsolateENS0_14WeakFixedArrayE
__ZN2v88internal15TransitionArray28GrowPrototypeTransitionArrayENS0_6HandleINS0_14WeakFixedArrayEEEiPNS0_7IsolateE
__ZN2v88internal7Factory25CopyWeakFixedArrayAndGrowENS0_6HandleINS0_14WeakFixedArrayEEEi
__ZN2v88internal7Factory16CopyArrayAndGrowINS0_14WeakFixedArrayEEENS0_6HandleIT_EES6_iNS0_14AllocationTypeE
__ZN2v88internal14WeakFixedArray12CopyElementsEPNS0_7IsolateEiS1_iiNS0_16WriteBarrierModeE
__ZN2v88internal15TransitionArray31SetNumberOfPrototypeTransitionsENS0_14WeakFixedArrayEi
__ZN2v88internal14WeakFixedArray3SetEiNS0_11MaybeObjectE
__ZN2v88internal19TransitionsAccessor23SetPrototypeTransitionsENS0_6HandleINS0_14WeakFixedArrayEEE
__ZN2v88internal19TransitionsAccessor28EnsureHasFullTransitionArrayEv
__ZN2v88internal7Factory18NewTransitionArrayEii
__ZN2v88internal7Factory24NewWeakFixedArrayWithMapINS0_15TransitionArrayEEENS0_6HandleIT_EENS0_9RootIndexEiNS0_14AllocationTypeE
__ZN2v88internal19TransitionsAccessor18ReplaceTransitionsENS0_11MaybeObjectE
__ZN2v88internal3Map19set_raw_transitionsENS0_11MaybeObjectENS0_16WriteBarrierModeE
__ZN2v88TryCatchD2Ev
__ZN2v88internal7Isolate25UnregisterTryCatchHandlerEPNS_8TryCatchE
__ZN2v812_GLOBAL__N_114CallDepthScopeILb1EED1Ev
__ZN2v88internal7Isolate25FireCallCompletedCallbackEPNS0_14MicrotaskQueueE
__ZN2v88internal10StackGuard18PopInterruptsScopeEv
__ZN4node20GetPerContextExportsEN2v85LocalINS0_7ContextEEE
__ZN2v820EscapableHandleScopeC1EPNS_7IsolateE
__ZN2v87Context6GlobalEv
__ZN2v87Private6ForApiEPNS_7IsolateENS_5LocalINS_6StringEEE
__ZN2v88internal7Isolate9SymbolForENS0_9RootIndexENS0_6HandleINS0_6StringEEEb
__ZN2v88internal9HashTableINS0_14NameDictionaryENS0_19NameDictionaryShapeEE9FindEntryENS0_13ReadOnlyRootsENS0_6HandleINS0_4NameEEEi
__ZN2v88internal7Factory16NewPrivateSymbolENS0_14AllocationTypeE
__ZN2v88internal7Factory9NewSymbolENS0_14AllocationTypeE
__ZN2v88internal7Isolate20GenerateIdentityHashEj
__ZN2v84base21RandomNumberGenerator4NextEi
__ZN2v88internal18BaseNameDictionaryINS0_14NameDictionaryENS0_19NameDictionaryShapeEE3AddEPNS0_7IsolateENS0_6HandleIS2_EENS7_INS0_4NameEEENS7_INS0_6ObjectEEENS0_15PropertyDetailsEPNS0_13InternalIndexE
__ZN2v88internal18BaseNameDictionaryINS0_14NameDictionaryENS0_19NameDictionaryShapeEE20NextEnumerationIndexEv
__ZN2v88internal10DictionaryINS0_14NameDictionaryENS0_19NameDictionaryShapeEE3AddEPNS0_7IsolateENS0_6HandleIS2_EENS7_INS0_4NameEEENS7_INS0_6ObjectEEENS0_15PropertyDetailsEPNS0_13InternalIndexE
__ZN2v88internal18BaseNameDictionaryINS0_14NameDictionaryENS0_19NameDictionaryShapeEE14EnsureCapacityEPNS0_7IsolateENS0_6HandleIS2_EEi
__ZN2v88internal9HashTableINS0_14NameDictionaryENS0_19NameDictionaryShapeEE14EnsureCapacityEPNS0_7IsolateENS0_6HandleIS2_EEiNS0_14AllocationTypeE
__ZN2v88internal9HashTableINS0_14NameDictionaryENS0_19NameDictionaryShapeEE18FindInsertionEntryEj
__ZN2v88internal10DictionaryINS0_14NameDictionaryENS0_19NameDictionaryShapeEE8SetEntryEPNS0_7IsolateENS0_13InternalIndexENS0_6ObjectES8_NS0_15PropertyDetailsE
__ZN2v88internal18BaseNameDictionaryINS0_14NameDictionaryENS0_19NameDictionaryShapeEE23SetNextEnumerationIndexEi
__ZN2v85Utils7ConvertINS_8internal6SymbolENS_6SymbolEEENS_5LocalIT0_EENS2_6HandleIT_EE
__ZN2v86Object10GetPrivateENS_5LocalINS_7ContextEEENS1_INS_7PrivateEEE
__ZN2v86Object3GetENS_5LocalINS_7ContextEEENS1_INS_5ValueEEE
__ZN2v812_GLOBAL__N_114CallDepthScopeILb0EEC1EPNS_8internal7IsolateENS_5LocalINS_7ContextEEE
__ZN2v88internal7Runtime17GetObjectPropertyEPNS0_7IsolateENS0_6HandleINS0_6ObjectEEES6_Pb
__ZN2v88internal14LookupIterator17PropertyOrElementEPNS0_7IsolateENS0_6HandleINS0_6ObjectEEES6_PbNS1_13ConfigurationE
__ZNK2v88internal6Object9IsTheHoleEv
__ZN2v820EscapableHandleScope6EscapeEPm
__ZN2v812_GLOBAL__N_114CallDepthScopeILb0EED1Ev
__ZNK2v85Value8IsObjectEv
__ZN2v86Object10SetPrivateENS_5LocalINS_7ContextEEENS1_INS_7PrivateEEENS1_INS_5ValueEEE
__ZN2v88internal8JSObject33DefineOwnPropertyIgnoreAttributesEPNS0_14LookupIteratorENS0_6HandleINS0_6ObjectEEENS0_18PropertyAttributesENS1_20AccessorInfoHandlingE
__ZN2v88internal8JSObject33DefineOwnPropertyIgnoreAttributesEPNS0_14LookupIteratorENS0_6HandleINS0_6ObjectEEENS0_18PropertyAttributesENS_5MaybeINS0_11ShouldThrowEEENS1_20AccessorInfoHandlingE
__ZN2v811HandleScopeD2Ev
__ZN2v86Object3SetENS_5LocalINS_7ContextEEENS1_INS_5ValueEEES5_
__ZN2v88internal7Runtime17SetObjectPropertyEPNS0_7IsolateENS0_6HandleINS0_6ObjectEEES6_S6_NS0_11StoreOriginENS_5MaybeINS0_11ShouldThrowEEE
__ZN2v88internal6Object11SetPropertyEPNS0_14LookupIteratorENS0_6HandleIS1_EENS0_11StoreOriginENS_5MaybeINS0_11ShouldThrowEEE
__ZN2v88internal15TransitionArray18SearchAndGetTargetENS0_12PropertyKindENS0_4NameENS0_18PropertyAttributesE
__ZNK2v88internal15TransitionArray21number_of_transitionsEv
__ZN2v88internal19TransitionsAccessor22CanHaveMoreTransitionsEv
__ZN2v88internal3Map17ConnectTransitionEPNS0_7IsolateENS0_6HandleIS1_EES5_NS4_INS0_4NameEEENS0_20SimpleTransitionFlagE
__ZN2v88internal19TransitionsAccessor6InsertENS0_6HandleINS0_4NameEEENS2_INS0_3MapEEENS0_20SimpleTransitionFlagE
__ZN2v88internal3Map14SetBackPointerENS0_10HeapObjectENS0_16WriteBarrierModeE
__ZN2v88internal19TransitionsAccessor19IsSpecialTransitionENS0_13ReadOnlyRootsENS0_4NameE
__ZN2v88internal19TransitionsAccessor16GetTargetDetailsENS0_4NameENS0_3MapE
__ZN2v88internal4Name6EqualsES1_
__ZN2v88internal15TransitionArray6SearchENS0_12PropertyKindENS0_4NameENS0_18PropertyAttributesEPi
__ZN2v88internal3Map17SlackForArraySizeEii
__ZN2v88internal15TransitionArray23GetPrototypeTransitionsEv
__ZN2v88internal19TransitionsAccessor32CheckNewTransitionsAreConsistentENS0_15TransitionArrayENS0_6ObjectE
__ZN2v88internal15TransitionArray3ZapEPNS0_7IsolateE
__ZN2v88internal3Map37GetOrCreatePrototypeChainValidityCellENS0_6HandleIS1_EEPNS0_7IsolateE
__ZNK2v88internal3Map24GetPrototypeChainRootMapEPNS0_7IsolateE
__ZN2v88internal8JSObject25LazyRegisterPrototypeUserENS0_6HandleINS0_3MapEEEPNS0_7IsolateE
__ZN2v88internal3Map24GetOrCreatePrototypeInfoENS0_6HandleIS1_EEPNS0_7IsolateE
__ZN2v88internal17PrototypeIteratorC2EPNS0_7IsolateENS0_6HandleINS0_3MapEEENS1_10WhereToEndE
__ZN2v88internal7Factory7NewCellENS0_6HandleINS0_6ObjectEEE
__ZN4node13native_module15NativeModuleEnv16LookupAndCompileEN2v85LocalINS2_7ContextEEEPKcPNSt3__16vectorINS3_INS2_6StringEEENS8_9allocatorISB_EEEEPNS_11EnvironmentE
__ZN4node13native_module18NativeModuleLoader11GetInstanceEv
__ZN4node13native_module18NativeModuleLoader16LookupAndCompileEN2v85LocalINS2_7ContextEEEPKcPNSt3__16vectorINS3_INS2_6StringEEENS8_9allocatorISB_EEEEPNS1_6ResultE
__ZNSt3__16__treeINS_12__value_typeINS_12basic_stringIcNS_11char_traitsIcEENS_9allocatorIcEEEEN4node10UnionBytesEEENS_19__map_value_compareIS7_SA_NS_4lessIS7_EELb1EEENS5_ISA_EEE4findIS7_EENS_15__tree_iteratorISA_PNS_11__tree_nodeISA_PvEElEERKT_
__ZNK4node10UnionBytes15ToStringCheckedEPN2v87IsolateE
__ZN2v86String18NewExternalOneByteEPNS_7IsolateEPNS0_29ExternalOneByteStringResourceE
__ZNK4node32NonOwningExternalOneByteResource6lengthEv
__ZNK4node32NonOwningExternalOneByteResource4dataEv
__ZN2v88internal7Factory28NewExternalStringFromOneByteEPKNS_6String29ExternalOneByteStringResourceE
__ZNK2v86String26ExternalStringResourceBase11IsCacheableEv
__ZN2v88internal4Heap20UpdateExternalStringENS0_6StringEmm
__ZN2v88internal4Heap19ExternalStringTable9AddStringENS0_6StringE
__ZN2v88internal4Heap19ExternalStringTable8ContainsENS0_6StringE
__ZNSt3__112basic_stringIcNS_11char_traitsIcEENS_9allocatorIcEEE6insertEmPKc
__ZN2v87Integer3NewEPNS_7IsolateEi
__ZNK2v85Value6IsTrueEv
__ZNK2v88internal6Object6IsTrueEv
__ZNSt3__112__hash_tableINS_17__hash_value_typeINS_12basic_stringIcNS_11char_traitsIcEENS_9allocatorIcEEEENS_10unique_ptrIN2v814ScriptCompiler10CachedDataENS_14default_deleteISB_EEEEEENS_22__unordered_map_hasherIS7_SF_NS_4hashIS7_EELb1EEENS_21__unordered_map_equalIS7_SF_NS_8equal_toIS7_EELb1EEENS5_ISF_EEE4findIS7_EENS_15__hash_iteratorIPNS_11__hash_nodeISF_PvEEEERKT_
__ZN2v814ScriptCompiler24CompileFunctionInContextENS_5LocalINS_7ContextEEEPNS0_6SourceEmPNS1_INS_6StringEEEmPNS1_INS_6ObjectEEENS0_14CompileOptionsENS0_13NoCacheReasonEPNS1_INS_14ScriptOrModuleEEE
__ZN2v88internal21IsIdentifierStartSlowEi
_u_hasBinaryProperty_64
__ZL15defaultContainsRK14BinaryPropertyi9UProperty
_u_getUnicodeProperties_64
__ZN2v88internal6String14GetFlatContentERKNS0_29PerThreadAssertScopeDebugOnlyILNS0_19PerThreadAssertTypeE0ELb0EEE
__ZNK2v88internal6String11FlatContent15ToOneByteVectorEv
__ZN2v88internal20IsIdentifierPartSlowEi
__ZN2v812_GLOBAL__N_116GetScriptDetailsEPNS_8internal7IsolateENS_5LocalINS_5ValueEEENS4_INS_7IntegerEEES8_S6_NS4_INS_14PrimitiveArrayEEE
__ZN2v88internal8Compiler18GetWrappedFunctionENS0_6HandleINS0_6StringEEENS2_INS0_10FixedArrayEEENS2_INS0_7ContextEEERKNS1_13ScriptDetailsENS_19ScriptOriginOptionsEPNS0_10ScriptDataENS_14ScriptCompiler14CompileOptionsENSF_13NoCacheReasonE
__ZN2v88internal12_GLOBAL__N_123ScriptCompileTimerScopeC1EPNS0_7IsolateENS_14ScriptCompiler13NoCacheReasonE
__ZN2v88internal14TimedHistogram5StartEPNS_4base12ElapsedTimerEPNS0_7IsolateE
__ZN2v88internal9ParseInfoC1EPNS0_7IsolateE
__ZN2v88internal9ParseInfoC1EPNS0_7IsolateEPNS0_19AccountingAllocatorE
__ZNK2v88internal7Isolate34NeedsDetailedOptimizedCodeLineInfoEv
__ZNK2v88internal18CompilerDispatcher9IsEnabledEv
__ZN2v88internal12_GLOBAL__N_19NewScriptEPNS0_7IsolateEPNS0_9ParseInfoENS0_6HandleINS0_6StringEEENS0_8Compiler13ScriptDetailsENS_19ScriptOriginOptionsENS0_11NativesFlagE
__ZN2v88internal9ParseInfo12CreateScriptEPNS0_7IsolateENS0_6HandleINS0_6StringEEENS_19ScriptOriginOptionsENS0_11NativesFlagE
__ZN2v88internal7Factory15NewScriptWithIdENS0_6HandleINS0_6StringEEEi
__ZN2v88internal6Script41set_eval_from_shared_or_wrapped_argumentsENS0_6ObjectENS0_16WriteBarrierModeE
__ZN2v88internal6Script25set_shared_function_infosENS0_14WeakFixedArrayENS0_16WriteBarrierModeE
__ZN2v88internal13WeakArrayList8AddToEndEPNS0_7IsolateENS0_6HandleIS1_EERKNS0_17MaybeObjectHandleE
__ZN2v88internal13WeakArrayList3SetEiNS0_11MaybeObjectENS0_16WriteBarrierModeE
__ZNK2v88internal7Isolate32NeedsSourcePositionsForProfilingEv
__ZN2v88internal9ParseInfo27SetScriptForToplevelCompileEPNS0_7IsolateENS0_6HandleINS0_6ScriptEEE
__ZN2v88internal9ParseInfo10set_scriptENS0_6HandleINS0_6ScriptEEE
__ZN2v88internal12_GLOBAL__N_115CompileToplevelEPNS0_9ParseInfoEPNS0_7IsolateEPNS0_15IsCompiledScopeE
__ZN2v88internal15TimerEventScopeINS0_21TimerEventCompileCodeEE13LogTimerEventENS0_6Logger8StartEndE
__ZN2v88internal15InterruptsScopeC2EPNS0_7IsolateElNS1_4ModeE
__ZN2v88internal7parsing12ParseProgramEPNS0_9ParseInfoEPNS0_7IsolateENS1_29ReportErrorsAndStatisticsModeE
__ZN2v88internal13ScannerStream3ForEPNS0_7IsolateENS0_6HandleINS0_6StringEEE
__ZN2v88internal13ScannerStream3ForEPNS0_7IsolateENS0_6HandleINS0_6StringEEEii
__ZN2v88internal24ScopedExternalStringLockC2ENS0_14ExternalStringE
__ZNK2v86String26ExternalStringResourceBase4LockEv
__ZN2v88internal9ParseInfo20set_character_streamENSt3__110unique_ptrINS0_20Utf16CharacterStreamENS2_14default_deleteIS4_EEEE
__ZN2v88internal6ParserC1EPNS0_9ParseInfoE
__ZN2v88internal6ParserC2EPNS0_9ParseInfoE
__ZN2v88internal9ParseInfo26GetOrCreateAstValueFactoryEv
__ZN2v88internal15AstValueFactoryC2EPNS0_4ZoneEPKNS0_18AstStringConstantsEy
__ZN2v88internal15AstValueFactory13NewConsStringEv
__ZN2v88internal10ParserBaseINS0_6ParserEEC2EPNS0_4ZoneEPNS0_7ScannerEmPNS_9ExtensionEPNS0_15AstValueFactoryEPNS0_30PendingCompilationErrorHandlerEPNS0_16RuntimeCallStatsEPNS0_6LoggerEibb
__ZN2v88internal16FuncNameInferrerC1EPNS0_15AstValueFactoryE
__ZN2v88internal7ScannerC1EPNS0_20Utf16CharacterStreamEb
__ZN2v88internal6Parser12ParseProgramEPNS0_7IsolateEPNS0_9ParseInfoE
__ZN2v88internal6Parser21DeserializeScopeChainEPNS0_7IsolateEPNS0_9ParseInfoENS0_11MaybeHandleINS0_9ScopeInfoEEENS0_5Scope19DeserializationModeE
__ZN2v88internal16DeclarationScopeC1EPNS0_4ZoneEPNS0_15AstValueFactoryE
__ZN2v88internal16DeclarationScopeC2EPNS0_4ZoneEPNS0_15AstValueFactoryE
__ZN2v88internal5ScopeC2EPNS0_4ZoneE
__ZN2v88internal11VariableMap7DeclareEPNS0_4ZoneEPNS0_5ScopeEPKNS0_12AstRawStringENS0_12VariableModeENS0_12VariableKindENS0_18InitializationFlagENS0_17MaybeAssignedFlagENS0_12IsStaticFlagEPb
__ZN2v84base19TemplateHashMapImplIPvS2_NS0_18KeyEqualityMatcherIS2_EENS_8internal20ZoneAllocationPolicyEE14FillEmptyEntryEPNS0_20TemplateHashMapEntryIS2_S2_EERKS2_SC_jS6_
__ZN2v88internal8VariableC2EPNS0_5ScopeEPKNS0_12AstRawStringENS0_12VariableModeENS0_12VariableKindENS0_18InitializationFlagENS0_17MaybeAssignedFlagENS0_12IsStaticFlagE
__ZN2v88internal7Scanner10InitializeEv
__ZN2v88internal20Utf16CharacterStream16ReadBlockCheckedEv
__ZN2v88internal23BufferedCharacterStreamINS0_20ExternalStringStreamEE9ReadBlockEv
__ZN2v88internal9CopyCharsIhtEEvPT0_PKT_m
__ZN2v88internal7Scanner4ScanEPNS1_9TokenDescE
__ZN2v88internal7Scanner15ScanSingleTokenEv
__ZN2v88internal7Scanner10ScanStringEv
__ZN2v88internal13LiteralBuffer14AddOneByteCharEh
__ZN2v88internal13LiteralBuffer12ExpandBufferEv
__ZN2v88internal7Scanner12SkipHashBangEv
__ZN2v88internal6Parser14DoParseProgramEPNS0_7IsolateEPNS0_9ParseInfoE
__ZN2v88internal16DeclarationScopeC1EPNS0_4ZoneEPNS0_5ScopeENS0_9ScopeTypeENS0_12FunctionKindE
__ZN2v88internal16DeclarationScopeC2EPNS0_4ZoneEPNS0_5ScopeENS0_9ScopeTypeENS0_12FunctionKindE
__ZN2v88internal5ScopeC2EPNS0_4ZoneEPS1_NS0_9ScopeTypeE
__ZN2v88internal5Scope18AsDeclarationScopeEv
__ZN2v88internal6Parser12ParseWrappedEPNS0_7IsolateEPNS0_9ParseInfoEPNS0_10ScopedListIPNS0_9StatementEPvEEPNS0_16DeclarationScopeEPNS0_4ZoneE
__ZN2v88internal6Parser23PrepareWrappedArgumentsEPNS0_7IsolateEPNS0_9ParseInfoEPNS0_4ZoneE
__ZN2v88internal8ZoneListIPKNS0_12AstRawStringEEC2EiPNS0_4ZoneE
__ZN2v88internal15AstValueFactory9GetStringENS0_6HandleINS0_6StringEEE
__ZN2v88internal15AstValueFactory24GetOneByteStringInternalENS0_6VectorIKhEE
__ZN2v88internal15AstValueFactory9GetStringEjbNS0_6VectorIKhEE
__ZN2v88internal4Zone8NewArrayIhEEPT_m
__ZN2v88internal6Parser20ParseFunctionLiteralEPKNS0_12AstRawStringENS0_7Scanner8LocationENS0_20FunctionNameValidityENS0_12FunctionKindEiNS0_18FunctionSyntaxKindENS0_12LanguageModeEPNS0_8ZoneListIS4_EE
__ZNK2v88internal5Scope43AllowsLazyParsingWithoutUnresolvedVariablesEPKS1_
__ZN2v88internal16DeclarationScope31DeclareDefaultFunctionVariablesEPNS0_15AstValueFactoryE
__ZN2v88internal6Parser13ParseFunctionEPNS0_10ScopedListIPNS0_9StatementEPvEEPKNS0_12AstRawStringEiNS0_12FunctionKindENS0_18FunctionSyntaxKindEPNS0_16DeclarationScopeEPiSF_PbSF_SF_PNS0_8ZoneListISA_EE
__ZN2v88internal16FuncNameInferrer16PushVariableNameEPKNS0_12AstRawStringE
__ZN2v88internal15ExpressionScopeINS0_11ParserTypesINS0_6ParserEEEE11NewVariableEPKNS0_12AstRawStringEi
__ZN2v88internal32ParameterDeclarationParsingScopeINS0_11ParserTypesINS0_6ParserEEEE7DeclareEPKNS0_12AstRawStringEi
__ZN2v88internal6Parser15DeclareVariableEPKNS0_12AstRawStringENS0_12VariableKindENS0_12VariableModeENS0_18InitializationFlagEPNS0_5ScopeEPbii
__ZN2v88internal6Parser7DeclareEPNS0_11DeclarationEPKNS0_12AstRawStringENS0_12VariableKindENS0_12VariableModeENS0_18InitializationFlagEPNS0_5ScopeEPbii
__ZN2v88internal5Scope15DeclareVariableEPNS0_11DeclarationEPKNS0_12AstRawStringEiNS0_12VariableModeENS0_12VariableKindENS0_18InitializationFlagEPbSA_SA_
__ZNK2v84base19TemplateHashMapImplIPvS2_NS0_18KeyEqualityMatcherIS2_EENS_8internal20ZoneAllocationPolicyEE6LookupERKS2_j
__ZN2v88internal5Scope12DeclareLocalEPKNS0_12AstRawStringENS0_12VariableModeENS0_12VariableKindEPbNS0_18InitializationFlagE
__ZN2v88internal13VariableProxy6BindToEPNS0_8VariableE
__ZN2v88internal6Parser23DeclareFormalParametersEPNS0_22ParserFormalParametersE
__ZN2v88internal16DeclarationScope16DeclareParameterEPKNS0_12AstRawStringENS0_12VariableModeEbbPNS0_15AstValueFactoryEi
__ZN2v88internal10ParserBaseINS0_6ParserEE17ParseFunctionBodyEPNS0_10ScopedListIPNS0_9StatementEPvEEPKNS0_12AstRawStringEiRKNS0_22ParserFormalParametersENS0_12FunctionKindENS0_18FunctionSyntaxKindENS3_16FunctionBodyTypeE
__ZN2v88internal10ParserBaseINS0_6ParserEE18ParseStatementListEPNS0_10ScopedListIPNS0_9StatementEPvEENS0_5Token5ValueE
__ZN2v88internal7Scanner24NextLiteralExactlyEqualsILm11EEEbRAT__Kc
__ZNK2v88internal13LiteralBuffer7literalIhEENS0_6VectorIKT_EEv
__ZN2v88internal10ParserBaseINS0_6ParserEE22ParseStatementListItemEv
__ZN2v88internal10ParserBaseINS0_6ParserEE14ParseStatementEPNS0_8ZoneListIPKNS0_12AstRawStringEEES9_NS0_30AllowLabelledFunctionStatementE
__ZN2v88internal10ParserBaseINS0_6ParserEE34ParseExpressionOrLabelledStatementEPNS0_8ZoneListIPKNS0_12AstRawStringEEES9_NS0_30AllowLabelledFunctionStatementE
__ZN2v88internal10ParserBaseINS0_6ParserEE27ParseExpressionCoverGrammarEv
__ZN2v88internal10ParserBaseINS0_6ParserEE37ParseAssignmentExpressionCoverGrammarEv
__ZN2v88internal10ParserBaseINS0_6ParserEE22ParseLogicalExpressionEv
__ZN2v88internal10ParserBaseINS0_6ParserEE20ParseUnaryExpressionEv
__ZN2v88internal10ParserBaseINS0_6ParserEE22ParsePrimaryExpressionEv
__ZN2v88internal7Scanner4NextEv
__ZN2v88internal6Parser21ExpressionFromLiteralENS0_5Token5ValueEi
__ZNK2v88internal7Scanner13CurrentSymbolEPNS0_15AstValueFactoryE
__ZN2v88internal16FuncNameInferrer5StateD1Ev
__ZN2v88internal10ParserBaseINS0_6ParserEE22ClassifyArrowParameterEPNS0_17AccumulationScopeINS0_11ParserTypesIS2_EEEEiPNS0_10ExpressionE
__ZN2v88internal17AccumulationScopeINS0_11ParserTypesINS0_6ParserEEEE10AccumulateEv
__ZN2v88internal15ExpressionScopeINS0_11ParserTypesINS0_6ParserEEEE22RecordDeclarationErrorERKNS0_7Scanner8LocationENS0_15MessageTemplateE
__ZN2v88internal10ScopedListIPNS0_10ExpressionEPvE3AddERKS3_
__ZN2v88internal10ScopedListIPNS0_10ExpressionEPvE6RewindEv
__ZN2v88internal10ScopedListINSt3__14pairIPNS0_13VariableProxyEiEES6_E6RewindEv
__ZN2v88internal10ParserBaseINS0_6ParserEE15ExpectSemicolonEv
__ZN2v88internal7Scanner14SkipWhiteSpaceEv
__ZN2v88internal16IsWhiteSpaceSlowEi
_u_charType_64
__ZN2v88internal7Scanner20SkipMultiLineCommentEv
__ZN2v88internal7Scanner28ScanIdentifierOrKeywordInnerEv
__ZN2v88internal10ScopedListIPNS0_9StatementEPvE3AddERKS3_
__ZN2v88internal5Scope19HasSimpleParametersEv
__ZN2v88internal10ParserBaseINS0_6ParserEE25ParseVariableDeclarationsENS3_26VariableDeclarationContextEPNS3_24DeclarationParsingResultEPNS0_8ZoneListIPKNS0_12AstRawStringEEE
__ZN2v88internal10ParserBaseINS0_6ParserEE26ParseAndClassifyIdentifierENS0_5Token5ValueE
__ZN2v88internal18PointerWithPayloadIKNS0_12AstRawStringENS0_16FuncNameInferrer8NameTypeELi2EE6updateEPS3_S5_
__ZN2v88internal31VariableDeclarationParsingScopeINS0_11ParserTypesINS0_6ParserEEEE7DeclareEPKNS0_12AstRawStringEi
__ZN2v88internal10ParserBaseINS0_6ParserEE25ParseAssignmentExpressionEv
__ZN2v88internal5Scope13AddUnresolvedEPNS0_13VariableProxyE
__ZN2v84base16ThreadedListBaseINS_8internal13VariableProxyENS0_9EmptyBaseENS3_14UnresolvedNextEE3AddEPS3_
__ZN2v88internal10ScopedListINSt3__14pairIPNS0_13VariableProxyEiEES6_E3AddERKS6_
__ZN2v88internal10ParserBaseINS0_6ParserEE35DoParseMemberExpressionContinuationEPNS0_10ExpressionE
__ZN2v88internal10ParserBaseINS0_6ParserEE34ParsePropertyOrPrivatePropertyNameEv
__ZN2v88internal16FuncNameInferrer15PushLiteralNameEPKNS0_12AstRawStringE
__ZNK2v88internal10Expression29IsAnonymousFunctionDefinitionEv
__ZNK2v88internal10Expression25IsConciseMethodDefinitionEv
__ZNK2v88internal10Expression28IsAccessorFunctionDefinitionEv
__ZN2v88internal6Parser24BuildInitializationBlockEPNS0_10ParserBaseIS1_E24DeclarationParsingResultE
__ZN2v88internal6Parser19InitializeVariablesEPNS0_10ScopedListIPNS0_9StatementEPvEENS0_12VariableKindEPKNS0_10ParserBaseIS1_E24DeclarationParsingResult11DeclarationE
__ZN2v88internal10AssignmentC1ENS0_7AstNode8NodeTypeENS0_5Token5ValueEPNS0_10ExpressionES7_i
__ZNK2v88internal10ScopedListIPNS0_9StatementEPvE6CopyToEPNS0_8ZoneListIS3_EEPNS0_4ZoneE
__ZN2v88internal8ZoneListIPNS0_9StatementEE6AddAllERKNS0_6VectorIS3_EEPNS0_4ZoneE
__ZN2v88internal10ScopedListIPNS0_9StatementEPvE6RewindEv
__ZN2v88internal10ParserBaseINS0_6ParserEE25ParseHoistableDeclarationEPNS0_8ZoneListIPKNS0_12AstRawStringEEEb
__ZN2v88internal10ParserBaseINS0_6ParserEE25ParseHoistableDeclarationEiNS_4base5FlagsINS0_17ParseFunctionFlagEiEEPNS0_8ZoneListIPKNS0_12AstRawStringEEEb
__ZN2v88internal10ParserBaseINS0_6ParserEE15ParseIdentifierEv
__ZN2v88internal16FuncNameInferrer17PushEnclosingNameEPKNS0_12AstRawStringE
__ZNK2v88internal12AstRawString14FirstCharacterEv
__ZN7unibrow9Uppercase2IsEj
_u_isupper_64
__ZN2v88internal6Parser12SkipFunctionEPKNS0_12AstRawStringENS0_12FunctionKindENS0_18FunctionSyntaxKindEPNS0_16DeclarationScopeEPiS9_PPNS0_20ProducedPreparseDataE
__ZN2v88internal7Scanner13BookmarkScope3SetEm
__ZN2v88internal24PrivateNameScopeIteratorC1EPNS0_5ScopeE
__ZN2v88internal6Parser18reusable_preparserEv
__ZN2v88internal10ParserBaseINS0_9PreParserEEC2EPNS0_4ZoneEPNS0_7ScannerEmPNS_9ExtensionEPNS0_15AstValueFactoryEPNS0_30PendingCompilationErrorHandlerEPNS0_16RuntimeCallStatsEPNS0_6LoggerEibb
__ZN2v88internal9PreParser16PreParseFunctionEPKNS0_12AstRawStringENS0_12FunctionKindENS0_18FunctionSyntaxKindEPNS0_16DeclarationScopeEPiPPNS0_20ProducedPreparseDataEi
__ZN2v88internal19PreparseDataBuilder18DataGatheringScope5StartEPNS0_16DeclarationScopeE
__ZN2v88internal10ParserBaseINS0_9PreParserEE24ParseFormalParameterListEPNS0_25PreParserFormalParametersE
__ZN2v88internal10ParserBaseINS0_9PreParserEE20ParseFormalParameterEPNS0_25PreParserFormalParametersE
__ZN2v88internal10ParserBaseINS0_9PreParserEE19ParseBindingPatternEv
__ZN2v88internal10ParserBaseINS0_9PreParserEE26ParseAndClassifyIdentifierENS0_5Token5ValueE
__ZNK2v88internal9PreParser13GetIdentifierEv
__ZN2v88internal15ExpressionScopeINS0_11ParserTypesINS0_9PreParserEEEE11NewVariableEPKNS0_12AstRawStringEi
__ZN2v88internal32ParameterDeclarationParsingScopeINS0_11ParserTypesINS0_9PreParserEEEE7DeclareEPKNS0_12AstRawStringEi
__ZN2v88internal9PreParser19DeclareVariableNameEPKNS0_12AstRawStringENS0_12VariableModeEPNS0_5ScopeEPbiNS0_12VariableKindE
__ZN2v88internal5Scope19DeclareVariableNameEPKNS0_12AstRawStringENS0_12VariableModeEPbNS0_12VariableKindE
__ZN2v88internal16DeclarationScope15RecordParameterEb
__ZN2v88internal10ParserBaseINS0_9PreParserEE22CheckArityRestrictionsEiNS0_12FunctionKindEbii
__ZN2v88internal9PreParser32ParseStatementListAndLogFunctionEPNS0_25PreParserFormalParametersE
__ZN2v88internal10ParserBaseINS0_9PreParserEE18ParseStatementListEPNS0_28PreParserScopedStatementListENS0_5Token5ValueE
__ZN2v88internal10ParserBaseINS0_9PreParserEE22ParseStatementListItemEv
__ZN2v88internal10ParserBaseINS0_9PreParserEE14ParseStatementEPNS0_8ZoneListIPKNS0_12AstRawStringEEES9_NS0_30AllowLabelledFunctionStatementE
__ZN2v88internal10ParserBaseINS0_9PreParserEE20ParseReturnStatementEv
__ZN2v88internal5Scope19GetDeclarationScopeEv
__ZN2v88internal10ParserBaseINS0_9PreParserEE15ParseExpressionEv
__ZN2v88internal10ParserBaseINS0_9PreParserEE27ParseExpressionCoverGrammarEv
__ZN2v88internal10ParserBaseINS0_9PreParserEE37ParseAssignmentExpressionCoverGrammarEv
__ZN2v88internal10ParserBaseINS0_9PreParserEE22ParseLogicalExpressionEv
__ZN2v88internal10ParserBaseINS0_9PreParserEE20ParseUnaryExpressionEv
__ZN2v88internal10ParserBaseINS0_9PreParserEE22ParsePrimaryExpressionEv
__ZN2v88internal18PointerWithPayloadINS0_5ScopeEbLi1EE6updateEPS2_b
__ZN2v88internal5Scope15GetClosureScopeEv
__ZN2v88internal10ParserBaseINS0_9PreParserEE22ClassifyArrowParameterEPNS0_17AccumulationScopeINS0_11ParserTypesIS2_EEEEiNS0_19PreParserExpressionE
__ZN2v88internal17AccumulationScopeINS0_11ParserTypesINS0_9PreParserEEEE10AccumulateEv
__ZN2v88internal10ScopedListINSt3__14pairIPNS0_13VariableProxyEiEES6_E2atEi
__ZN2v88internal10ParserBaseINS0_9PreParserEE28ParseArrowParametersWithRestEPNS0_23PreParserExpressionListEPNS0_17AccumulationScopeINS0_11ParserTypesIS2_EEEEi
__ZN2v88internal7Scanner9PeekAheadEv
__ZN2v88internal21ArrowHeadParsingScopeINS0_11ParserTypesINS0_9PreParserEEEE22ValidateAndCreateScopeEv
__ZN2v88internal5Scope8Snapshot8ReparentEPNS0_16DeclarationScopeE
__ZN2v88internal10ParserBaseINS0_9PreParserEE25ParseArrowFunctionLiteralERKNS0_25PreParserFormalParametersE
__ZN2v88internal10ParserBaseINS0_9PreParserEE17ParseFunctionBodyEPNS0_28PreParserScopedStatementListENS0_19PreParserIdentifierEiRKNS0_25PreParserFormalParametersENS0_12FunctionKindENS0_18FunctionSyntaxKindENS3_16FunctionBodyTypeE
__ZN2v88internal10ParserBaseINS0_9PreParserEE25ParseAssignmentExpressionEv
__ZN2v88internal10ParserBaseINS0_9PreParserEE29ParseLeftHandSideContinuationENS0_19PreParserExpressionE
__ZN2v88internal10ParserBaseINS0_9PreParserEE14ParseArgumentsEPNS0_23PreParserExpressionListEPbNS0_20ParsingArrowHeadFlagE
__ZN2v88internal16DeclarationScope31CheckConflictingVarDeclarationsEv
__ZN2v88internal5Scope18FinalizeBlockScopeEv
__ZN2v88internal9PreParser22DeclareFunctionNameVarEPKNS0_12AstRawStringENS0_18FunctionSyntaxKindEPNS0_16DeclarationScopeE
__ZN2v88internal10ParserBaseINS0_9PreParserEE23CheckStrictOctalLiteralEii
__ZN2v88internal15ExpressionScopeINS0_11ParserTypesINS0_9PreParserEEEE22RecordDeclarationErrorERKNS0_7Scanner8LocationENS0_15MessageTemplateE
__ZN2v88internal10ParserBaseINS0_9PreParserEE15ExpectSemicolonEv
__ZN2v88internal16DeclarationScope16DeclareArgumentsEPNS0_15AstValueFactoryE
__ZNK2v88internal19PreparseDataBuilder7HasDataEv
__ZN2v88internal19PreparseDataBuilder18DataGatheringScope5CloseEv
__ZN2v88internal10ScopedListIPNS0_19PreparseDataBuilderEPvE6CopyToEPNS0_4ZoneE
__ZN2v88internal4Zone8NewArrayIPNS0_19PreparseDataBuilderEEEPT_m
__ZN2v88internal10ScopedListIPNS0_19PreparseDataBuilderEPvE6RewindEv
__ZN2v88internal16DeclarationScope16AnalyzePartiallyEPNS0_6ParserEPNS0_14AstNodeFactoryEb
__ZN2v88internal5Scope16AnalyzePartiallyEPNS0_16DeclarationScopeEPNS0_14AstNodeFactoryEPNS_4base16ThreadedListBaseINS0_13VariableProxyENS6_9EmptyBaseENS8_14UnresolvedNextEEEb
__ZN2v88internal5Scope6LookupILNS1_15ScopeLookupModeE0EEEPNS0_8VariableEPNS0_13VariableProxyEPS1_S8_S8_b
__ZN2v88internal13VariableProxyC1EPKS1_
__ZN2v88internal5Scope16SavePreparseDataEPNS0_6ParserE
__ZN2v88internal19PreparseDataBuilder23SaveScopeAllocationDataEPNS0_16DeclarationScopeEPNS0_6ParserE
__ZN2v88internal16DeclarationScope20ResetAfterPreparsingEPNS0_15AstValueFactoryEb
__ZN2v88internal4Zone13ReleaseMemoryEv
__ZN2v88internal19AccountingAllocator15ZoneDestructionEPKNS0_4ZoneE
__ZN2v88internal19AccountingAllocator13ReturnSegmentEPNS0_7SegmentE
__ZN2v88internal7Segment11ZapContentsEv
__ZN2v88internal7Segment9ZapHeaderEv
__ZN2v88internal10ParserBaseINS0_6ParserEE17CheckFunctionNameENS0_12LanguageModeEPKNS0_12AstRawStringENS0_20FunctionNameValidityERKNS0_7Scanner8LocationE
__ZN2v88internal10ParserBaseINS0_6ParserEE23CheckStrictOctalLiteralEii
__ZN2v88internal14AstNodeFactory18NewFunctionLiteralEPKNS0_12AstRawStringEPNS0_16DeclarationScopeERKNS0_10ScopedListIPNS0_9StatementEPvEEiiiNS0_15FunctionLiteral13ParameterFlagENS0_18FunctionSyntaxKindENSE_16EagerCompileHintEibiPNS0_20ProducedPreparseDataE
__ZN2v88internal15AstValueFactory13NewConsStringEPKNS0_12AstRawStringE
__ZN2v88internal13AstConsString9AddStringEPNS0_4ZoneEPKNS0_12AstRawStringE
__ZNK2v88internal13AstConsString7IsEmptyEv
__ZN2v88internal6Parser32RecordFunctionLiteralSourceRangeEPNS0_15FunctionLiteralE
__ZN2v88internal6Parser15DeclareFunctionEPKNS0_12AstRawStringEPNS0_15FunctionLiteralENS0_12VariableModeENS0_12VariableKindEiiPNS0_8ZoneListIS4_EE
__ZN2v84base19TemplateHashMapImplIPvS2_NS0_18KeyEqualityMatcherIS2_EENS_8internal20ZoneAllocationPolicyEE6ResizeES6_
__ZN2v88internal14AstNodeFactory13NewAssignmentENS0_5Token5ValueEPNS0_10ExpressionES5_i
__ZN2v88internal10ParserBaseINS0_9PreParserEE17ParseForStatementEPNS0_8ZoneListIPKNS0_12AstRawStringEEES9_
__ZN2v88internal5ScopeC1EPNS0_4ZoneEPS1_NS0_9ScopeTypeE
__ZN2v88internal18PointerWithPayloadINS0_10ParserBaseINS0_9PreParserEE13FunctionStateEbLi1EE6updateEPS5_b
__ZN2v88internal10ParserBaseINS0_9PreParserEE25ParseVariableDeclarationsENS3_26VariableDeclarationContextEPNS3_24DeclarationParsingResultEPNS0_8ZoneListIPKNS0_12AstRawStringEEE
__ZNK2v88internal7Scanner10NextSymbolEPNS0_15AstValueFactoryE
__ZN2v88internal31VariableDeclarationParsingScopeINS0_11ParserTypesINS0_9PreParserEEEE7DeclareEPKNS0_12AstRawStringEi
__ZN2v88internal10ParserBaseINS0_9PreParserEE11CheckInOrOfEPNS0_16ForEachStatement9VisitModeE
__ZN2v88internal10ParserBaseINS0_9PreParserEE37ParseForEachStatementWithDeclarationsEiPNS3_7ForInfoEPNS0_8ZoneListIPKNS0_12AstRawStringEEESB_PNS0_5ScopeE
__ZN2v88internal10ParserBaseINS0_9PreParserEE35DoParseMemberExpressionContinuationENS0_19PreParserExpressionE
__ZN2v88internal10ParserBaseINS0_9PreParserEE34ParsePropertyOrPrivatePropertyNameEv
__ZN2v88internal10ParserBaseINS0_9PreParserEE10ParseBlockEPNS0_8ZoneListIPKNS0_12AstRawStringEEE
__ZN2v88internal10ParserBaseINS0_9PreParserEE16ParseIfStatementEPNS0_8ZoneListIPKNS0_12AstRawStringEEE
__ZN2v88internal10ParserBaseINS0_9PreParserEE28ParseUnaryOrPrefixExpressionEv
__ZN2v88internal10ParserBaseINS0_9PreParserEE20ParseScopedStatementEPNS0_8ZoneListIPKNS0_12AstRawStringEEE
__ZN2v88internal10ParserBaseINS0_9PreParserEE34ParseExpressionOrLabelledStatementEPNS0_8ZoneListIPKNS0_12AstRawStringEEES9_NS0_30AllowLabelledFunctionStatementE
__ZN2v88internal10ParserBaseINS0_9PreParserEE23ParseBinaryContinuationENS0_19PreParserExpressionEii
__ZN2v88internal10ParserBaseINS0_9PreParserEE21ParseBinaryExpressionEi
__ZN2v88internal10ParserBaseINS0_6ParserEE29ParseLeftHandSideContinuationEPNS0_10ExpressionE
__ZN2v88internal10ParserBaseINS0_6ParserEE14ParseArgumentsEPNS0_10ScopedListIPNS0_10ExpressionEPvEEPbNS0_20ParsingArrowHeadFlagE
__ZN2v88internal10ParserBaseINS0_6ParserEE17ParseClassLiteralEPKNS0_12AstRawStringENS0_7Scanner8LocationEbi
__ZN2v88internal10ClassScopeC1EPNS0_4ZoneEPNS0_5ScopeEb
__ZN2v88internal10ParserBaseINS0_6ParserEE9ClassInfoC2EPS3_
__ZN2v88internal10ClassScope28ResolvePrivateNamesPartiallyEv
__ZN2v88internal6Parser20DeclareClassVariableEPNS0_10ClassScopeEPKNS0_12AstRawStringEPNS0_10ParserBaseIS1_E9ClassInfoEi
__ZN2v88internal10ClassScope20DeclareClassVariableEPNS0_15AstValueFactoryEPKNS0_12AstRawStringEi
__ZN2v88internal6Parser19RewriteClassLiteralEPNS0_10ClassScopeEPKNS0_12AstRawStringEPNS0_10ParserBaseIS1_E9ClassInfoEii
__ZN2v88internal6Parser18DefaultConstructorEPKNS0_12AstRawStringEbii
__ZN2v88internal16DeclarationScope8AddLocalEPNS0_8VariableE
__ZN2v88internal8Variable16SetMaybeAssignedEv
__ZN2v88internal13VariableProxyC1EPNS0_8VariableEi
__ZN2v88internal6Parser21NewSuperCallReferenceEi
__ZN2v88internal5Scope13NewUnresolvedEPNS0_14AstNodeFactoryEPKNS0_12AstRawStringEiNS0_12VariableKindE
__ZN2v88internal14AstNodeFactory16NewVariableProxyEPKNS0_12AstRawStringENS0_12VariableKindEi
__ZNK2v88internal12AstRawString16IsOneByteEqualToEPKc
__ZNK2v88internal10ScopedListIPNS0_10ExpressionEPvE6CopyToEPNS0_8ZoneListIS3_EEPNS0_4ZoneE
__ZN2v88internal8ZoneListIPNS0_10ExpressionEE6AddAllERKNS0_6VectorIS3_EEPNS0_4ZoneE
__ZN2v88internal10ParserBaseINS0_6ParserEE17ParseArrayLiteralEv
__ZN2v88internal10ParserBaseINS0_6ParserEE36ParsePossibleDestructuringSubPatternEPNS0_17AccumulationScopeINS0_11ParserTypesIS2_EEEE
__ZN2v88internal15ExpressionScopeINS0_11ParserTypesINS0_6ParserEEEE18RecordPatternErrorERKNS0_7Scanner8LocationENS0_15MessageTemplateE
__ZN2v88internal21ArrowHeadParsingScopeINS0_11ParserTypesINS0_6ParserEEEE22ValidateAndCreateScopeEv
__ZN2v88internal6Parser36DeclareArrowFunctionFormalParametersEPNS0_22ParserFormalParametersEPNS0_10ExpressionERKNS0_7Scanner8LocationE
__ZN2v88internal6Parser32AddArrowFunctionFormalParametersEPNS0_22ParserFormalParametersEPNS0_10ExpressionEi
__ZN2v88internal6Parser18AddFormalParameterEPNS0_22ParserFormalParametersEPNS0_10ExpressionES5_ib
__ZN2v88internal18PointerWithPayloadINS0_10ExpressionEbLi1EE6updateEPS2_b
__ZN2v88internal10ParserBaseINS0_6ParserEE25ParseArrowFunctionLiteralERKNS0_22ParserFormalParametersE
__ZNK2v88internal10Expression14IsPropertyNameEv
__ZN2v88internal10ParserBaseINS0_6ParserEE24ValidateFormalParametersENS0_12LanguageModeERKNS0_22ParserFormalParametersEb
__ZN2v88internal6Parser22DeclareFunctionNameVarEPKNS0_12AstRawStringENS0_18FunctionSyntaxKindEPNS0_16DeclarationScopeE
__ZN2v88internal10ParserBaseINS0_6ParserEE18ParseObjectLiteralEv
__ZN2v88internal10ParserBaseINS0_6ParserEE29ParseObjectPropertyDefinitionEPNS3_17ParsePropertyInfoEPb
__ZN2v88internal10ParserBaseINS0_6ParserEE13ParsePropertyEPNS3_17ParsePropertyInfoE
__ZN2v88internal10ParserBaseINS0_6ParserEE23ParseFunctionExpressionEv
__ZN2v88internal10ParserBaseINS0_9PreParserEE43ParseMemberWithPresentNewPrefixesExpressionEv
__ZN2v88internal10ParserBaseINS0_9PreParserEE24ParseNewTargetExpressionEv
__ZN2v88internal10ParserBaseINS0_9PreParserEE23ExpectContextualKeywordEPKNS0_12AstRawStringEPKci
__ZN2v88internal5Scope16GetReceiverScopeEv
__ZN2v88internal10ParserBaseINS0_9PreParserEE28ParseConditionalContinuationENS0_19PreParserExpressionEi
__ZN2v88internal10ParserBaseINS0_9PreParserEE7UseThisEv
__ZN2v88internal21ObjectLiteralPropertyC1EPNS0_15AstValueFactoryEPNS0_10ExpressionES5_b
__ZN2v88internal21ObjectLiteralPropertyC2EPNS0_15AstValueFactoryEPNS0_10ExpressionES5_b
__ZN2v88internal6Parser31SetFunctionNameFromPropertyNameEPNS0_15LiteralPropertyEPKNS0_12AstRawStringES6_
__ZNK2v88internal15LiteralProperty20NeedsSetFunctionNameEv
__ZN2v88internal6Parser15SetFunctionNameEPNS0_10ExpressionEPKNS0_12AstRawStringES6_
__ZN2v88internal10ScopedListIPNS0_21ObjectLiteralPropertyEPvE3AddERKS3_
__ZN2v88internal16FuncNameInferrer19InferFunctionsNamesEv
__ZN2v88internal16FuncNameInferrer17MakeNameFromStackEv
__ZN2v88internal15FunctionLiteral21set_raw_inferred_nameEPKNS0_13AstConsStringE
__ZNK2v88internal10ScopedListIPNS0_21ObjectLiteralPropertyEPvE6CopyToEPNS0_8ZoneListIS3_EEPNS0_4ZoneE
__ZN2v88internal8ZoneListIPNS0_21ObjectLiteralPropertyEE6AddAllERKNS0_6VectorIS3_EEPNS0_4ZoneE
__ZN2v88internal13ObjectLiteral18CalculateEmitStoreEPNS0_4ZoneE
__ZNK2v88internal8ZoneListIPNS0_21ObjectLiteralPropertyEEixEi
__ZN2v88internal10ScopedListIPNS0_21ObjectLiteralPropertyEPvE6RewindEv
__ZN2v88internal10ParserBaseINS0_6ParserEE23ParseBinaryContinuationEPNS0_10ExpressionEii
__ZN2v88internal16SourceRangeScopeC2EPKNS0_7ScannerEPNS0_11SourceRangeE
__ZN2v88internal10ParserBaseINS0_6ParserEE21ParseBinaryExpressionEi
__ZN2v88internal16SourceRangeScopeD2Ev
__ZN2v88internal6Parser38ShortcutNumericLiteralBinaryExpressionEPPNS0_10ExpressionES3_NS0_5Token5ValueEi
__ZNK2v88internal10Expression15IsNumberLiteralEv
__ZN2v88internal6Parser22CollapseNaryExpressionEPPNS0_10ExpressionES3_NS0_5Token5ValueEiRKNS0_11SourceRangeE
__ZN2v88internal7Scanner20CombineSurrogatePairEv
__ZN2v88internal15FunctionLiteral21SetShouldEagerCompileEv
__ZN2v88internal16DeclarationScope24set_should_eager_compileEv
__ZN2v88internal15AstValueFactory11InternalizeEPNS0_7IsolateE
__ZN2v88internal12AstRawString11InternalizeEPNS0_7IsolateE
__ZN2v88internal13AstConsString11InternalizeEPNS0_7IsolateE
__ZN2v88internal7Factory13NewConsStringENS0_6HandleINS0_6StringEEES4_ib
__ZN2v88internal25TorqueGeneratedConsStringINS0_10ConsStringENS0_6StringEE9set_firstES3_NS0_16WriteBarrierModeE
__ZN2v88internal25TorqueGeneratedConsStringINS0_10ConsStringENS0_6StringEE10set_secondES3_NS0_16WriteBarrierModeE
__ZN2v88internal9ParseInfo20ResetCharacterStreamEv
__ZN2v88internal23BufferedCharacterStreamINS0_20ExternalStringStreamEED0Ev
__ZNK2v86String26ExternalStringResourceBase6UnlockEv
__ZN2v88internal6Parser23HandleSourceURLCommentsEPNS0_7IsolateENS0_6HandleINS0_6ScriptEEE
__ZNK2v88internal7Scanner9SourceUrlEPNS0_7IsolateE
__ZNK2v88internal7Scanner16SourceMappingUrlEPNS0_7IsolateE
__ZNK2v88internal15FunctionLiteral13language_modeEv
__ZN2v88internal6Parser16UpdateStatisticsEPNS0_7IsolateENS0_6HandleINS0_6ScriptEEE
__ZN2v88internal7Isolate10CountUsageENS_7Isolate17UseCounterFeatureE
__ZN2v88internal6ParserD2Ev
__ZN2v88internal4ZoneD1Ev
__ZN2v88internal4ZoneD2Ev
__ZN2v88internal7ScannerD2Ev
__ZN2v88internal12_GLOBAL__N_138EnsureSharedFunctionInfosArrayOnScriptEPNS0_9ParseInfoEPNS0_7IsolateE
__ZN2v88internal7Factory17NewWeakFixedArrayEiNS0_14AllocationTypeE
__ZN2v88internal8Compiler7AnalyzeEPNS0_9ParseInfoE
__ZN2v88internal8Rewriter7RewriteEPNS0_9ParseInfoE
__ZN2v88internal20PerThreadAssertScopeILNS0_19PerThreadAssertTypeE1ELb0EEC2Ev
__ZN2v88internal20PerThreadAssertScopeILNS0_19PerThreadAssertTypeE2ELb0EEC2Ev
__ZN2v88internal5Scope12NewTemporaryEPKNS0_12AstRawStringE
__ZN2v88internal9ProcessorC2EmPNS0_16DeclarationScopeEPNS0_8VariableEPNS0_15AstValueFactoryE
__ZNK2v88internal8ZoneListIPNS0_9StatementEEixEi
__ZN2v88internal9Processor25VisitNoStackOverflowCheckEPNS0_7AstNodeE
__ZN2v88internal20PerThreadAssertScopeILNS0_19PerThreadAssertTypeE2ELb0EED2Ev
__ZN2v88internal20PerThreadAssertScopeILNS0_19PerThreadAssertTypeE2ELb0EE7ReleaseEv
__ZN2v88internal20PerThreadAssertScopeILNS0_19PerThreadAssertTypeE1ELb0EED2Ev
__ZN2v88internal20PerThreadAssertScopeILNS0_19PerThreadAssertTypeE1ELb0EE7ReleaseEv
__ZN2v88internal16DeclarationScope7AnalyzeEPNS0_9ParseInfoE
__ZN2v88internal16DeclarationScope25HoistSloppyBlockFunctionsEPNS0_14AstNodeFactoryE
__ZN2v88internal16DeclarationScope17AllocateVariablesEPNS0_9ParseInfoE
__ZN2v88internal5Scope27ResolveVariablesRecursivelyEPNS0_9ParseInfoE
__ZN2v88internal5Scope9ResolveToEPNS0_9ParseInfoEPNS0_13VariableProxyEPNS0_8VariableE
__ZNK2v88internal9ParseInfo5scopeEv
__ZN2v88internal5Scope24ResolvePreparsedVariableEPNS0_13VariableProxyEPS1_S4_
__ZN2v88internal5Scope28AllocateVariablesRecursivelyEv
__ZN2v88internal16DeclarationScope16AllocateReceiverEv
__ZN2v88internal5Scope25AllocateNonParameterLocalEPNS0_8VariableE
__ZN2v88internal5Scope12MustAllocateEPNS0_8VariableE
__ZNK2v88internal8Variable22IsGlobalObjectPropertyEv
__ZN2v88internal16DeclarationScope14AllocateLocalsEv
__ZN2v88internal16DeclarationScope23AllocateParameterLocalsEv
__ZNK2v88internal8ZoneListIPNS0_8VariableEEixEi
__ZN2v88internal16DeclarationScope17AllocateParameterEPNS0_8VariableEi
__ZN2v88internal5Scope19CheckScopePositionsEv
__ZN2v88internal5Scope10CheckZonesEv
__ZN2v88internal16DeclarationScope18AllocateScopeInfosEPNS0_9ParseInfoEPNS0_7IsolateE
__ZN2v88internal5Scope29AllocateScopeInfosRecursivelyEPNS0_7IsolateENS0_11MaybeHandleINS0_9ScopeInfoEEE
__ZNK2v88internal5Scope12NeedsContextEv
__ZN2v88internal9ScopeInfo6CreateEPNS0_7IsolateEPNS0_4ZoneEPNS0_5ScopeENS0_11MaybeHandleIS1_EE
__ZNK2v88internal5Scope17ContextLocalCountEv
__ZN2v88internal7Factory12NewScopeInfoEiNS0_14AllocationTypeE
__ZN2v88internal7Factory20NewFixedArrayWithMapINS0_9ScopeInfoEEENS0_6HandleIT_EENS0_9RootIndexEiNS0_14AllocationTypeE
__ZNK2v88internal9ScopeInfo15ModuleInfoIndexEv
__ZNK2v88internal9ScopeInfo17PositionInfoIndexEv
__ZNK2v88internal9ScopeInfo21FunctionNameInfoIndexEv
__ZNK2v88internal9ScopeInfo22ContextLocalNamesIndexEv
__ZNK2v88internal9ScopeInfo17ContextLocalCountEv
__ZNK2v88internal9ScopeInfo10scope_typeEv
__ZNK2v88internal9ScopeInfo14ParameterCountEv
__ZNK2v88internal9ScopeInfo13ContextLengthEv
__ZN2v88internal9ScopeInfo5EmptyEPNS0_7IsolateE
__ZN2v88internal7Factory31NewSharedFunctionInfoForLiteralEPNS0_15FunctionLiteralENS0_6HandleINS0_6ScriptEEEb
__ZNK2v88internal15FunctionLiteral4kindEv
__ZN2v88internal18SharedFunctionInfo23InitFromFunctionLiteralENS0_6HandleIS1_EEPNS0_15FunctionLiteralEb
__ZN2v88internal18SharedFunctionInfo35set_internal_formal_parameter_countEi
__ZNK2v88internal15FunctionLiteral14start_positionEv
__ZN2v88internal18SharedFunctionInfo29set_raw_function_token_offsetEi
__ZNK2v88internal9ScopeInfo15HasPositionInfoEv
__ZN2v88internal15FunctionLiteral21AllowsLazyCompilationEv
__ZNK2v88internal16DeclarationScope21AllowsLazyCompilationEv
__ZNK2v88internal18SharedFunctionInfo16outer_scope_infoEv
__ZNK2v88internal15FunctionLiteral18ShouldEagerCompileEv
__ZN2v88internal18SharedFunctionInfo50UpdateAndFinalizeExpectedNofPropertiesFromEstimateEPNS0_15FunctionLiteralE
__ZNK2v88internal15FunctionLiteral26SafeToSkipArgumentsAdaptorEv
__ZN2v88internal18SharedFunctionInfo9SetScriptENS0_6HandleIS1_EENS2_INS0_10HeapObjectEEEib
__ZN2v88internal8Compiler21GetSharedFunctionInfoEPNS0_15FunctionLiteralENS0_6HandleINS0_6ScriptEEEPNS0_7IsolateE
__ZN2v88internal6Script22FindSharedFunctionInfoEPNS0_7IsolateEPKNS0_15FunctionLiteralE
__ZNK2v88internal5Scope11IsAsmModuleEv
__ZN2v88internal11interpreter11Interpreter17NewCompilationJobEPNS0_9ParseInfoEPNS0_15FunctionLiteralEPNS0_19AccountingAllocatorEPNSt3__16vectorIS6_NS9_9allocatorIS6_EEEE
__ZN2v88internal26UnoptimizedCompilationInfoC1EPNS0_4ZoneEPNS0_9ParseInfoEPNS0_15FunctionLiteralE
__ZN2v88internal26UnoptimizedCompilationInfoC2EPNS0_4ZoneEPNS0_9ParseInfoEPNS0_15FunctionLiteralE
__ZN2v88internal11interpreter17BytecodeGeneratorC1EPNS0_26UnoptimizedCompilationInfoEPKNS0_18AstStringConstantsEPNSt3__16vectorIPNS0_15FunctionLiteralENS8_9allocatorISB_EEEE
__ZN2v88internal11interpreter17BytecodeGeneratorC2EPNS0_26UnoptimizedCompilationInfoEPKNS0_18AstStringConstantsEPNSt3__16vectorIPNS0_15FunctionLiteralENS8_9allocatorISB_EEEE
__ZNK2v88internal26UnoptimizedCompilationInfo29num_parameters_including_thisEv
__ZNK2v88internal26UnoptimizedCompilationInfo5scopeEv
__ZNK2v88internal26UnoptimizedCompilationInfo27SourcePositionRecordingModeEv
__ZN2v88internal11interpreter20BytecodeArrayBuilderC1EPNS0_4ZoneEiiPNS0_18FeedbackVectorSpecENS0_26SourcePositionTableBuilder13RecordingModeE
__ZN2v88internal11interpreter20BytecodeArrayBuilderC2EPNS0_4ZoneEiiPNS0_18FeedbackVectorSpecENS0_26SourcePositionTableBuilder13RecordingModeE
__ZN2v88internal11interpreter20ConstantArrayBuilderC1EPNS0_4ZoneE
__ZN2v88internal11interpreter20ConstantArrayBuilderC2EPNS0_4ZoneE
__ZN2v88internal11interpreter19HandlerTableBuilderC1EPNS0_4ZoneE
__ZN2v88internal11interpreter19BytecodeArrayWriterC1EPNS0_4ZoneEPNS1_20ConstantArrayBuilderENS0_26SourcePositionTableBuilder13RecordingModeE
__ZN2v88internal26SourcePositionTableBuilderC1ENS1_13RecordingModeE
__ZN2v88internal11interpreter25BytecodeRegisterOptimizerC1EPNS0_4ZoneEPNS1_25BytecodeRegisterAllocatorEiiPNS2_14BytecodeWriterE
__ZN2v88internal11interpreter25BytecodeRegisterOptimizerC2EPNS0_4ZoneEPNS1_25BytecodeRegisterAllocatorEiiPNS2_14BytecodeWriterE
__ZN2v88internal11interpreter8Register19virtual_accumulatorEv
__ZN2v88internal11interpreter8Register18FromParameterIndexEii
__ZNSt3__16vectorIPN2v88internal11interpreter25BytecodeRegisterOptimizer12RegisterInfoENS2_13ZoneAllocatorIS6_EEE8__appendEm
__ZN2v88internal4Zone8NewArrayIPNS0_11interpreter25BytecodeRegisterOptimizer12RegisterInfoEEEPT_m
__ZN2v88internal25UnoptimizedCompilationJob10ExecuteJobEv
__ZN2v88internal20PerThreadAssertScopeILNS0_19PerThreadAssertTypeE3ELb0EEC2Ev
__ZN2v88internal11interpreter25InterpreterCompilationJob14ExecuteJobImplEv
__ZN2v88internal11interpreter17BytecodeGenerator16GenerateBytecodeEm
__ZN2v88internal11interpreter8Register15current_contextEv
__ZN2v88internal11interpreter17BytecodeGenerator25AllocateTopLevelRegistersEv
__ZN2v88internal11interpreter17BytecodeGenerator20GenerateBytecodeBodyEv
__ZN2v88internal11interpreter17BytecodeGenerator20VisitArgumentsObjectEPNS0_8VariableE
__ZN2v88internal11interpreter17BytecodeGenerator22VisitNewTargetVariableEPNS0_8VariableE
__ZN2v88internal11interpreter17BytecodeGenerator17VisitDeclarationsEPNS_4base16ThreadedListBaseINS0_11DeclarationENS3_9EmptyBaseENS3_18ThreadedListTraitsIS5_EEEE
__ZN2v88internal11interpreter25BytecodeRegisterOptimizer21RegisterListFreeEventENS1_12RegisterListE
__ZN2v88internal11interpreter17BytecodeGenerator27VisitModuleNamespaceImportsEv
__ZN2v88internal11interpreter20BytecodeArrayBuilder10StackCheckEi
__ZN2v88internal11interpreter20BytecodeArrayBuilder16OutputStackCheckIJEEEvDpT_
__ZN2v88internal11interpreter19BytecodeArrayWriter5WriteEPNS1_12BytecodeNodeE
__ZN2v88internal11interpreter19BytecodeArrayWriter22MaybeElideLastBytecodeENS1_8BytecodeEb
__ZN2v88internal14SourcePosition15SetScriptOffsetEi
__ZN2v88internal26SourcePositionTableBuilder11AddPositionEmNS0_14SourcePositionEb
__ZN2v88internal26SourcePositionTableBuilder8AddEntryERKNS0_18PositionTableEntryE
__ZN2v88internal11interpreter19BytecodeArrayWriter12EmitBytecodeEPKNS1_12BytecodeNodeE
__ZN2v88internal11interpreter9Bytecodes15GetOperandSizesENS1_8BytecodeENS1_12OperandScaleE
__ZN2v88internal11interpreter17BytecodeGenerator25VisitNoStackOverflowCheckEPNS0_7AstNodeE
__ZN2v88internal11interpreter17BytecodeGenerator20VisitReturnStatementEPNS0_15ReturnStatementE
__ZN2v88internal11interpreter17BytecodeGenerator20VisitFunctionLiteralEPNS0_15FunctionLiteralE
__ZN2v88internal11interpreter18CreateClosureFlags6EncodeEbbb
__ZN2v88internal11interpreter20BytecodeArrayBuilder33AllocateDeferredConstantPoolEntryEv
__ZN2v88internal11interpreter20ConstantArrayBuilder14InsertDeferredEv
__ZN2v88internal11interpreter20ConstantArrayBuilder18ConstantArraySlice8AllocateENS2_5EntryEm
__ZN2v88internal4Zone8NewArrayINS0_11interpreter20ConstantArrayBuilder5EntryEEEPT_m
__ZNSt3__16__treeINS_12__value_typeINS_5tupleIJN2v88internal11interpreter17BytecodeGenerator17FeedbackSlotCache8SlotKindEiPKvEEEiEENS_19__map_value_compareISB_SC_NS_4lessISB_EELb1EEENS4_13ZoneAllocatorISC_EEE25__emplace_unique_key_argsISB_JRNS_4pairISB_iEEEEENSL_INS_15__tree_iteratorISC_PNS_11__tree_nodeISC_PvEElEEbEERKT_DpOT0_
__ZN2v88internal11interpreter20BytecodeArrayBuilder13CreateClosureEmii
__ZN2v88internal11interpreter19BytecodeNodeBuilderILNS1_8BytecodeE129ELNS1_14AccumulatorUseE2EJLNS1_11OperandTypeE5ELS5_5ELS5_1EEE4MakeIJmiiEEENS1_12BytecodeNodeEPNS1_20BytecodeArrayBuilderEDpT_
__ZN2v88internal11interpreter25BytecodeRegisterOptimizer21PrepareOutputRegisterENS1_8RegisterE
__ZN2v88internal11interpreter12BytecodeNode6CreateILNS1_8BytecodeE129ELNS1_14AccumulatorUseE2ELNS1_11OperandTypeE5ELS6_5ELS6_1EEES2_NS1_18BytecodeSourceInfoEjjj
__ZN2v88internal4Zone8NewArrayINSt3__14pairIPNS0_15FunctionLiteralEmEEEEPT_m
__ZN2v88internal11interpreter17BytecodeGenerator25AddToEagerLiteralsIfEagerEPNS0_15FunctionLiteralE
__ZN2v88internal11interpreter17BytecodeGenerator23ControlScopeForTopLevel7ExecuteENS2_12ControlScope7CommandEPNS0_9StatementEi
__ZN2v88internal11interpreter17BytecodeGenerator11BuildReturnEi
__ZNK2v88internal15FunctionLiteral12end_positionEv
__ZN2v88internal11interpreter20BytecodeArrayBuilder6ReturnEv
__ZN2v88internal11interpreter20BytecodeArrayBuilder12OutputReturnIJEEEvDpT_
__ZN2v88internal11interpreter25BytecodeRegisterOptimizer11MaterializeEPNS2_12RegisterInfoE
__ZN2v88internal11interpreter17BytecodeGenerator12ContextScopeD2Ev
__ZNK2v84base12ElapsedTimer7ElapsedEv
__ZNK2v84base9TimeDelta14InMicrosecondsEv
__ZN2v88internal20PerThreadAssertScopeILNS0_19PerThreadAssertTypeE3ELb0EED2Ev
__ZN2v88internal20PerThreadAssertScopeILNS0_19PerThreadAssertTypeE3ELb0EE7ReleaseEv
__ZN2v88internal12_GLOBAL__N_133FinalizeUnoptimizedCompilationJobEPNS0_25UnoptimizedCompilationJobENS0_6HandleINS0_18SharedFunctionInfoEEEPNS0_7IsolateE
__ZN2v88internal25UnoptimizedCompilationJob11FinalizeJobENS0_6HandleINS0_18SharedFunctionInfoEEEPNS0_7IsolateE
__ZN2v88internal21PerIsolateAssertScopeILNS0_20PerIsolateAssertTypeE0ELb0EEC1EPNS0_7IsolateE
__ZN2v88internal11interpreter25InterpreterCompilationJob15FinalizeJobImplENS0_6HandleINS0_18SharedFunctionInfoEEEPNS0_7IsolateE
__ZN2v88internal11interpreter17BytecodeGenerator16FinalizeBytecodeEPNS0_7IsolateENS0_6HandleINS0_6ScriptEEE
__ZN2v88internal11interpreter17BytecodeGenerator25AllocateDeferredConstantsEPNS0_7IsolateENS0_6HandleINS0_6ScriptEEE
__ZN2v88internal5Scope24GetOuterScopeWithContextEv
__ZN2v88internal18SharedFunctionInfo20set_outer_scope_infoENS0_10HeapObjectENS0_16WriteBarrierModeE
__ZN2v88internal18SharedFunctionInfo45set_raw_outer_scope_info_or_feedback_metadataENS0_10HeapObjectENS0_16WriteBarrierModeE
__ZN2v88internal11interpreter20BytecodeArrayBuilder28SetDeferredConstantPoolEntryEmNS0_6HandleINS0_6ObjectEEE
__ZN2v88internal11interpreter20ConstantArrayBuilder13SetDeferredAtEmNS0_6HandleINS0_6ObjectEEE
__ZN2v88internal11interpreter20ConstantArrayBuilder18ConstantArraySlice2AtEm
__ZN2v88internal11interpreter20BytecodeArrayBuilder15ToBytecodeArrayEPNS0_7IsolateE
__ZNK2v88internal11interpreter20BytecodeArrayBuilder20total_register_countEv
__ZN2v88internal11interpreter25BytecodeRegisterOptimizer5FlushEv
__ZN2v88internal11interpreter19HandlerTableBuilder14ToHandlerTableEPNS0_7IsolateE
__ZN2v88internal12HandlerTable14LengthForRangeEi
__ZN2v88internal7Factory12NewByteArrayEiNS0_14AllocationTypeE
__ZN2v88internal12HandlerTableC1ENS0_9ByteArrayE
__ZN2v88internal11interpreter19BytecodeArrayWriter15ToBytecodeArrayEPNS0_7IsolateEiiNS0_6HandleINS0_9ByteArrayEEE
__ZN2v88internal11interpreter20ConstantArrayBuilder12ToFixedArrayEPNS0_7IsolateE
__ZN2v88internal7Factory22NewFixedArrayWithHolesEiNS0_14AllocationTypeE
__ZNK2v88internal11interpreter20ConstantArrayBuilder18ConstantArraySlice25CheckAllElementsAreUniqueEPNS0_7IsolateE
__ZNSt3__16__treeIN2v88internal6ObjectENS3_8ComparerENS_9allocatorIS3_EEE7destroyEPNS_11__tree_nodeIS3_PvEE
__ZNSt3__16__treeIPKN2v88internal5ScopeENS_4lessIS5_EENS_9allocatorIS5_EEE7destroyEPNS_11__tree_nodeIS5_PvEE
__ZNSt3__16__treeIPKN2v88internal12AstRawStringENS_4lessIS5_EENS_9allocatorIS5_EEE7destroyEPNS_11__tree_nodeIS5_PvEE
__ZNSt3__16__treeIdNS_4lessIdEENS_9allocatorIdEEE7destroyEPNS_11__tree_nodeIdPvEE
__ZNSt3__16__treeIN2v88internal3SmiENS_4lessIS3_EENS_9allocatorIS3_EEE7destroyEPNS_11__tree_nodeIS3_PvEE
__ZNK2v88internal11interpreter20ConstantArrayBuilder18ConstantArraySlice2AtEm
__ZNK2v88internal11interpreter20ConstantArrayBuilder5Entry8ToHandleEPNS0_7IsolateE
__ZN2v88internal7Factory16NewBytecodeArrayEiPKhiiNS0_6HandleINS0_10FixedArrayEEE
__ZN2v88internal11interpreter17BytecodeGenerator27FinalizeSourcePositionTableEPNS0_7IsolateE
__ZN2v88internal11interpreter20BytecodeArrayBuilder21ToSourcePositionTableEPNS0_7IsolateE
__ZN2v88internal11interpreter19BytecodeArrayWriter21ToSourcePositionTableEPNS0_7IsolateE
__ZN2v88internal26SourcePositionTableBuilder21ToSourcePositionTableEPNS0_7IsolateE
__ZN2v88internal11interpreter25InterpreterCompilationJob29CheckAndPrintBytecodeMismatchEPNS0_7IsolateENS0_6HandleINS0_13BytecodeArrayEEE
__ZN2v88internal11interpreter17BytecodeGenerator20CheckBytecodeMatchesENS0_6HandleINS0_13BytecodeArrayEEE
__ZN2v88internal11interpreter20BytecodeArrayBuilder20CheckBytecodeMatchesENS0_6HandleINS0_13BytecodeArrayEEE
__ZN2v88internal11interpreter19BytecodeArrayWriter20CheckBytecodeMatchesENS0_6HandleINS0_13BytecodeArrayEEE
__ZN2v88internal21PerIsolateAssertScopeILNS0_20PerIsolateAssertTypeE0ELb0EED1Ev
__ZN2v88internal18SharedFunctionInfo14set_scope_infoENS0_9ScopeInfoENS0_16WriteBarrierModeE
__ZN2v88internal9ScopeInfo15SetFunctionNameENS0_6ObjectE
__ZN2v88internal18SharedFunctionInfo15HasInferredNameEv
__ZN2v88internal18SharedFunctionInfo18set_raw_scope_infoENS0_9ScopeInfoENS0_16WriteBarrierModeE
__ZN2v88internal16FeedbackMetadata3NewEPNS0_7IsolateEPKNS0_18FeedbackVectorSpecE
__ZN2v88internal7Factory19NewFeedbackMetadataEiiNS0_14AllocationTypeE
__ZNK2v88internal25UnoptimizedCompilationJob25RecordFunctionCompilationENS0_17CodeEventListener16LogEventsAndTagsENS0_6HandleINS0_18SharedFunctionInfoEEEPNS0_7IsolateE
__ZNK2v84base9TimeDelta15InMillisecondsFEv
__ZN2v88internal12_GLOBAL__N_122LogFunctionCompilationENS0_17CodeEventListener16LogEventsAndTagsENS0_6HandleINS0_18SharedFunctionInfoEEENS4_INS0_6ScriptEEENS4_INS0_12AbstractCodeEEEbdPNS0_7IsolateE
__ZNK2v88internal25UnoptimizedCompilationJob22RecordCompilationStatsEPNS0_7IsolateE
__ZN2v88internal13BytecodeArray21SizeIncludingMetadataEv
__ZNK2v88internal13BytecodeArray22HasSourcePositionTableEv
__ZNK2v88internal13BytecodeArray19SourcePositionTableEv
__ZNK2v88internal18SharedFunctionInfo16GetBytecodeArrayEv
__ZNK2v88internal18SharedFunctionInfo16HasBytecodeArrayEv
__ZN2v88internal11interpreter25InterpreterCompilationJobD0Ev
__ZN2v88internal11interpreter25InterpreterCompilationJobD2Ev
__ZNSt3__16__treeINS_12__value_typeIdjEENS_19__map_value_compareIdS2_NS_4lessIdEELb1EEEN2v88internal13ZoneAllocatorIS2_EEE7destroyEPNS_11__tree_nodeIS2_PvEE
__ZNSt3__16__treeINS_12__value_typeIN2v88internal3SmiEjEENS_19__map_value_compareIS4_S5_NS_4lessIS4_EELb1EEENS3_13ZoneAllocatorIS5_EEE7destroyEPNS_11__tree_nodeIS5_PvEE
__ZN2v88internal11interpreter17BytecodeGenerator30BuildNewLocalActivationContextEv
__ZN2v88internal11interpreter20BytecodeArrayBuilder21CreateFunctionContextEPKNS0_5ScopeEi
__ZN2v88internal11interpreter20ConstantArrayBuilder6InsertEPKNS0_5ScopeE
__ZNK2v84base19TemplateHashMapImplIljNS0_18KeyEqualityMatcherIlEENS_8internal20ZoneAllocationPolicyEE5ProbeERKlj
__ZN2v88internal11interpreter19BytecodeNodeBuilderILNS1_8BytecodeE132ELNS1_14AccumulatorUseE2EJLNS1_11OperandTypeE5ELS5_6EEE4MakeIJmiEEENS1_12BytecodeNodeEPNS1_20BytecodeArrayBuilderEDpT_
__ZN2v88internal11interpreter12BytecodeNode6CreateILNS1_8BytecodeE132ELNS1_14AccumulatorUseE2ELNS1_11OperandTypeE5ELS6_6EEES2_NS1_18BytecodeSourceInfoEjj
__ZN2v88internal11interpreter25BytecodeRegisterOptimizer21RegisterAllocateEventENS1_8RegisterE
__ZN2v88internal11interpreter25BytecodeRegisterOptimizer15NewRegisterInfoENS1_8RegisterE
__ZN2v88internal11interpreter25BytecodeRegisterOptimizer15GrowRegisterMapENS1_8RegisterE
__ZN2v88internal11interpreter20BytecodeArrayBuilder11PushContextENS1_8RegisterE
__ZN2v88internal11interpreter20BytecodeArrayBuilder17OutputPushContextIJNS1_8RegisterEEEEvDpT_
__ZNK2v88internal11interpreter20BytecodeArrayBuilder15RegisterIsValidENS1_8RegisterE
__ZNK2v88internal11interpreter8Register18is_current_contextEv
__ZNK2v88internal11interpreter8Register19is_function_closureEv
__ZN2v88internal11interpreter12BytecodeNode6CreateILNS1_8BytecodeE22ELNS1_14AccumulatorUseE1ELNS1_11OperandTypeE12EEES2_NS1_18BytecodeSourceInfoEj
__ZN2v88internal11interpreter17BytecodeGenerator41BuildLocalActivationContextInitializationEv
__ZNK2v88internal11interpreter20BytecodeArrayBuilder9ParameterEi
__ZNK2v88internal5Scope18ContextChainLengthEPS1_
__ZN2v88internal11interpreter20BytecodeArrayBuilder27LoadAccumulatorWithRegisterENS1_8RegisterE
__ZN2v88internal11interpreter25BytecodeRegisterOptimizer6DoLdarENS1_8RegisterE
__ZN2v88internal11interpreter25BytecodeRegisterOptimizer16RegisterTransferEPNS2_12RegisterInfoES4_
__ZNSt3__15dequeIPN2v88internal11interpreter25BytecodeRegisterOptimizer12RegisterInfoENS2_22RecyclingZoneAllocatorIS6_EEE19__add_back_capacityEv
__ZN2v88internal4Zone8NewArrayIPPNS0_11interpreter25BytecodeRegisterOptimizer12RegisterInfoEEEPT_m
__ZNSt3__114__split_bufferIPPN2v88internal11interpreter25BytecodeRegisterOptimizer12RegisterInfoERNS2_22RecyclingZoneAllocatorIS7_EEE9push_backEOS7_
__ZN2v88internal11interpreter25BytecodeRegisterOptimizer12RegisterInfo21AddToEquivalenceSetOfEPS3_
__ZN2v88internal11interpreter20BytecodeArrayBuilder16StoreContextSlotENS1_8RegisterEii
__ZN2v88internal11interpreter20BytecodeArrayBuilder27OutputStaCurrentContextSlotIJiEEEvDpT_
__ZN2v88internal11interpreter25BytecodeRegisterOptimizer22OutputRegisterTransferEPNS2_12RegisterInfoES4_
__ZN2v88internal11interpreter22RegisterTransferWriter8EmitLdarENS1_8RegisterE
__ZN2v88internal11interpreter12BytecodeNode6CreateILNS1_8BytecodeE37ELNS1_14AccumulatorUseE2ELNS1_11OperandTypeE9EEES2_NS1_18BytecodeSourceInfoEj
__ZN2v88internal11interpreter12BytecodeNode6CreateILNS1_8BytecodeE29ELNS1_14AccumulatorUseE1ELNS1_11OperandTypeE5EEES2_NS1_18BytecodeSourceInfoEj
__ZN2v88internal11interpreter17BytecodeGenerator24VisitVariableDeclarationEPNS0_19VariableDeclarationE
__ZN2v88internal11interpreter20BytecodeArrayBuilder11LoadTheHoleEv
__ZN2v88internal11interpreter20BytecodeArrayBuilder16OutputLdaTheHoleIJEEEvDpT_
__ZN2v88internal11interpreter17BytecodeGenerator24VisitFunctionDeclarationEPNS0_19FunctionDeclarationE
__ZN2v88internal11interpreter17BytecodeGenerator23BuildVariableAssignmentEPNS0_8VariableENS0_5Token5ValueENS0_13HoleCheckModeENS0_18LookupHoistingModeE
__ZNK2v88internal11interpreter20BytecodeArrayBuilder5LocalEi
__ZN2v88internal11interpreter20BytecodeArrayBuilder26StoreAccumulatorInRegisterENS1_8RegisterE
__ZN2v88internal11interpreter25BytecodeRegisterOptimizer6DoStarENS1_8RegisterE
__ZN2v88internal11interpreter22RegisterTransferWriter8EmitStarENS1_8RegisterE
__ZN2v88internal11interpreter12BytecodeNode6CreateILNS1_8BytecodeE38ELNS1_14AccumulatorUseE1ELNS1_11OperandTypeE12EEES2_NS1_18BytecodeSourceInfoEj
__ZN2v88internal11interpreter17BytecodeGenerator12VisitLiteralEPNS0_7LiteralE
__ZN2v88internal11interpreter17BytecodeGenerator10VisitBlockEPNS0_5BlockE
__ZN2v88internal11interpreter17BytecodeGenerator15VisitStatementsEPKNS0_8ZoneListIPNS0_9StatementEEE
__ZN2v88internal11interpreter17BytecodeGenerator15VisitAssignmentEPNS0_10AssignmentE
__ZN2v88internal11interpreter17BytecodeGenerator20PrepareAssignmentLhsEPNS0_10ExpressionENS2_25AccumulatorPreservingModeE
__ZN2v88internal8Property13GetAssignTypeEPS1_
__ZNK2v88internal10Expression13IsPrivateNameEv
__ZNK2v88internal12AstRawString12AsArrayIndexEPj
__ZN2v88internal11interpreter17BytecodeGenerator21VisitForRegisterValueEPNS0_10ExpressionE
__ZNK2v88internal13VariableProxy15hole_check_modeEv
__ZN2v88internal11interpreter17BytecodeGenerator17BuildVariableLoadEPNS0_8VariableENS0_13HoleCheckModeENS0_10TypeofModeE
__ZN2v88internal11interpreter17BytecodeGenerator25GetCachedLoadGlobalICSlotENS0_10TypeofModeEPNS0_8VariableE
__ZN2v88internal18FeedbackVectorSpec7AddSlotENS0_16FeedbackSlotKindE
__ZN2v88internal11interpreter20BytecodeArrayBuilder10LoadGlobalEPKNS0_12AstRawStringEiNS0_10TypeofModeE
__ZN2v88internal11interpreter20ConstantArrayBuilder6InsertEPKNS0_12AstRawStringE
__ZN2v88internal11interpreter19BytecodeNodeBuilderILNS1_8BytecodeE19ELNS1_14AccumulatorUseE2EJLNS1_11OperandTypeE5ELS5_5EEE4MakeIJmiEEENS1_12BytecodeNodeEPNS1_20BytecodeArrayBuilderEDpT_
__ZN2v88internal11interpreter12BytecodeNode6CreateILNS1_8BytecodeE19ELNS1_14AccumulatorUseE2ELNS1_11OperandTypeE5ELS6_5EEES2_NS1_18BytecodeSourceInfoEjj
__ZN2v88internal11interpreter17BytecodeGenerator17VisitPropertyLoadENS1_8RegisterEPNS0_8PropertyE
__ZNK2v88internal7Literal14IsPropertyNameEv
__ZN2v88internal11interpreter17BytecodeGenerator19GetCachedLoadICSlotEPKNS0_10ExpressionEPKNS0_12AstRawStringE
__ZN2v88internal11interpreter20BytecodeArrayBuilder17LoadNamedPropertyENS1_8RegisterEPKNS0_12AstRawStringEi
__ZN2v88internal11interpreter19BytecodeNodeBuilderILNS1_8BytecodeE40ELNS1_14AccumulatorUseE2EJLNS1_11OperandTypeE9ELS5_5ELS5_5EEE4MakeIJNS1_8RegisterEmiEEENS1_12BytecodeNodeEPNS1_20BytecodeArrayBuilderEDpT_
__ZN2v88internal11interpreter25BytecodeRegisterOptimizer16GetInputRegisterENS1_8RegisterE
__ZN2v88internal11interpreter12BytecodeNode6CreateILNS1_8BytecodeE40ELNS1_14AccumulatorUseE2ELNS1_11OperandTypeE9ELS6_5ELS6_5EEES2_NS1_18BytecodeSourceInfoEjjj
__ZN2v88internal11interpreter17BytecodeGenerator15BuildAssignmentERKNS2_17AssignmentLhsDataENS0_5Token5ValueENS0_18LookupHoistingModeE
__ZN2v88internal11interpreter27BreakableControlFlowBuilderD2Ev
__ZN2v88internal11interpreter14BytecodeLabels4BindEPNS1_20BytecodeArrayBuilderE
__ZN2v88internal11interpreter20BytecodeArrayBuilder15LoadContextSlotENS1_8RegisterEiiNS2_21ContextSlotMutabilityE
__ZN2v88internal11interpreter20BytecodeArrayBuilder36OutputLdaImmutableCurrentContextSlotIJiEEEvDpT_
__ZN2v88internal11interpreter12BytecodeNode6CreateILNS1_8BytecodeE27ELNS1_14AccumulatorUseE2ELNS1_11OperandTypeE5EEES2_NS1_18BytecodeSourceInfoEj
__ZN2v88internal11interpreter17BytecodeGenerator23BuildStoreNamedPropertyEPKNS0_10ExpressionENS1_8RegisterEPKNS0_12AstRawStringE
__ZN2v88internal11interpreter17BytecodeGenerator20GetCachedStoreICSlotEPKNS0_10ExpressionEPKNS0_12AstRawStringE
__ZN2v88internal11interpreter20BytecodeArrayBuilder18StoreNamedPropertyENS1_8RegisterEPKNS0_12AstRawStringEiNS0_12LanguageModeE
__ZN2v88internal11interpreter20BytecodeArrayBuilder18StoreNamedPropertyENS1_8RegisterEmiNS0_12LanguageModeE
__ZN2v88internal11interpreter19BytecodeNodeBuilderILNS1_8BytecodeE45ELNS1_14AccumulatorUseE3EJLNS1_11OperandTypeE9ELS5_5ELS5_5EEE4MakeIJNS1_8RegisterEmiEEENS1_12BytecodeNodeEPNS1_20BytecodeArrayBuilderEDpT_
__ZN2v88internal11interpreter12BytecodeNode6CreateILNS1_8BytecodeE45ELNS1_14AccumulatorUseE3ELNS1_11OperandTypeE9ELS6_5ELS6_5EEES2_NS1_18BytecodeSourceInfoEjjj
__ZN2v88internal11interpreter17BytecodeGenerator9VisitCallEPNS0_4CallE
__ZNK2v88internal4Call11GetCallTypeEv
__ZNK2v88internal8ZoneListIPNS0_10ExpressionEEixEi
__ZN2v88internal11interpreter17BytecodeGenerator28VisitAndPushIntoRegisterListEPNS0_10ExpressionEPNS1_12RegisterListE
__ZN2v88internal11interpreter17BytecodeGenerator17VisitClassLiteralEPNS0_12ClassLiteralENS1_8RegisterE
__ZN2v88internal11interpreter17BytecodeGenerator17BuildClassLiteralEPNS0_12ClassLiteralENS1_8RegisterE
__ZN2v88internal4Zone8NewArrayINSt3__14pairIPNS0_12ClassLiteralEmEEEEPT_m
__ZN2v88internal11interpreter20BytecodeArrayBuilder12MoveRegisterENS1_8RegisterES3_
__ZN2v88internal11interpreter25BytecodeRegisterOptimizer5DoMovENS1_8RegisterES3_
__ZN2v88internal11interpreter20BytecodeArrayBuilder21LoadConstantPoolEntryEm
__ZN2v88internal11interpreter20BytecodeArrayBuilder17OutputLdaConstantIJmEEEvDpT_
__ZN2v88internal11interpreter12BytecodeNode6CreateILNS1_8BytecodeE18ELNS1_14AccumulatorUseE2ELNS1_11OperandTypeE5EEES2_NS1_18BytecodeSourceInfoEj
__ZN2v88internal11interpreter20BytecodeArrayBuilder11CallRuntimeENS0_7Runtime10FunctionIdENS1_12RegisterListE
__ZN2v88internal11interpreter16IntrinsicsHelper11IsSupportedENS0_7Runtime10FunctionIdE
__ZN2v88internal11interpreter19BytecodeNodeBuilderILNS1_8BytecodeE97ELNS1_14AccumulatorUseE2EJLNS1_11OperandTypeE3ELS5_10ELS5_7EEE4MakeIJiNS1_12RegisterListEiEEENS1_12BytecodeNodeEPNS1_20BytecodeArrayBuilderEDpT_
__ZN2v88internal11interpreter20BytecodeArrayBuilder27GetInputRegisterListOperandENS1_12RegisterListE
__ZNK2v88internal11interpreter20BytecodeArrayBuilder19RegisterListIsValidENS1_12RegisterListE
__ZN2v88internal11interpreter25BytecodeRegisterOptimizer20GetInputRegisterListENS1_12RegisterListE
__ZN2v88internal11interpreter22RegisterTransferWriter7EmitMovENS1_8RegisterES3_
__ZN2v88internal11interpreter12BytecodeNode6CreateILNS1_8BytecodeE39ELNS1_14AccumulatorUseE0ELNS1_11OperandTypeE9ELS6_12EEES2_NS1_18BytecodeSourceInfoEjj
__ZN2v88internal11interpreter12BytecodeNode6CreateILNS1_8BytecodeE97ELNS1_14AccumulatorUseE2ELNS1_11OperandTypeE3ELS6_10ELS6_7EEES2_NS1_18BytecodeSourceInfoEjjj
__ZN2v88internal11interpreter20BytecodeArrayBuilder21CallUndefinedReceiverENS1_8RegisterENS1_12RegisterListEi
__ZN2v88internal11interpreter19BytecodeNodeBuilderILNS1_8BytecodeE94ELNS1_14AccumulatorUseE2EJLNS1_11OperandTypeE9ELS5_9ELS5_9ELS5_5EEE4MakeIJNS1_8RegisterES8_S8_iEEENS1_12BytecodeNodeEPNS1_20BytecodeArrayBuilderEDpT_
__ZN2v88internal11interpreter12BytecodeNode6CreateILNS1_8BytecodeE94ELNS1_14AccumulatorUseE2ELNS1_11OperandTypeE9ELS6_9ELS6_9ELS6_5EEES2_NS1_18BytecodeSourceInfoEjjjj
__ZN2v84base19TemplateHashMapImplIljNS0_18KeyEqualityMatcherIlEENS_8internal20ZoneAllocationPolicyEE6ResizeES5_
__ZN2v88internal12ArrayLiteral17InitDepthAndFlagsEv
__ZN2v88internal11interpreter17BytecodeGenerator23BuildCreateArrayLiteralEPKNS0_8ZoneListIPNS0_10ExpressionEEEPNS0_12ArrayLiteralE
__ZNK2v88internal12ArrayLiteral22IsFastCloningSupportedEv
__ZN2v88internal11interpreter23CreateArrayLiteralFlags6EncodeEbi
__ZN2v88internal4Zone8NewArrayINSt3__14pairIPNS0_12ArrayLiteralEmEEEEPT_m
__ZN2v88internal11interpreter20BytecodeArrayBuilder18CreateArrayLiteralEmii
__ZN2v88internal11interpreter19BytecodeNodeBuilderILNS1_8BytecodeE122ELNS1_14AccumulatorUseE2EJLNS1_11OperandTypeE5ELS5_5ELS5_1EEE4MakeIJmiiEEENS1_12BytecodeNodeEPNS1_20BytecodeArrayBuilderEDpT_
__ZN2v88internal11interpreter12BytecodeNode6CreateILNS1_8BytecodeE122ELNS1_14AccumulatorUseE2ELNS1_11OperandTypeE5ELS6_5ELS6_1EEES2_NS1_18BytecodeSourceInfoEjjj
__ZN2v88internal10Expression18IsCompileTimeValueEv
__ZN2v88internal11interpreter20BytecodeArrayBuilder12CallPropertyENS1_8RegisterENS1_12RegisterListEi
__ZN2v88internal11interpreter19BytecodeNodeBuilderILNS1_8BytecodeE89ELNS1_14AccumulatorUseE2EJLNS1_11OperandTypeE9ELS5_9ELS5_9ELS5_5EEE4MakeIJNS1_8RegisterES8_S8_iEEENS1_12BytecodeNodeEPNS1_20BytecodeArrayBuilderEDpT_
__ZN2v88internal11interpreter12BytecodeNode6CreateILNS1_8BytecodeE89ELNS1_14AccumulatorUseE2ELNS1_11OperandTypeE9ELS6_9ELS6_9ELS6_5EEES2_NS1_18BytecodeSourceInfoEjjjj
__ZN2v88internal11interpreter20BytecodeArrayBuilder8LoadNullEv
__ZN2v88internal11interpreter20BytecodeArrayBuilder13OutputLdaNullIJEEEvDpT_
__ZN2v88internal11interpreter19BytecodeNodeBuilderILNS1_8BytecodeE90ELNS1_14AccumulatorUseE2EJLNS1_11OperandTypeE9ELS5_9ELS5_9ELS5_9ELS5_5EEE4MakeIJNS1_8RegisterES8_S8_S8_iEEENS1_12BytecodeNodeEPNS1_20BytecodeArrayBuilderEDpT_
__ZN2v88internal11interpreter12BytecodeNode6CreateILNS1_8BytecodeE90ELNS1_14AccumulatorUseE2ELNS1_11OperandTypeE9ELS6_9ELS6_9ELS6_9ELS6_5EEES2_NS1_18BytecodeSourceInfoEjjjjj
__ZN2v88internal11interpreter20BytecodeArrayBuilder13LoadUndefinedEv
__ZN2v88internal11interpreter20BytecodeArrayBuilder18OutputLdaUndefinedIJEEEvDpT_
__ZN2v88internal11interpreter20BytecodeArrayBuilder10PopContextENS1_8RegisterE
__ZN2v88internal11interpreter20BytecodeArrayBuilder16OutputPopContextIJNS1_8RegisterEEEEvDpT_
__ZN2v88internal11interpreter12BytecodeNode6CreateILNS1_8BytecodeE23ELNS1_14AccumulatorUseE0ELNS1_11OperandTypeE9EEES2_NS1_18BytecodeSourceInfoEj
__ZN2v88internal7Factory36NewUncompiledDataWithoutPreparseDataENS0_6HandleINS0_6StringEEEii
__ZN2v88internal14UncompiledData10InitializeES1_NS0_6StringEiiNSt3__18functionIFvNS0_10HeapObjectENS0_14FullObjectSlotES5_EEE
__ZNSt3__110__function16__policy_invokerIFvN2v88internal10HeapObjectENS3_14FullObjectSlotES4_EE11__call_implINS0_12__alloc_funcIZNS3_14UncompiledData10InitializeESA_NS3_6StringEiiNS_8functionIS6_EEEd_UlS4_S5_S4_E_NS_9allocatorISE_EES6_EEEEvPKNS0_16__policy_storageEOS4_OS5_SL_
__ZN2v88internal18SharedFunctionInfo19set_uncompiled_dataENS0_14UncompiledDataE
__ZN2v88internal12ArrayLiteral27BuildBoilerplateDescriptionEPNS0_7IsolateE
__ZN2v88internal19MaterializedLiteral19GetBoilerplateValueEPNS0_10ExpressionEPNS0_7IsolateE
__ZNK2v88internal7Literal10BuildValueEPNS0_7IsolateE
__ZN2v88internal35IsMoreGeneralElementsKindTransitionENS0_12ElementsKindES1_
__ZN2v88internal7Factory30NewArrayBoilerplateDescriptionENS0_12ElementsKindENS0_6HandleINS0_14FixedArrayBaseEEE
__ZN2v88internal16ClassBoilerplate21BuildClassBoilerplateEPNS0_7IsolateEPNS0_12ClassLiteralE
__ZN2v88internal16ObjectDescriptor15CreateTemplatesEPNS0_7IsolateE
__ZN2v88internal15DescriptorArray8AllocateEPNS0_7IsolateEii
__ZN2v88internal16ObjectDescriptor11AddConstantEPNS0_7IsolateENS0_6HandleINS0_4NameEEENS4_INS0_6ObjectEEENS0_18PropertyAttributesE
__ZN2v88internal15FunctionLiteral15NeedsHomeObjectEPNS0_10ExpressionE
__ZN2v88internal7Factory17NewClassPositionsEii
__ZN2v88internal10Descriptor12DataConstantENS0_6HandleINS0_4NameEEENS2_INS0_6ObjectEEENS0_18PropertyAttributesE
__ZN2v88internal11HandleScope14CloseAndEscapeINS0_16ClassBoilerplateEEENS0_6HandleIT_EES6_
__ZN2v88internal16FeedbackMetadata7SetKindENS0_12FeedbackSlotENS0_16FeedbackSlotKindE
__ZN2v88internal12_GLOBAL__N_125FinalizeScriptCompilationEPNS0_7IsolateEPNS0_9ParseInfoE
__ZN2v88internal14TimedHistogram4StopEPNS_4base12ElapsedTimerEPNS0_7IsolateE
__ZN2v88internal18SharedFunctionInfo14ScriptIteratorC1EPNS0_7IsolateENS0_6ScriptE
__ZN2v88internal18SharedFunctionInfo14ScriptIterator4NextEv
__ZN2v88internal9ParseInfoD1Ev
__ZN2v88internal9ParseInfoD2Ev
__ZN2v88internal10JSFunction22InitializeFeedbackCellENS0_6HandleIS1_EE
__ZN2v88internal10JSFunction30EnsureClosureFeedbackCellArrayENS0_6HandleIS1_EE
__ZN2v88internal24ClosureFeedbackCellArray3NewEPNS0_7IsolateENS0_6HandleINS0_18SharedFunctionInfoEEE
__ZN2v88internal7Factory27NewClosureFeedbackCellArrayEi
__ZN2v88internal7Factory20NewFixedArrayWithMapINS0_24ClosureFeedbackCellArrayEEENS0_6HandleIT_EENS0_9RootIndexEiNS0_14AllocationTypeE
__ZN2v88internal7Factory17NewNoClosuresCellENS0_6HandleINS0_10HeapObjectEEE
__ZN2v88internal7Factory17NewOneClosureCellENS0_6HandleINS0_10HeapObjectEEE
__ZN2v88internal5Debug14OnAfterCompileENS0_6HandleINS0_6ScriptEEE
__ZN2v88internal5Debug19ProcessCompileEventEbNS0_6HandleINS0_6ScriptEEE
__ZN2v88internal12_GLOBAL__N_123ScriptCompileTimerScopeD1Ev
__ZN2v88internal9Histogram9AddSampleEi
__ZN2v85Utils7ConvertINS_8internal10JSReceiverENS_8FunctionEEENS_5LocalIT0_EENS2_6HandleIT_EE
__ZN2v814ScriptCompiler26CreateCodeCacheForFunctionENS_5LocalINS_8FunctionEEE
__ZN2v88internal14CodeSerializer9SerializeENS0_6HandleINS0_18SharedFunctionInfoEEE
__ZN2v88internal6Script17ContainsAsmModuleEv
__ZN2v88internal18SerializedCodeData10SourceHashENS0_6HandleINS0_6StringEEENS_19ScriptOriginOptionsE
__ZN2v88internal10SerializerC2EPNS0_7IsolateE
__ZN2v88internal24ExternalReferenceEncoderC1EPNS0_7IsolateE
__ZN2v88internal24ExternalReferenceEncoderC2EPNS0_7IsolateE
__ZNK2v84base19TemplateHashMapImplImjNS0_18KeyEqualityMatcherIlEENS0_23DefaultAllocationPolicyEE5ProbeERKmj
__ZN2v84base19TemplateHashMapImplImjNS0_18KeyEqualityMatcherIlEENS0_23DefaultAllocationPolicyEE6ResizeES4_
__ZN2v88internal12RootIndexMapC1EPNS0_7IsolateE
__ZN2v88internal12RootIndexMapC2EPNS0_7IsolateE
__ZN2v88internal19SerializerAllocatorC1EPNS0_10SerializerE
__ZN2v88internal19SerializerAllocator18UseCustomChunkSizeEj
__ZN2v88internal22SerializerReferenceMap3AddEPvNS0_19SerializerReferenceE
__ZNK2v84base19TemplateHashMapImplImNS_8internal19SerializerReferenceENS0_18KeyEqualityMatcherIlEENS0_23DefaultAllocationPolicyEE5ProbeERKmj
__ZN2v88internal14CodeSerializer27SerializeSharedFunctionInfoENS0_6HandleINS0_18SharedFunctionInfoEEE
__ZN2v88internal10Serializer17VisitRootPointersENS0_4RootEPKcNS0_14FullObjectSlotES5_
__ZN2v88internal14CodeSerializer15SerializeObjectENS0_10HeapObjectE
__ZN2v88internal10Serializer18SerializeHotObjectENS0_10HeapObjectE
__ZN2v88internal10Serializer13SerializeRootENS0_10HeapObjectE
__ZN2v88internal10Serializer22SerializeBackReferenceENS0_10HeapObjectE
__ZN2v88internal14CodeSerializer23SerializeReadOnlyObjectENS0_10HeapObjectE
__ZN2v88internal14CodeSerializer11ElideObjectENS0_6ObjectE
__ZN2v88internal10Serializer9PushStackENS0_10HeapObjectE
__ZN2v88internal10Serializer16ObjectSerializer9SerializeEv
__ZNK2v88internal10HeapObject18IsSeqTwoByteStringEPNS0_7IsolateE
__ZN2v88internal10Serializer16ObjectSerializer15SerializeObjectEv
__ZN2v88internal10Serializer16ObjectSerializer17SerializePrologueENS0_13SnapshotSpaceEiNS0_3MapE
__ZN2v88internal19SerializerAllocator8AllocateENS0_13SnapshotSpaceEj
__ZN2v88internal16SnapshotByteSink6PutIntEmPKc
__ZN2v88internal10Serializer7PutRootENS0_9RootIndexENS0_10HeapObjectE
__ZN2v88internal10Serializer14MustBeDeferredENS0_10HeapObjectE
__ZN2v88internal10Serializer16ObjectSerializer16SerializeContentENS0_3MapEi
__ZN2v88internal19UnlinkWeakNextScopeC2EPNS0_4HeapENS0_10HeapObjectE
__ZN2v88internal10HeapObject11IterateBodyENS0_3MapEiPNS0_13ObjectVisitorE
__ZN2v88internal19BodyDescriptorApplyINS0_15CallIterateBodyEvNS0_3MapENS0_10HeapObjectEiPNS0_13ObjectVisitorEEET0_NS0_12InstanceTypeET1_T2_T3_T4_
__ZN2v88internal13ObjectVisitor22VisitCustomWeakPointerENS0_10HeapObjectENS0_14FullObjectSlotE
__ZN2v88internal13ObjectVisitor23VisitCustomWeakPointersENS0_10HeapObjectENS0_14FullObjectSlotES3_
__ZN2v88internal10Serializer16ObjectSerializer13VisitPointersENS0_10HeapObjectENS0_14FullObjectSlotES4_
__ZN2v88internal10Serializer16ObjectSerializer13VisitPointersENS0_10HeapObjectENS0_19FullMaybeObjectSlotES4_
__ZN2v88internal10Serializer16ObjectSerializer13OutputRawDataEm
__ZN2v88internal13BytecodeArray38ClearFrameCacheFromSourcePositionTableEv
__ZN2v88internal13ObjectVisitor12VisitPointerENS0_10HeapObjectENS0_14FullObjectSlotE
__ZN2v88internal16SnapshotByteSink10PutSectionEiPKc
__ZN2v88internal12_GLOBAL__N_124OutputRawWithCustomFieldEPNS0_16SnapshotByteSinkEmiiiiPKh
__ZN2v88internal16SnapshotByteSink6PutRawEPKhiPKc
__ZNSt3__16vectorIhNS_9allocatorIhEEE6insertIPKhEENS_9enable_ifIXaasr21__is_forward_iteratorIT_EE5valuesr16is_constructibleIhNS_15iterator_traitsIS8_E9referenceEEE5valueENS_11__wrap_iterIPhEEE4typeENSC_IS6_EES8_S8_
__ZN2v88internal16SeqOneByteString13clear_paddingEv
__ZN2v84base19TemplateHashMapImplImNS_8internal19SerializerReferenceENS0_18KeyEqualityMatcherIlEENS0_23DefaultAllocationPolicyEE6ResizeES6_
__ZN2v88internal10Serializer16PutBackReferenceENS0_10HeapObjectENS0_19SerializerReferenceE
__ZNK2v88internal19SerializerAllocator31BackReferenceIsAlreadyAllocatedENS0_19SerializerReferenceE
__ZN2v88internal10Serializer20PutAttachedReferenceENS0_19SerializerReferenceE
__ZN2v88internal10Serializer9PutRepeatEi
__ZNK2v88internal10HeapObject13CanBeRehashedEv
__ZN2v88internal10Serializer24SerializeDeferredObjectsEv
__ZN2v88internal10Serializer3PadEi
__ZN2v88internal18SerializedCodeDataC2EPKNSt3__16vectorIhNS2_9allocatorIhEEEEPKNS0_14CodeSerializerE
__ZNK2v88internal19SerializerAllocator18EncodeReservationsEv
__ZNSt3__16vectorIN2v88internal14SerializedData11ReservationENS_9allocatorIS4_EEE24__emplace_back_slow_pathIJRKjEEEvDpOT_
__ZN2v88internal14SerializedData12AllocateDataEj
__ZN2v88internal8FlagList4HashEv
__ZN2v88internal10ScriptDataC2EPKhi
__ZN2v814ScriptCompiler10CachedDataC1EPKhiNS1_12BufferPolicyE
__ZN2v88internal10Serializer16OutputStatisticsEPKc
__ZN2v88internal10SerializerD2Ev
__ZN2v88internal24ExternalReferenceEncoderD1Ev
__ZN2v88internal24ExternalReferenceEncoderD2Ev
__ZNSt3__112__hash_tableINS_17__hash_value_typeINS_12basic_stringIcNS_11char_traitsIcEENS_9allocatorIcEEEENS_10unique_ptrIN2v814ScriptCompiler10CachedDataENS_14default_deleteISB_EEEEEENS_22__unordered_map_hasherIS7_SF_NS_4hashIS7_EELb1EEENS_21__unordered_map_equalIS7_SF_NS_8equal_toIS7_EELb1EEENS5_ISF_EEE21__emplace_unique_implIJRPKcSE_EEENS_4pairINS_15__hash_iteratorIPNS_11__hash_nodeISF_PvEEEEbEEDpOT_
__ZNSt3__112__hash_tableINS_17__hash_value_typeINS_12basic_stringIcNS_11char_traitsIcEENS_9allocatorIcEEEENS_10unique_ptrIN2v814ScriptCompiler10CachedDataENS_14default_deleteISB_EEEEEENS_22__unordered_map_hasherIS7_SF_NS_4hashIS7_EELb1EEENS_21__unordered_map_equalIS7_SF_NS_8equal_toIS7_EELb1EEENS5_ISF_EEE16__construct_nodeIJRPKcSE_EEENS8_INS_11__hash_nodeISF_PvEENS_22__hash_node_destructorINS5_ISW_EEEEEEDpOT_
__ZNSt3__112__hash_tableINS_17__hash_value_typeINS_12basic_stringIcNS_11char_traitsIcEENS_9allocatorIcEEEENS_10unique_ptrIN2v814ScriptCompiler10CachedDataENS_14default_deleteISB_EEEEEENS_22__unordered_map_hasherIS7_SF_NS_4hashIS7_EELb1EEENS_21__unordered_map_equalIS7_SF_NS_8equal_toIS7_EELb1EEENS5_ISF_EEE20__node_insert_uniqueEPNS_11__hash_nodeISF_PvEE
__ZNSt3__112__hash_tableINS_17__hash_value_typeINS_12basic_stringIcNS_11char_traitsIcEENS_9allocatorIcEEEENS_10unique_ptrIN2v814ScriptCompiler10CachedDataENS_14default_deleteISB_EEEEEENS_22__unordered_map_hasherIS7_SF_NS_4hashIS7_EELb1EEENS_21__unordered_map_equalIS7_SF_NS_8equal_toIS7_EELb1EEENS5_ISF_EEE28__node_insert_unique_prepareEmRSF_
__ZNSt3__112__hash_tableINS_17__hash_value_typeINS_12basic_stringIcNS_11char_traitsIcEENS_9allocatorIcEEEENS_10unique_ptrIN2v814ScriptCompiler10CachedDataENS_14default_deleteISB_EEEEEENS_22__unordered_map_hasherIS7_SF_NS_4hashIS7_EELb1EEENS_21__unordered_map_equalIS7_SF_NS_8equal_toIS7_EELb1EEENS5_ISF_EEE6rehashEm
__ZNSt3__112__hash_tableINS_17__hash_value_typeINS_12basic_stringIcNS_11char_traitsIcEENS_9allocatorIcEEEENS_10unique_ptrIN2v814ScriptCompiler10CachedDataENS_14default_deleteISB_EEEEEENS_22__unordered_map_hasherIS7_SF_NS_4hashIS7_EELb1EEENS_21__unordered_map_equalIS7_SF_NS_8equal_toIS7_EELb1EEENS5_ISF_EEE8__rehashEm
__ZN2v88Function4CallENS_5LocalINS_7ContextEEENS1_INS_5ValueEEEiPS5_
__ZN2v88internal15TimerEventScopeINS0_17TimerEventExecuteEE13LogTimerEventENS0_6Logger8StartEndE
__ZN2v88internal6Logger15CallEventLoggerEPNS0_7IsolateEPKcNS1_8StartEndEb
__ZN2v88internal9Execution4CallEPNS0_7IsolateENS0_6HandleINS0_6ObjectEEES6_iPS6_
__ZN2v88internal12_GLOBAL__N_117NormalizeReceiverEPNS0_7IsolateENS0_6HandleINS0_6ObjectEEE
__ZN2v88internal12_GLOBAL__N_16InvokeEPNS0_7IsolateERKNS1_12InvokeParamsE
__ZN2v88internal21PerIsolateAssertScopeILNS0_20PerIsolateAssertTypeE0ELb1EE9IsAllowedEPNS0_7IsolateE
__ZN2v88internal21PerIsolateAssertScopeILNS0_20PerIsolateAssertTypeE1ELb0EE9IsAllowedEPNS0_7IsolateE
__ZN2v88internal21PerIsolateAssertScopeILNS0_20PerIsolateAssertTypeE2ELb0EE9IsAllowedEPNS0_7IsolateE
__ZNK2v88internal7Context25script_execution_callbackEv
__ZN2v88internal15CheckObjectTypeEmmm
__ZN2v88internal25Runtime_LoadGlobalIC_MissEiPmPNS0_7IsolateE
__ZN2v88internal22ClobberDoubleRegistersEdddd
__ZN2v88internalL35__RT_impl_Runtime_LoadGlobalIC_MissENS0_9ArgumentsEPNS0_7IsolateE
__ZN2v88internal6Object7ToInt32EPi
__ZN2v88internal2IC11UpdateStateENS0_6HandleINS0_6ObjectEEES4_
__ZN2v88internal12LoadGlobalIC4LoadENS0_6HandleINS0_4NameEEEb
__ZNK2v88internal7Context20script_context_tableEv
__ZN2v88internal18ScriptContextTable6LookupEPNS0_7IsolateES1_NS0_6StringEPNS1_12LookupResultE
__ZNK2v88internal18ScriptContextTable4usedEv
__ZNK2v88internal18ScriptContextTable11get_contextEi
__ZN2v88internal9ScopeInfo16ContextSlotIndexES1_NS0_6StringEPNS0_12VariableModeEPNS0_18InitializationFlagEPNS0_17MaybeAssignedFlagEPNS0_12IsStaticFlagE
__ZN2v88internal6LoadIC4LoadENS0_6HandleINS0_6ObjectEEENS2_INS0_4NameEEEb
__ZN2v88internal3Map27SetShouldBeFastPrototypeMapENS0_6HandleIS1_EEbPNS0_7IsolateE
__ZN2v88internal7Factory16NewPrototypeInfoEv
__ZN2v88internal20Runtime_StoreIC_MissEiPmPNS0_7IsolateE
__ZN2v88internalL30__RT_impl_Runtime_StoreIC_MissENS0_9ArgumentsEPNS0_7IsolateE
__ZN2v88internal7StoreIC5StoreENS0_6HandleINS0_6ObjectEEENS2_INS0_4NameEEES4_NS0_11StoreOriginE
__ZN2v88internal19Runtime_DefineClassEiPmPNS0_7IsolateE
__ZN2v88internalL29__RT_impl_Runtime_DefineClassENS0_9ArgumentsEPNS0_7IsolateE
__ZN2v88internal6Object23GetPropertyWithAccessorEPNS0_14LookupIteratorE
__ZNK2v88internal14LookupIterator12GetAccessorsEv
__ZN2v88internal12AccessorInfo20IsCompatibleReceiverENS0_6ObjectE
__ZN2v88internal25PropertyCallbackArgumentsC1EPNS0_7IsolateENS0_6ObjectES4_NS0_8JSObjectENS_5MaybeINS0_11ShouldThrowEEE
__ZN2v88internal25PropertyCallbackArgumentsC2EPNS0_7IsolateENS0_6ObjectES4_NS0_8JSObjectENS_5MaybeINS0_11ShouldThrowEEE
__ZN2v88internal25PropertyCallbackArguments18CallAccessorGetterENS0_6HandleINS0_12AccessorInfoEEENS2_INS0_4NameEEE
__ZN2v88internal25PropertyCallbackArguments28BasicCallNamedGetterCallbackEPFvNS_5LocalINS_4NameEEERKNS_20PropertyCallbackInfoINS_5ValueEEEENS0_6HandleINS0_4NameEEENSC_INS0_6ObjectEEESG_
__ZN2v85Utils7ConvertINS_8internal4NameENS_4NameEEENS_5LocalIT0_EENS2_6HandleIT_EE
__ZN2v88internal9Accessors23FunctionPrototypeGetterENS_5LocalINS_4NameEEERKNS_20PropertyCallbackInfoINS_5ValueEEE
__ZNK2v88internal10JSFunction9prototypeEPNS0_7IsolateE
__ZN2v85Utils7ConvertINS_8internal6ObjectENS_5ValueEEENS_5LocalIT0_EENS2_6HandleIT_EE
__ZN2v88internal15CustomArgumentsINS_20PropertyCallbackInfoINS_5ValueEEEE14GetReturnValueINS0_6ObjectEEENS0_6HandleIT_EEPNS0_7IsolateE
__ZN2v88internal6Object23VerifyApiCallResultTypeEv
__ZN2v88internal11RelocatableD2Ev
__ZN2v88internal3Map6CreateEPNS0_7IsolateEi
__ZN2v88internal12_GLOBAL__N_124AddDescriptorsByTemplateEPNS0_7IsolateENS0_6HandleINS0_3MapEEENS4_INS0_15DescriptorArrayEEENS4_INS0_16NumberDictionaryEEENS4_INS0_8JSObjectEEERNS0_9ArgumentsE
__ZN2v88internal12_GLOBAL__N_139GetMethodWithSharedNameAndSetHomeObjectEPNS0_7IsolateERNS0_9ArgumentsENS0_6ObjectENS0_8JSObjectE
__ZN2v88internal10JSReceiver18GetCreationContextEv
__ZNK2v88internal10HeapObject10IsExternalEPNS0_7IsolateE
__ZNK2v88internal3Map11FindRootMapEPNS0_7IsolateE
__ZN2v88internal19Runtime_CompileLazyEiPmPNS0_7IsolateE
__ZN2v88internalL29__RT_impl_Runtime_CompileLazyENS0_9ArgumentsEPNS0_7IsolateE
__ZNK2v88internal15StackLimitCheck15JsHasOverflowedEm
__ZN2v88internal8Compiler7CompileENS0_6HandleINS0_10JSFunctionEEENS1_18ClearExceptionFlagEPNS0_15IsCompiledScopeE
__ZN2v88internal10JSFunction21HasOptimizationMarkerEv
__ZN2v88internal10JSFunction16HasOptimizedCodeEv
__ZNK2v88internal10JSFunction11is_compiledEv
__ZN2v88internal10JSFunction22ResetIfBytecodeFlushedEv
__ZN2v88internal10JSFunction30NeedsResetDueToFlushedBytecodeEv
__ZN2v88internal8Compiler7CompileENS0_6HandleINS0_18SharedFunctionInfoEEENS1_18ClearExceptionFlagEPNS0_15IsCompiledScopeE
__ZN2v88internal21PerIsolateAssertScopeILNS0_20PerIsolateAssertTypeE4ELb1EE9IsAllowedEPNS0_7IsolateE
__ZN2v88internal9ParseInfoC1EPNS0_7IsolateENS0_6HandleINS0_18SharedFunctionInfoEEE
__ZNK2v88internal18SharedFunctionInfo13StartPositionEv
__ZNK2v88internal18SharedFunctionInfo11EndPositionEv
__ZNK2v88internal18SharedFunctionInfo17HasOuterScopeInfoEv
__ZNK2v88internal18SharedFunctionInfo17GetOuterScopeInfoEv
__ZNK2v88internal18CompilerDispatcher10IsEnqueuedENS0_6HandleINS0_18SharedFunctionInfoEEE
__ZN2v88internal7parsing8ParseAnyEPNS0_9ParseInfoENS0_6HandleINS0_18SharedFunctionInfoEEEPNS0_7IsolateENS1_29ReportErrorsAndStatisticsModeE
__ZN2v88internal7parsing13ParseFunctionEPNS0_9ParseInfoENS0_6HandleINS0_18SharedFunctionInfoEEEPNS0_7IsolateENS1_29ReportErrorsAndStatisticsModeE
__ZN2v88internal6Parser13ParseFunctionEPNS0_7IsolateEPNS0_9ParseInfoENS0_6HandleINS0_18SharedFunctionInfoEEE
__ZN2v88internal5Scope21DeserializeScopeChainEPNS0_7IsolateEPNS0_4ZoneENS0_9ScopeInfoEPNS0_16DeclarationScopeEPNS0_15AstValueFactoryENS1_19DeserializationModeE
__ZN2v88internal16DeclarationScopeC2EPNS0_4ZoneENS0_9ScopeTypeENS0_6HandleINS0_9ScopeInfoEEE
__ZN2v88internal5ScopeC2EPNS0_4ZoneENS0_9ScopeTypeENS0_6HandleINS0_9ScopeInfoEEE
__ZNK2v88internal9ScopeInfo13language_modeEv
__ZNK2v88internal9ScopeInfo32PrivateNameLookupSkipsOuterClassEv
__ZNK2v88internal9ScopeInfo13function_kindEv
__ZNK2v88internal9ScopeInfo23SloppyEvalCanExtendVarsEv
__ZNK2v88internal9ScopeInfo22CanElideThisHoleChecksEv
__ZNK2v88internal9ScopeInfo17HasOuterScopeInfoEv
__ZNK2v88internal18SharedFunctionInfo4NameEv
__ZN2v88internal6Parser15DoParseFunctionEPNS0_7IsolateEPNS0_9ParseInfoEPKNS0_12AstRawStringE
__ZN2v88internal10ParserBaseINS0_6ParserEE24ParseFormalParameterListEPNS0_22ParserFormalParametersE
__ZN2v88internal10ParserBaseINS0_6ParserEE20ParseFormalParameterEPNS0_22ParserFormalParametersE
__ZN2v88internal10ParserBaseINS0_6ParserEE19ParseBindingPatternEv
__ZN2v88internal10ParserBaseINS0_6ParserEE22CheckArityRestrictionsEiNS0_12FunctionKindEbii
__ZN2v88internal10ParserBaseINS0_6ParserEE20ParseReturnStatementEv
__ZN2v88internal10ParserBaseINS0_6ParserEE15ParseExpressionEv
__ZN2v88internal6Parser13RewriteReturnEPNS0_10ExpressionEi
__ZN2v88internal10ParserBaseINS0_6ParserEE20BuildReturnStatementEPNS0_10ExpressionEii
__ZN2v88internal6Parser30RecordJumpStatementSourceRangeEPNS0_9StatementEi
__ZN2v88internal18SharedFunctionInfo13inferred_nameEv
__ZN2v88internal15FunctionLiteral17set_inferred_nameENS0_6HandleINS0_6StringEEE
__ZN2v88internal12_GLOBAL__N_123GenerateUnoptimizedCodeEPNS0_9ParseInfoEPNS0_19AccountingAllocatorEPNSt3__112forward_listINS6_10unique_ptrINS0_25UnoptimizedCompilationJobENS6_14default_deleteIS9_EEEENS6_9allocatorISC_EEEE
__ZN2v88internal20PerThreadAssertScopeILNS0_19PerThreadAssertTypeE2ELb1EEC2Ev
__ZN2v88internal5Scope6LookupILNS1_15ScopeLookupModeE1EEEPNS0_8VariableEPNS0_13VariableProxyEPS1_S8_S8_b
__ZN2v88internal5Scope17LookupInScopeInfoEPKNS0_12AstRawStringEPS1_
__ZNK2v88internal9ScopeInfo16ContextLocalModeEi
__ZNK2v88internal9ScopeInfo24ContextLocalIsStaticFlagEi
__ZNK2v88internal9ScopeInfo20ContextLocalInitFlagEi
__ZNK2v88internal9ScopeInfo29ContextLocalMaybeAssignedFlagEi
__ZNK2v88internal9ScopeInfo24ReceiverContextSlotIndexEv
__ZN2v88internal8Variable10AllocateToENS0_16VariableLocationEi
__ZNK2v88internal9ScopeInfo24FunctionContextSlotIndexENS0_6StringE
__ZN2v88internal20PerThreadAssertScopeILNS0_19PerThreadAssertTypeE2ELb1EED2Ev
__ZN2v88internal20PerThreadAssertScopeILNS0_19PerThreadAssertTypeE2ELb1EE7ReleaseEv
__ZN2v88internal12_GLOBAL__N_129ExecuteUnoptimizedCompileJobsEPNS0_9ParseInfoEPNS0_15FunctionLiteralEPNS0_19AccountingAllocatorEPNSt3__112forward_listINS8_10unique_ptrINS0_25UnoptimizedCompilationJobENS8_14default_deleteISB_EEEENS8_9allocatorISE_EEEE
__ZN2v88internal12_GLOBAL__N_123FinalizeUnoptimizedCodeEPNS0_9ParseInfoEPNS0_7IsolateENS0_6HandleINS0_18SharedFunctionInfoEEEPNS0_25UnoptimizedCompilationJobEPNSt3__112forward_listINSB_10unique_ptrIS9_NSB_14default_deleteIS9_EEEENSB_9allocatorISG_EEEE
__ZN2v88internal10ParserBaseINS0_6ParserEE17ParseForStatementEPNS0_8ZoneListIPKNS0_12AstRawStringEEES9_
__ZN2v88internal18PointerWithPayloadINS0_10ParserBaseINS0_6ParserEE13FunctionStateEbLi1EE6updateEPS5_b
__ZN2v88internal10ParserBaseINS0_6ParserEE11CheckInOrOfEPNS0_16ForEachStatement9VisitModeE
__ZN2v88internal10ParserBaseINS0_6ParserEE37ParseForEachStatementWithDeclarationsEiPNS3_7ForInfoEPNS0_8ZoneListIPKNS0_12AstRawStringEEESB_PNS0_5ScopeE
__ZN2v88internal6Parser21RewriteForVarInLegacyERKNS0_10ParserBaseIS1_E7ForInfoE
__ZN2v88internal10ParserBaseINS0_6ParserEE10ParseBlockEPNS0_8ZoneListIPKNS0_12AstRawStringEEE
__ZN2v88internal10ParserBaseINS0_6ParserEE16ParseIfStatementEPNS0_8ZoneListIPKNS0_12AstRawStringEEE
__ZN2v88internal10ParserBaseINS0_6ParserEE28ParseUnaryOrPrefixExpressionEv
__ZN2v88internal6Parser20BuildUnaryExpressionEPNS0_10ExpressionENS0_5Token5ValueEi
__ZN2v88internal10ParserBaseINS0_6ParserEE20ParseScopedStatementEPNS0_8ZoneListIPKNS0_12AstRawStringEEE
__ZN2v88internal6Parser35RecordIterationStatementSourceRangeEPNS0_18IterationStatementERKNS0_11SourceRangeE
__ZN2v88internal6Parser32DesugarBindingInForEachStatementEPNS0_10ParserBaseIS1_E7ForInfoEPPNS0_5BlockEPPNS0_10ExpressionE
__ZN2v88internal6Parser25CreateForEachStatementTDZEPNS0_5BlockERKNS0_10ParserBaseIS1_E7ForInfoE
__ZN2v88internal6Parser20DeclareBoundVariableEPKNS0_12AstRawStringENS0_12VariableModeEi
__ZN2v88internal11interpreter17BytecodeGenerator19VisitForOfStatementEPNS0_14ForOfStatementE
__ZN2v88internal11interpreter17BytecodeGenerator22BuildGetIteratorRecordENS1_8RegisterES3_NS0_12IteratorTypeE
__ZN2v88internal11interpreter17BytecodeGenerator16BuildGetIteratorENS0_12IteratorTypeE
__ZN2v88internal11interpreter20BytecodeArrayBuilder11GetIteratorENS1_8RegisterEii
__ZN2v88internal11interpreter19BytecodeNodeBuilderILNS1_8BytecodeE178ELNS1_14AccumulatorUseE2EJLNS1_11OperandTypeE9ELS5_5ELS5_5EEE4MakeIJNS1_8RegisterEiiEEENS1_12BytecodeNodeEPNS1_20BytecodeArrayBuilderEDpT_
__ZN2v88internal11interpreter12BytecodeNode6CreateILNS1_8BytecodeE178ELNS1_14AccumulatorUseE2ELNS1_11OperandTypeE9ELS6_5ELS6_5EEES2_NS1_18BytecodeSourceInfoEjjj
__ZN2v88internal11interpreter20BytecodeArrayBuilder9LoadFalseEv
__ZN2v88internal11interpreter20BytecodeArrayBuilder14OutputLdaFalseIJEEEvDpT_
__ZN2v88internal11interpreter19HandlerTableBuilder15NewHandlerEntryEv
__ZN2v88internal4Zone8NewArrayINS0_11interpreter19HandlerTableBuilder5EntryEEEPT_m
__ZN2v88internal11interpreter17TryFinallyBuilder8BeginTryENS1_8RegisterE
__ZN2v88internal11interpreter20BytecodeArrayBuilder12MarkTryBeginEiNS1_8RegisterE
__ZN2v88internal11interpreter19BytecodeArrayWriter18BindTryRegionStartEPNS1_19HandlerTableBuilderEi
__ZN2v88internal11interpreter19HandlerTableBuilder17SetTryRegionStartEim
__ZN2v88internal11interpreter19HandlerTableBuilder18SetContextRegisterEiNS1_8RegisterE
__ZZN2v88internal11interpreter17BytecodeGenerator19VisitForOfStatementEPNS0_14ForOfStatementEENK3$_0clEv
__ZN2v88internal11interpreter11LoopBuilder10LoopHeaderEv
__ZN2v88internal11interpreter20BytecodeArrayBuilder4BindEPNS1_18BytecodeLoopHeaderE
__ZN2v88internal11interpreter19BytecodeArrayWriter14BindLoopHeaderEPNS1_18BytecodeLoopHeaderE
__ZN2v88internal11interpreter18BytecodeLoopHeader7bind_toEm
__ZN2v88internal11interpreter20BytecodeArrayBuilder8LoadTrueEv
__ZN2v88internal11interpreter20BytecodeArrayBuilder13OutputLdaTrueIJEEEvDpT_
__ZN2v88internal11interpreter17BytecodeGenerator17BuildIteratorNextERKNS2_14IteratorRecordENS1_8RegisterE
__ZN2v88internal11interpreter19BytecodeNodeBuilderILNS1_8BytecodeE88ELNS1_14AccumulatorUseE2EJLNS1_11OperandTypeE9ELS5_9ELS5_5EEE4MakeIJNS1_8RegisterES8_iEEENS1_12BytecodeNodeEPNS1_20BytecodeArrayBuilderEDpT_
__ZN2v88internal11interpreter12BytecodeNode6CreateILNS1_8BytecodeE88ELNS1_14AccumulatorUseE2ELNS1_11OperandTypeE9ELS6_9ELS6_5EEES2_NS1_18BytecodeSourceInfoEjjj
__ZN2v88internal11interpreter20BytecodeArrayBuilder16JumpIfJSReceiverEPNS1_13BytecodeLabelE
__ZN2v88internal11interpreter20BytecodeArrayBuilder22OutputJumpIfJSReceiverIJiEEEvPNS1_13BytecodeLabelEDpT_
__ZN2v88internal11interpreter12BytecodeNode6CreateILNS1_8BytecodeE160ELNS1_14AccumulatorUseE1ELNS1_11OperandTypeE6EEES2_NS1_18BytecodeSourceInfoEj
__ZN2v88internal11interpreter19BytecodeArrayWriter9WriteJumpEPNS1_12BytecodeNodeEPNS1_13BytecodeLabelE
__ZN2v88internal11interpreter19BytecodeArrayWriter8EmitJumpEPNS1_12BytecodeNodeEPNS1_13BytecodeLabelE
__ZN2v88internal11interpreter13BytecodeLabel12set_referrerEm
__ZN2v88internal11interpreter20ConstantArrayBuilder19CreateReservedEntryEv
__ZN2v88internal11interpreter20ConstantArrayBuilder18ConstantArraySlice7ReserveEv
__ZN2v88internal11interpreter12BytecodeNode21UpdateScaleForOperandEij
__ZN2v88internal11interpreter20BytecodeArrayBuilder11CallRuntimeENS0_7Runtime10FunctionIdENS1_8RegisterE
__ZN2v88internal11interpreter20BytecodeArrayBuilder4BindEPNS1_13BytecodeLabelE
__ZN2v88internal11interpreter19BytecodeArrayWriter9BindLabelEPNS1_13BytecodeLabelE
__ZN2v88internal11interpreter19BytecodeArrayWriter9PatchJumpEmm
__ZN2v88internal11interpreter19BytecodeArrayWriter24PatchJumpWith8BitOperandEmi
__ZN2v88internal11interpreter9Bytecodes14GetOperandTypeENS1_8BytecodeEi
__ZN2v88internal11interpreter20ConstantArrayBuilder20DiscardReservedEntryENS1_11OperandSizeE
__ZN2v88internal11interpreter27BreakableControlFlowBuilder14EmitJumpIfTrueENS1_20BytecodeArrayBuilder13ToBooleanModeEPNS1_14BytecodeLabelsE
__ZN2v88internal11interpreter14BytecodeLabels3NewEv
__ZN2v88internal11interpreter20BytecodeArrayBuilder10JumpIfTrueENS2_13ToBooleanModeEPNS1_13BytecodeLabelE
__ZN2v88internal11interpreter20BytecodeArrayBuilder25OutputJumpIfToBooleanTrueIJiEEEvPNS1_13BytecodeLabelEDpT_
__ZN2v88internal11interpreter12BytecodeNode6CreateILNS1_8BytecodeE151ELNS1_14AccumulatorUseE1ELNS1_11OperandTypeE6EEES2_NS1_18BytecodeSourceInfoEj
__ZN2v88internal11interpreter11LoopBuilder8LoopBodyEv
__ZN2v88internal11interpreter17BytecodeGenerator16VisitIfStatementEPNS0_11IfStatementE
__ZNK2v88internal10Expression15ToBooleanIsTrueEv
__ZNK2v88internal10Expression16ToBooleanIsFalseEv
__ZN2v88internal11interpreter17BytecodeGenerator19VisitUnaryOperationEPNS0_14UnaryOperationE
__ZN2v88internal11interpreter17BytecodeGenerator8VisitNotEPNS0_14UnaryOperationE
__ZN2v88internal11interpreter17BytecodeGenerator29VisitInSameTestExecutionScopeEPNS0_10ExpressionE
__ZN2v88internal11interpreter17BytecodeGenerator9BuildTestENS1_20BytecodeArrayBuilder13ToBooleanModeEPNS1_14BytecodeLabelsES6_NS2_15TestFallthroughE
__ZN2v88internal11interpreter29ConditionalControlFlowBuilder4ThenEv
__ZN2v88internal11interpreter19BytecodeNodeBuilderILNS1_8BytecodeE87ELNS1_14AccumulatorUseE2EJLNS1_11OperandTypeE9ELS5_10ELS5_7ELS5_5EEE4MakeIJNS1_8RegisterENS1_12RegisterListEiiEEENS1_12BytecodeNodeEPNS1_20BytecodeArrayBuilderEDpT_
__ZN2v88internal11interpreter12BytecodeNode6CreateILNS1_8BytecodeE87ELNS1_14AccumulatorUseE2ELNS1_11OperandTypeE9ELS6_10ELS6_7ELS6_5EEES2_NS1_18BytecodeSourceInfoEjjjj
__ZN2v88internal11interpreter29ConditionalControlFlowBuilderD1Ev
__ZN2v88internal11interpreter29ConditionalControlFlowBuilderD2Ev
__ZN2v88internal11interpreter11LoopBuilder18BindContinueTargetEv
__ZN2v88internal11interpreter11LoopBuilder12JumpToHeaderEi
__ZN2v88internal11interpreter20BytecodeArrayBuilder8JumpLoopEPNS1_18BytecodeLoopHeaderEi
__ZN2v88internal11interpreter20BytecodeArrayBuilder14OutputJumpLoopEPNS1_18BytecodeLoopHeaderEi
__ZN2v88internal11interpreter12BytecodeNode6CreateILNS1_8BytecodeE138ELNS1_14AccumulatorUseE0ELNS1_11OperandTypeE6ELS6_8EEES2_NS1_18BytecodeSourceInfoEjj
__ZN2v88internal11interpreter19BytecodeArrayWriter13WriteJumpLoopEPNS1_12BytecodeNodeEPNS1_18BytecodeLoopHeaderE
__ZN2v88internal11interpreter19BytecodeArrayWriter12EmitJumpLoopEPNS1_12BytecodeNodeEPNS1_18BytecodeLoopHeaderE
__ZN2v88internal11interpreter11LoopBuilderD1Ev
__ZN2v88internal11interpreter11LoopBuilderD2Ev
__ZN2v88internal11interpreter17TryFinallyBuilder6EndTryEv
__ZN2v88internal11interpreter20BytecodeArrayBuilder10MarkTryEndEi
__ZN2v88internal11interpreter19BytecodeArrayWriter16BindTryRegionEndEPNS1_19HandlerTableBuilderEi
__ZN2v88internal11interpreter19HandlerTableBuilder15SetTryRegionEndEim
__ZN2v88internal11interpreter20BytecodeArrayBuilder11LoadLiteralENS0_3SmiE
__ZN2v88internal11interpreter20BytecodeArrayBuilder12OutputLdaSmiIJiEEEvDpT_
__ZN2v88internal11interpreter12BytecodeNode6CreateILNS1_8BytecodeE12ELNS1_14AccumulatorUseE2ELNS1_11OperandTypeE8EEES2_NS1_18BytecodeSourceInfoEj
__ZN2v88internal11interpreter17TryFinallyBuilder8LeaveTryEv
__ZN2v88internal11interpreter20BytecodeArrayBuilder4JumpEPNS1_13BytecodeLabelE
__ZN2v88internal11interpreter20BytecodeArrayBuilder10OutputJumpIJiEEEvPNS1_13BytecodeLabelEDpT_
__ZN2v88internal11interpreter12BytecodeNode6CreateILNS1_8BytecodeE139ELNS1_14AccumulatorUseE0ELNS1_11OperandTypeE6EEES2_NS1_18BytecodeSourceInfoEj
__ZN2v88internal11interpreter17TryFinallyBuilder12BeginHandlerEv
__ZN2v88internal11interpreter20BytecodeArrayBuilder11MarkHandlerEiNS0_12HandlerTable15CatchPredictionE
__ZNK2v88internal11interpreter25BytecodeRegisterOptimizer28EnsureAllRegistersAreFlushedEv
__ZN2v88internal11interpreter19BytecodeArrayWriter17BindHandlerTargetEPNS1_19HandlerTableBuilderEi
__ZN2v88internal11interpreter19HandlerTableBuilder16SetHandlerTargetEim
__ZN2v88internal11interpreter19HandlerTableBuilder13SetPredictionEiNS0_12HandlerTable15CatchPredictionE
__ZN2v88internal11interpreter17BytecodeGenerator12ControlScope16DeferredCommands13RecordCommandENS3_7CommandEPNS0_9StatementE
__ZN2v88internal11interpreter20BytecodeArrayBuilder13OutputLdaZeroIJEEEvDpT_
__ZN2v88internal11interpreter17TryFinallyBuilder12BeginFinallyEv
__ZN2v88internal11interpreter20BytecodeArrayBuilder17SetPendingMessageEv
__ZN2v88internal11interpreter20BytecodeArrayBuilder23OutputSetPendingMessageIJEEEvDpT_
__ZN2v88internal11interpreter17BytecodeGenerator22BuildFinalizeIterationENS2_14IteratorRecordENS1_8RegisterES4_
__ZN2v88internal11interpreter20BytecodeArrayBuilder21JumpIfUndefinedOrNullEPNS1_13BytecodeLabelE
__ZN2v88internal11interpreter20BytecodeArrayBuilder27OutputJumpIfUndefinedOrNullIJiEEEvPNS1_13BytecodeLabelEDpT_
__ZN2v88internal11interpreter12BytecodeNode6CreateILNS1_8BytecodeE159ELNS1_14AccumulatorUseE1ELNS1_11OperandTypeE6EEES2_NS1_18BytecodeSourceInfoEj
__ZN2v88internal11interpreter15TryCatchBuilder8BeginTryENS1_8RegisterE
__ZN2v88internal11interpreter20BytecodeArrayBuilder13CompareTypeOfENS1_15TestTypeOfFlags11LiteralFlagE
__ZN2v88internal11interpreter15TestTypeOfFlags6EncodeENS2_11LiteralFlagE
__ZN2v88internal11interpreter20BytecodeArrayBuilder16OutputTestTypeOfIJhEEEvDpT_
__ZN2v88internal11interpreter12BytecodeNode6CreateILNS1_8BytecodeE115ELNS1_14AccumulatorUseE3ELNS1_11OperandTypeE1EEES2_NS1_18BytecodeSourceInfoEj
__ZN2v88internal11interpreter20BytecodeArrayBuilder16OutputJumpIfTrueIJiEEEvPNS1_13BytecodeLabelEDpT_
__ZN2v88internal11interpreter12BytecodeNode6CreateILNS1_8BytecodeE153ELNS1_14AccumulatorUseE1ELNS1_11OperandTypeE6EEES2_NS1_18BytecodeSourceInfoEj
__ZN2v88internal11interpreter25BytecodeRegisterOptimizer25RegisterListAllocateEventENS1_12RegisterListE
__ZN2v88internal11interpreter20BytecodeArrayBuilder11LoadLiteralEPKNS0_12AstRawStringE
__ZN2v88internal11interpreter20BytecodeArrayBuilder5ThrowEv
__ZN2v88internal11interpreter20BytecodeArrayBuilder11OutputThrowIJEEEvDpT_
__ZN2v88internal11interpreter15TryCatchBuilder6EndTryEv
__ZN2v88internal11interpreter20BytecodeArrayBuilder16CompareReferenceENS1_8RegisterE
__ZN2v88internal11interpreter20BytecodeArrayBuilder24OutputTestReferenceEqualIJNS1_8RegisterEEEEvDpT_
__ZN2v88internal11interpreter12BytecodeNode6CreateILNS1_8BytecodeE109ELNS1_14AccumulatorUseE3ELNS1_11OperandTypeE9EEES2_NS1_18BytecodeSourceInfoEj
__ZN2v88internal11interpreter20BytecodeArrayBuilder7ReThrowEv
__ZN2v88internal11interpreter20BytecodeArrayBuilder13OutputReThrowIJEEEvDpT_
__ZN2v88internal11interpreter15TryCatchBuilder8EndCatchEv
__ZN2v88internal11interpreter15TryCatchBuilderD1Ev
__ZN2v88internal11interpreter17TryFinallyBuilder10EndFinallyEv
__ZN2v88internal11interpreter17BytecodeGenerator12ControlScope16DeferredCommands21ApplyDeferredCommandsEv
__ZN2v88internal11interpreter20BytecodeArrayBuilder11JumpIfFalseENS2_13ToBooleanModeEPNS1_13BytecodeLabelE
__ZN2v88internal11interpreter20BytecodeArrayBuilder17OutputJumpIfFalseIJiEEEvPNS1_13BytecodeLabelEDpT_
__ZN2v88internal11interpreter12BytecodeNode6CreateILNS1_8BytecodeE154ELNS1_14AccumulatorUseE1ELNS1_11OperandTypeE6EEES2_NS1_18BytecodeSourceInfoEj
__ZN2v88internal11interpreter17BytecodeGenerator24ControlScopeForBreakable7ExecuteENS2_12ControlScope7CommandEPNS0_9StatementEi
__ZN2v88internal11interpreter17TryFinallyBuilderD1Ev
__ZN2v88internal12HandlerTable13SetRangeStartEii
__ZN2v88internal12HandlerTable11SetRangeEndEii
__ZN2v88internal12HandlerTable15SetRangeHandlerEiiNS1_15CatchPredictionE
__ZN2v88internal12HandlerTable12SetRangeDataEii
__ZN2v88internal22Builtin_ReflectOwnKeysEiPmPNS0_7IsolateE
__ZN2v88internal16BuiltinArgumentsC2EiPm
__ZN2v88internalL27Builtin_Impl_ReflectOwnKeysENS0_16BuiltinArgumentsEPNS0_7IsolateE
__ZNK2v88internal16BuiltinArguments2atINS0_6ObjectEEENS0_6HandleIT_EEi
__ZN2v88internal14KeyAccumulator7GetKeysENS0_6HandleINS0_10JSReceiverEEENS0_17KeyCollectionModeENS0_14PropertyFilterENS0_17GetKeysConversionEbb
__ZN2v88internal18FastKeyAccumulator7PrepareEv
__ZN2v88internal18FastKeyAccumulator7GetKeysENS0_17GetKeysConversionE
__ZN2v88internal14KeyAccumulator11CollectKeysENS0_6HandleINS0_10JSReceiverEEES4_
__ZN2v88internal14KeyAccumulator14CollectOwnKeysENS0_6HandleINS0_10JSReceiverEEENS2_INS0_8JSObjectEEE
__ZN2v88internal14KeyAccumulator24CollectOwnElementIndicesENS0_6HandleINS0_10JSReceiverEEENS2_INS0_8JSObjectEEE
__ZN2v88internal12_GLOBAL__N_120ElementsAccessorBaseINS1_31FastHoleyObjectElementsAccessorENS1_18ElementsKindTraitsILNS0_12ElementsKindE3EEEE21CollectElementIndicesENS0_6HandleINS0_8JSObjectEEENS8_INS0_14FixedArrayBaseEEEPNS0_14KeyAccumulatorE
__ZN2v88internal12_GLOBAL__N_120ElementsAccessorBaseINS1_31FastHoleyObjectElementsAccessorENS1_18ElementsKindTraitsILNS0_12ElementsKindE3EEEE11GetMaxIndexENS0_8JSObjectENS0_14FixedArrayBaseE
__ZN2v88internal12_GLOBAL__N_122CollectInterceptorKeysENS0_6HandleINS0_10JSReceiverEEENS2_INS0_8JSObjectEEEPNS0_14KeyAccumulatorENS1_14IndexedOrNamedE
__ZN2v88internal14KeyAccumulator23CollectOwnPropertyNamesENS0_6HandleINS0_10JSReceiverEEENS2_INS0_8JSObjectEEE
__ZN2v88internal6Object9FilterKeyENS0_14PropertyFilterE
__ZN2v88internal14KeyAccumulator6AddKeyENS0_6HandleINS0_6ObjectEEENS0_16AddKeyConversionE
__ZN2v88internal14OrderedHashSet8AllocateEPNS0_7IsolateEiNS0_14AllocationTypeE
__ZN2v88internal16OrderedHashTableINS0_14OrderedHashSetELi1EE8AllocateEPNS0_7IsolateEiNS0_14AllocationTypeE
__ZN2v88internal14OrderedHashSet3AddEPNS0_7IsolateENS0_6HandleIS1_EENS4_INS0_6ObjectEEE
__ZN2v88internal6Object15GetOrCreateHashEPNS0_7IsolateE
__ZN2v88internal6Object13GetSimpleHashES1_
__ZN2v88internal16OrderedHashTableINS0_14OrderedHashSetELi1EE11HashToEntryEi
__ZNK2v88internal16OrderedHashTableINS0_14OrderedHashSetELi1EE15NumberOfBucketsEv
__ZN2v88internal16OrderedHashTableINS0_14OrderedHashSetELi1EE14EnsureGrowableEPNS0_7IsolateENS0_6HandleIS2_EE
__ZN2v88internal16OrderedHashTableINS0_14OrderedHashSetELi1EE10IsObsoleteEv
__ZNK2v88internal16OrderedHashTableINS0_14OrderedHashSetELi1EE16NumberOfElementsEv
__ZNK2v88internal16OrderedHashTableINS0_14OrderedHashSetELi1EE23NumberOfDeletedElementsEv
__ZN2v88internal16OrderedHashTableINS0_14OrderedHashSetELi1EE5KeyAtEi
__ZNK2v88internal16OrderedHashTableINS0_14OrderedHashSetELi1EE12UsedCapacityEv
__ZN2v88internal6Object13SameValueZeroES1_
__ZN2v88internal12_GLOBAL__N_131CollectOwnPropertyNamesInternalILb0EEENS_4base8OptionalIiEENS0_6HandleINS0_8JSObjectEEEPNS0_14KeyAccumulatorENS6_INS0_15DescriptorArrayEEEii
__ZN2v88internal17PrototypeIterator43AdvanceFollowingProxiesIgnoringAccessChecksEv
__ZN2v88internal14KeyAccumulator7GetKeysENS0_17GetKeysConversionE
__ZN2v88internal14OrderedHashSet18ConvertToKeysArrayEPNS0_7IsolateENS0_6HandleIS1_EENS0_17GetKeysConversionE
__ZN2v88internal4Heap19RightTrimFixedArrayENS0_14FixedArrayBaseEi
__ZN2v88internal4Heap20CreateFillerForArrayINS0_14FixedArrayBaseEEEvT_ii
__ZN2v88internal7Factory22NewJSArrayWithElementsENS0_6HandleINS0_14FixedArrayBaseEEENS0_12ElementsKindEiNS0_14AllocationTypeE
__ZN2v88internal7Factory32NewJSArrayWithUnverifiedElementsENS0_6HandleINS0_14FixedArrayBaseEEENS0_12ElementsKindEiNS0_14AllocationTypeE
__ZNK2v88internal7Context20GetInitialJSArrayMapENS0_12ElementsKindE
__ZN2v88internal8JSObject16ValidateElementsES1_
__ZN2v88internal6Object16ToArrayIndexSlowEm
__ZN2v88internal39Builtin_ReflectGetOwnPropertyDescriptorEiPmPNS0_7IsolateE
__ZN2v88internalL44Builtin_Impl_ReflectGetOwnPropertyDescriptorENS0_16BuiltinArgumentsEPNS0_7IsolateE
__ZN2v88internal10JSReceiver24GetOwnPropertyDescriptorEPNS0_7IsolateENS0_6HandleIS1_EENS4_INS0_6ObjectEEEPNS0_18PropertyDescriptorE
__ZN2v88internal10JSReceiver24GetOwnPropertyDescriptorEPNS0_14LookupIteratorEPNS0_18PropertyDescriptorE
__ZN2v88internal18PropertyDescriptor8ToObjectEPNS0_7IsolateE
__ZN2v88internal7Isolate28data_property_descriptor_mapEv
__ZN2v88internal8JSObject21InObjectPropertyAtPutEiNS0_6ObjectENS0_16WriteBarrierModeE
__ZN2v88internal29Builtin_ReflectDefinePropertyEiPmPNS0_7IsolateE
__ZN2v88internalL34Builtin_Impl_ReflectDefinePropertyENS0_16BuiltinArgumentsEPNS0_7IsolateE
__ZN2v88internal18PropertyDescriptor20ToPropertyDescriptorEPNS0_7IsolateENS0_6HandleINS0_6ObjectEEEPS1_
__ZN2v88internal6Object12BooleanValueEPNS0_7IsolateE
__ZN2v88internal10JSReceiver17DefineOwnPropertyEPNS0_7IsolateENS0_6HandleIS1_EENS4_INS0_6ObjectEEEPNS0_18PropertyDescriptorENS_5MaybeINS0_11ShouldThrowEEE
__ZN2v88internal10JSReceiver25OrdinaryDefineOwnPropertyEPNS0_7IsolateENS0_6HandleINS0_8JSObjectEEENS4_INS0_6ObjectEEEPNS0_18PropertyDescriptorENS_5MaybeINS0_11ShouldThrowEEE
__ZN2v88internal10JSReceiver25OrdinaryDefineOwnPropertyEPNS0_14LookupIteratorEPNS0_18PropertyDescriptorENS_5MaybeINS0_11ShouldThrowEEE
__ZN2v88internal14LookupIterator15RestartInternalILb0EEEvNS1_16InterceptorStateE
__ZN2v88internal8JSObject12IsExtensibleENS0_6HandleIS1_EE
__ZN2v88internal10JSReceiver34ValidateAndApplyPropertyDescriptorEPNS0_7IsolateEPNS0_14LookupIteratorEbPNS0_18PropertyDescriptorES7_NS_5MaybeINS0_11ShouldThrowEEENS0_6HandleINS0_4NameEEE
__ZN2v88internal7Factory9ToBooleanEb
__ZN2v88internal12AccessorPair12GetComponentEPNS0_7IsolateENS0_6HandleINS0_13NativeContextEEENS4_IS1_EENS0_17AccessorComponentE
__ZN2v88internal7Isolate32accessor_property_descriptor_mapEv
__ZN2v88internal10JSReceiver11HasPropertyEPNS0_14LookupIteratorE
__ZN2v88internal31Runtime_BytecodeBudgetInterruptEiPmPNS0_7IsolateE
__ZN2v88internalL41__RT_impl_Runtime_BytecodeBudgetInterruptENS0_9ArgumentsEPNS0_7IsolateE
__ZN2v88internal10JSFunction20EnsureFeedbackVectorENS0_6HandleIS1_EE
__ZN2v88internal14FeedbackVector3NewEPNS0_7IsolateENS0_6HandleINS0_18SharedFunctionInfoEEENS4_INS0_24ClosureFeedbackCellArrayEEE
__ZN2v88internal7Factory17NewFeedbackVectorENS0_6HandleINS0_18SharedFunctionInfoEEENS2_INS0_24ClosureFeedbackCellArrayEEE
__ZN2v88internal14FeedbackVector30set_optimized_code_weak_or_smiENS0_11MaybeObjectENS0_16WriteBarrierModeE
__ZN2v88internal14FeedbackVector3setEiNS0_11MaybeObjectENS0_16WriteBarrierModeE
__ZN2v88internal19Runtime_LoadIC_MissEiPmPNS0_7IsolateE
__ZN2v88internalL29__RT_impl_Runtime_LoadIC_MissENS0_9ArgumentsEPNS0_7IsolateE
__ZNK2v88internal14FeedbackVector7GetKindENS0_12FeedbackSlotE
__ZNK2v88internal13FeedbackNexus8ic_stateEv
__ZNK2v88internal13FeedbackNexus11GetFeedbackEv
__ZN2v88internal6LoadIC12UpdateCachesEPNS0_14LookupIteratorE
__ZN2v88internal6LoadIC14ComputeHandlerEPNS0_14LookupIteratorE
__ZNK2v88internal14LookupIterator13GetFieldIndexEv
__ZN2v88internal2IC8SetCacheENS0_6HandleINS0_4NameEEERKNS0_17MaybeObjectHandleE
__ZN2v88internal2IC9IsHandlerENS0_11MaybeObjectE
__ZN2v88internal2IC19UpdateMonomorphicICERKNS0_17MaybeObjectHandleENS0_6HandleINS0_4NameEEE
__ZN2v88internal13FeedbackNexus20ConfigureMonomorphicENS0_6HandleINS0_4NameEEENS2_INS0_3MapEEERKNS0_17MaybeObjectHandleE
__ZN2v88internal2IC17OnFeedbackChangedEPNS0_7IsolateENS0_14FeedbackVectorENS0_12FeedbackSlotEPKc
__ZNK2v88internal13FeedbackNexus16GetFeedbackExtraEv
__ZN2v88internal14LookupIterator23TryLookupCachedPropertyEv
__ZNK2v88internal14LookupIterator15GetPropertyCellEv
__ZN2v88internal13FeedbackNexus25ConfigurePropertyCellModeENS0_6HandleINS0_12PropertyCellEEE
__ZN2v88internal13FeedbackNexus16SetFeedbackExtraENS0_6ObjectENS0_16WriteBarrierModeE
__ZN2v88internal7Isolate14IsInAnyContextENS0_6ObjectEj
__ZN2v88internal11LoadHandler17LoadFromPrototypeEPNS0_7IsolateENS0_6HandleINS0_3MapEEENS4_INS0_10JSReceiverEEENS4_INS0_3SmiEEENS0_17MaybeObjectHandleESB_
__ZN2v88internal12_GLOBAL__N_118GetHandlerDataSizeINS0_11LoadHandlerEEEiPNS0_7IsolateEPNS0_6HandleINS0_3SmiEEENS6_INS0_3MapEEENS6_INS0_10JSReceiverEEENS0_17MaybeObjectHandleESE_
__ZN2v88internal3Map24GetOrCreatePrototypeInfoENS0_6HandleINS0_8JSObjectEEEPNS0_7IsolateE
__ZN2v88internal14PrototypeUsers3AddEPNS0_7IsolateENS0_6HandleINS0_13WeakArrayListEEENS4_INS0_3MapEEEPi
__ZN2v88internal7Factory24CopyWeakArrayListAndGrowENS0_6HandleINS0_13WeakArrayListEEEiNS0_14AllocationTypeE
__ZN2v88internal13WeakArrayList12CopyElementsEPNS0_7IsolateEiS1_iiNS0_16WriteBarrierModeE
__ZN2v88internal7Factory14NewLoadHandlerEiNS0_14AllocationTypeE
__ZN2v88internal12_GLOBAL__N_119InitPrototypeChecksINS0_11LoadHandlerEEEvPNS0_7IsolateENS0_6HandleIT_EENS6_INS0_3MapEEENS6_INS0_10JSReceiverEEENS0_17MaybeObjectHandleESD_
__ZN2v88internal11DataHandler9set_data1ENS0_11MaybeObjectENS0_16WriteBarrierModeE
__ZN2v88internal9Accessors20FunctionLengthGetterENS_5LocalINS_4NameEEERKNS_20PropertyCallbackInfoINS_5ValueEEE
__ZN2v88internal9Accessors18FunctionNameGetterENS_5LocalINS_4NameEEERKNS_20PropertyCallbackInfoINS_5ValueEEE
__ZN2v88internal10JSFunction7GetNameEPNS0_7IsolateENS0_6HandleIS1_EE
__ZN2v88internal8JSObject19NormalizePropertiesEPNS0_7IsolateENS0_6HandleIS1_EENS0_25PropertyNormalizationModeEiPKc
__ZN2v88internal3Map9NormalizeEPNS0_7IsolateENS0_6HandleIS1_EENS0_12ElementsKindENS0_25PropertyNormalizationModeEPKc
__ZN2v88internal3Map14CopyNormalizedEPNS0_7IsolateENS0_6HandleIS1_EENS0_25PropertyNormalizationModeE
__ZN2v88internal3Map27IsPrototypeChainInvalidatedES1_
__ZN2v88internal18BaseNameDictionaryINS0_14NameDictionaryENS0_19NameDictionaryShapeEE3NewEPNS0_7IsolateEiNS0_14AllocationTypeENS0_15MinimumCapacityE
__ZN2v88internal9HashTableINS0_14NameDictionaryENS0_19NameDictionaryShapeEE3NewEPNS0_7IsolateEiNS0_14AllocationTypeENS0_15MinimumCapacityE
__ZN2v88internal9HashTableINS0_14NameDictionaryENS0_19NameDictionaryShapeEE11NewInternalEPNS0_7IsolateEiNS0_14AllocationTypeE
__ZN2v88internal9HashTableINS0_14NameDictionaryENS0_19NameDictionaryShapeEE11SetCapacityEi
__ZN2v88internal37Runtime_JSReceiverSetPrototypeOfThrowEiPmPNS0_7IsolateE
__ZN2v88internalL47__RT_impl_Runtime_JSReceiverSetPrototypeOfThrowENS0_9ArgumentsEPNS0_7IsolateE
__ZN2v88internal7Isolate32IsArrayOrObjectOrStringPrototypeENS0_6ObjectE
__ZN2v88internal20Builtin_ObjectFreezeEiPmPNS0_7IsolateE
__ZN2v88internalL25Builtin_Impl_ObjectFreezeENS0_16BuiltinArgumentsEPNS0_7IsolateE
__ZN2v88internal10JSReceiver17SetIntegrityLevelENS0_6HandleIS1_EENS0_18PropertyAttributesENS0_11ShouldThrowE
__ZN2v88internal8JSObject18TestIntegrityLevelENS0_6HandleIS1_EENS0_18PropertyAttributesE
__ZN2v88internal8JSObject31PreventExtensionsWithTransitionILNS0_18PropertyAttributesE5EEENS_5MaybeIbEENS0_6HandleIS1_EENS0_11ShouldThrowE
__ZN2v88internal3Map6UpdateEPNS0_7IsolateENS0_6HandleIS1_EE
__ZN2v88internal19TransitionsAccessor13SearchSpecialENS0_6SymbolE
__ZN2v88internal3Map24CopyForPreventExtensionsEPNS0_7IsolateENS0_6HandleIS1_EENS0_18PropertyAttributesENS4_INS0_6SymbolEEEPKcb
__ZN2v88internal15DescriptorArray21CopyUpToAddAttributesEPNS0_7IsolateENS0_6HandleIS1_EEiNS0_18PropertyAttributesEi
__ZN2v88internal3Map15ShareDescriptorEPNS0_7IsolateENS0_6HandleIS1_EENS4_INS0_15DescriptorArrayEEEPNS0_10DescriptorE
__ZN2v88internal3Map21EnsureDescriptorSlackEPNS0_7IsolateENS0_6HandleIS1_EEi
__ZN2v88internal3Map17UpdateDescriptorsEPNS0_7IsolateENS0_15DescriptorArrayENS0_16LayoutDescriptorEi
__ZN2v88internal16LayoutDescriptor11ShareAppendEPNS0_7IsolateENS0_6HandleINS0_3MapEEENS0_15PropertyDetailsE
__ZNK2v88internal10JSReceiver19property_dictionaryEPNS0_7IsolateE
__ZN2v88internal10DictionaryINS0_14NameDictionaryENS0_19NameDictionaryShapeEE9DetailsAtENS0_13InternalIndexE
__ZN2v88internal7Factory24CopyPropertyArrayAndGrowENS0_6HandleINS0_13PropertyArrayEEEi
__ZN2v88internal7Factory16CopyArrayAndGrowINS0_13PropertyArrayEEENS0_6HandleIT_EES6_iNS0_14AllocationTypeE
__ZN2v88internal13PropertyArray12CopyElementsEPNS0_7IsolateEiS1_iiNS0_16WriteBarrierModeE
__ZN2v88internal26Runtime_CreateArrayLiteralEiPmPNS0_7IsolateE
__ZN2v88internalL36__RT_impl_Runtime_CreateArrayLiteralENS0_9ArgumentsEPNS0_7IsolateE
__ZN2v88internal12_GLOBAL__N_134CreateLiteralWithoutAllocationSiteINS1_18ArrayLiteralHelperEEENS0_11MaybeHandleINS0_8JSObjectEEEPNS0_7IsolateENS0_6HandleINS0_10HeapObjectEEEi
__ZN2v88internal12_GLOBAL__N_118CreateArrayLiteralEPNS0_7IsolateENS0_6HandleINS0_27ArrayBoilerplateDescriptionEEENS0_14AllocationTypeE
__ZN2v88internal16DeclarationScope19DeserializeReceiverEPNS0_15AstValueFactoryE
__ZN2v88internal11interpreter20BytecodeArrayBuilder18StoreKeyedPropertyENS1_8RegisterES3_iNS0_12LanguageModeE
__ZN2v88internal11interpreter19BytecodeNodeBuilderILNS1_8BytecodeE48ELNS1_14AccumulatorUseE3EJLNS1_11OperandTypeE9ELS5_9ELS5_5EEE4MakeIJNS1_8RegisterES8_iEEENS1_12BytecodeNodeEPNS1_20BytecodeArrayBuilderEDpT_
__ZN2v88internal11interpreter12BytecodeNode6CreateILNS1_8BytecodeE48ELNS1_14AccumulatorUseE3ELNS1_11OperandTypeE9ELS6_9ELS6_5EEES2_NS1_18BytecodeSourceInfoEjjj
__ZN2v88internal11interpreter20BytecodeArrayBuilder17LoadKeyedPropertyENS1_8RegisterEi
__ZN2v88internal11interpreter19BytecodeNodeBuilderILNS1_8BytecodeE42ELNS1_14AccumulatorUseE3EJLNS1_11OperandTypeE9ELS5_5EEE4MakeIJNS1_8RegisterEiEEENS1_12BytecodeNodeEPNS1_20BytecodeArrayBuilderEDpT_
__ZN2v88internal11interpreter12BytecodeNode6CreateILNS1_8BytecodeE42ELNS1_14AccumulatorUseE3ELNS1_11OperandTypeE9ELS6_5EEES2_NS1_18BytecodeSourceInfoEjj
__ZN2v88internal24Runtime_SetKeyedPropertyEiPmPNS0_7IsolateE
__ZN2v88internalL34__RT_impl_Runtime_SetKeyedPropertyENS0_9ArgumentsEPNS0_7IsolateE
__ZN2v88internal19Runtime_GetPropertyEiPmPNS0_7IsolateE
__ZN2v88internalL29__RT_impl_Runtime_GetPropertyENS0_9ArgumentsEPNS0_7IsolateE
__ZNK2v88internal14LookupIterator9HasAccessEv
__ZN2v88internal7Isolate9MayAccessENS0_6HandleINS0_7ContextEEENS2_INS0_8JSObjectEEE
__ZN2v88internal14LookupIterator4NextEv
__ZNK2v88internal18BaseNameDictionaryINS0_14NameDictionaryENS0_19NameDictionaryShapeEE4HashEv
__ZN2v88internal16OrderedHashTableINS0_14OrderedHashSetELi1EE6RehashEPNS0_7IsolateENS0_6HandleIS2_EEi
__ZN2v88internal6Object7GetHashEv
__ZN2v88internal9HashTableINS0_14NameDictionaryENS0_19NameDictionaryShapeEE6RehashENS0_13ReadOnlyRootsES2_
__ZN2v88internal4Heap9CopyRangeINS0_14FullObjectSlotEEEvNS0_10HeapObjectET_S5_iNS0_16WriteBarrierModeE
__ZN2v88internal6Parser33BuildParameterInitializationBlockERKNS0_22ParserFormalParametersE
__ZN2v88internal10ParserBaseINS0_6ParserEE43ParseMemberWithPresentNewPrefixesExpressionEv
__ZN2v88internal10ParserBaseINS0_6ParserEE24ParseNewTargetExpressionEv
__ZN2v88internal10ParserBaseINS0_6ParserEE23ExpectContextualKeywordEPKNS0_12AstRawStringEPKci
__ZN2v88internal10ParserBaseINS0_6ParserEE28ParseConditionalContinuationEPNS0_10ExpressionEi
__ZN2v88internal10ParserBaseINS0_6ParserEE7UseThisEv
__ZN2v88internal8Variable23ForceHoleInitializationEv
__ZN2v88internal11interpreter19BytecodeNodeBuilderILNS1_8BytecodeE25ELNS1_14AccumulatorUseE2EJLNS1_11OperandTypeE9ELS5_5ELS5_6EEE4MakeIJNS1_8RegisterEiiEEENS1_12BytecodeNodeEPNS1_20BytecodeArrayBuilderEDpT_
__ZN2v88internal11interpreter12BytecodeNode6CreateILNS1_8BytecodeE25ELNS1_14AccumulatorUseE2ELNS1_11OperandTypeE9ELS6_5ELS6_6EEES2_NS1_18BytecodeSourceInfoEjjj
__ZN2v88internal11interpreter17BytecodeGenerator18VisitObjectLiteralEPNS0_13ObjectLiteralE
__ZN2v88internal13ObjectLiteral17InitDepthAndFlagsEv
__ZNK2v88internal13ObjectLiteral22IsFastCloningSupportedEv
__ZN2v88internal11interpreter24CreateObjectLiteralFlags6EncodeEib
__ZN2v88internal11interpreter20BytecodeArrayBuilder50EmptyObjectBoilerplateDescriptionConstantPoolEntryEv
__ZN2v88internal11interpreter20ConstantArrayBuilder39InsertEmptyObjectBoilerplateDescriptionEv
__ZN2v88internal11interpreter17BytecodeGenerator24BuildCreateObjectLiteralENS1_8RegisterEhm
__ZN2v88internal11interpreter20BytecodeArrayBuilder19CreateObjectLiteralEmii
__ZN2v88internal11interpreter19BytecodeNodeBuilderILNS1_8BytecodeE125ELNS1_14AccumulatorUseE2EJLNS1_11OperandTypeE5ELS5_5ELS5_1EEE4MakeIJmiiEEENS1_12BytecodeNodeEPNS1_20BytecodeArrayBuilderEDpT_
__ZN2v88internal11interpreter12BytecodeNode6CreateILNS1_8BytecodeE125ELNS1_14AccumulatorUseE2ELNS1_11OperandTypeE5ELS6_5ELS6_1EEES2_NS1_18BytecodeSourceInfoEjjj
__ZN2v88internal11interpreter17BytecodeGenerator20BuildLoadPropertyKeyEPNS0_15LiteralPropertyENS1_8RegisterE
__ZNK2v88internal10Expression15IsStringLiteralEv
__ZN2v88internal11interpreter20BytecodeArrayBuilder6ToNameENS1_8RegisterE
__ZN2v88internal11interpreter20BytecodeArrayBuilder12OutputToNameIJNS1_8RegisterEEEEvDpT_
__ZN2v88internal11interpreter12BytecodeNode6CreateILNS1_8BytecodeE116ELNS1_14AccumulatorUseE1ELNS1_11OperandTypeE12EEES2_NS1_18BytecodeSourceInfoEj
__ZN2v88internal11interpreter20BytecodeArrayBuilder26StoreDataPropertyInLiteralENS1_8RegisterES3_NS_4base5FlagsINS0_25DataPropertyInLiteralFlagEiEEi
__ZN2v88internal11interpreter19BytecodeNodeBuilderILNS1_8BytecodeE50ELNS1_14AccumulatorUseE1EJLNS1_11OperandTypeE9ELS5_9ELS5_1ELS5_5EEE4MakeIJNS1_8RegisterES8_NS_4base5FlagsINS0_25DataPropertyInLiteralFlagEiEEiEEENS1_12BytecodeNodeEPNS1_20BytecodeArrayBuilderEDpT_
__ZN2v88internal11interpreter12BytecodeNode6CreateILNS1_8BytecodeE50ELNS1_14AccumulatorUseE1ELNS1_11OperandTypeE9ELS6_9ELS6_1ELS6_5EEES2_NS1_18BytecodeSourceInfoEjjjj
__ZN2v88internal11interpreter17BytecodeGenerator20VisitBinaryOperationEPNS0_15BinaryOperationE
__ZN2v88internal11interpreter17BytecodeGenerator25VisitArithmeticExpressionEPNS0_15BinaryOperationE
__ZN2v88internal15BinaryOperation21IsSmiLiteralOperationEPPNS0_10ExpressionEPNS0_3SmiE
__ZN2v88internal11interpreter20BytecodeArrayBuilder15BinaryOperationENS0_5Token5ValueENS1_8RegisterEi
__ZN2v88internal11interpreter19BytecodeNodeBuilderILNS1_8BytecodeE52ELNS1_14AccumulatorUseE3EJLNS1_11OperandTypeE9ELS5_5EEE4MakeIJNS1_8RegisterEiEEENS1_12BytecodeNodeEPNS1_20BytecodeArrayBuilderEDpT_
__ZN2v88internal11interpreter12BytecodeNode6CreateILNS1_8BytecodeE52ELNS1_14AccumulatorUseE3ELNS1_11OperandTypeE9ELS6_5EEES2_NS1_18BytecodeSourceInfoEjj
__ZN2v88internal27Runtime_CreateObjectLiteralEiPmPNS0_7IsolateE
__ZN2v88internalL37__RT_impl_Runtime_CreateObjectLiteralENS0_9ArgumentsEPNS0_7IsolateE
__ZN2v88internal12_GLOBAL__N_134CreateLiteralWithoutAllocationSiteINS1_19ObjectLiteralHelperEEENS0_11MaybeHandleINS0_8JSObjectEEEPNS0_7IsolateENS0_6HandleINS0_10HeapObjectEEEi
__ZN2v88internal12_GLOBAL__N_119CreateObjectLiteralEPNS0_7IsolateENS0_6HandleINS0_28ObjectBoilerplateDescriptionEEEiNS0_14AllocationTypeE
__ZNK2v88internal28ObjectBoilerplateDescription4sizeEv
__ZN2v88internal7Factory25ObjectLiteralMapFromCacheENS0_6HandleINS0_13NativeContextEEEi
__ZN2v88internal35Runtime_DefineDataPropertyInLiteralEiPmPNS0_7IsolateE
