Certificate:
    Data:
        Version: 3 (0x2)
        Serial Number: 4097 (0x1001)
    Signature Algorithm: sha256WithRSAEncryption
        Issuer: CN=Root CA
        Validity
            Not Before: Apr 18 16:14:29 2016 GMT
            Not After : Apr 16 16:14:29 2026 GMT
        Subject: CN=Intermediate CA
        Subject Public Key Info:
            Public Key Algorithm: rsaEncryption
                Public-Key: (2048 bit)
                Modulus:
                    00:b6:42:02:13:25:40:13:a6:05:99:69:da:0c:c9:
                    a8:bf:86:3b:fc:c6:51:ba:64:65:7e:33:11:31:d5:
                    03:45:30:4c:ca:49:d2:96:42:52:2f:f9:e6:6c:9a:
                    50:1c:fe:fa:e2:e8:63:36:14:47:f7:49:9f:78:28:
                    5e:1f:0b:9d:9e:f8:d3:33:77:06:4d:6d:14:c0:57:
                    01:83:2b:ef:99:06:48:21:ec:c1:d7:05:48:2c:ea:
                    83:06:6a:20:df:73:ce:8a:a5:e4:81:00:41:84:cf:
                    89:81:78:2e:3a:bd:1b:fd:3e:96:08:8d:44:1b:00:
                    c8:d6:4e:7a:6a:75:c0:9b:3c:e0:fa:aa:3a:82:5b:
                    3c:39:32:ca:4a:ba:82:bc:60:47:6f:e4:4a:fd:dc:
                    a0:72:8a:1b:fe:cd:2e:10:f4:27:4c:08:4e:d1:ed:
                    dc:08:b0:f8:1f:e4:fc:45:72:43:58:6e:dd:05:37:
                    8c:04:a1:fb:64:f4:3f:90:bb:85:f2:4c:97:46:fd:
                    1f:29:e5:19:d0:0f:24:fd:d1:00:c5:b6:be:da:84:
                    62:77:be:db:67:f6:ec:98:5d:97:f5:df:0a:bd:b8:
                    07:7f:0a:d5:92:29:1f:c4:b0:97:4f:e4:87:d7:a9:
                    00:c9:61:d5:6c:cd:6a:fc:56:c3:f3:b7:ca:53:70:
                    02:3f
                Exponent: 65537 (0x10001)
        X509v3 extensions:
            X509v3 Subject Key Identifier: 
                A9:75:99:CF:9C:92:54:A4:4B:65:CD:3D:FC:93:98:8D:9E:09:1F:47
            X509v3 Authority Key Identifier: 
                keyid:E3:51:87:E3:CD:7A:B3:26:9F:8F:EC:62:D1:0E:15:0C:39:36:47:4F

            X509v3 Basic Constraints: critical
                CA:TRUE, pathlen:0
            X509v3 Key Usage: critical
                Digital Signature, Certificate Sign, CRL Sign
    Signature Algorithm: sha256WithRSAEncryption
         55:69:d6:1d:33:ad:ab:40:46:fd:34:02:c1:43:50:7b:90:ea:
         f3:5f:4f:b6:2c:28:aa:72:e0:4b:36:2e:8f:44:93:15:52:14:
         f6:61:b3:50:e0:ba:43:91:ba:a9:5d:ac:43:b7:52:ca:91:a3:
         d7:0e:ac:a7:9e:ee:28:7f:2d:0f:93:b5:d9:23:35:68:54:29:
         2a:e7:3a:4c:41:24:d0:5e:2d:f3:1e:b9:52:f1:3e:16:76:93:
         89:6d:a1:4c:63:f5:4a:cc:08:36:61:29:0a:29:5f:f4:5a:55:
         98:10:b3:de:b3:90:f9:03:e5:bd:1b:61:01:a7:22:03:ae:0f:
         77:c4:a8:bf:31:b4:af:c8:c7:e3:25:a1:2b:b9:43:37:3b:08:
         ea:c4:46:60:b8:5f:ee:2a:0d:ce:18:75:63:ba:32:28:84:f4:
         56:95:1b:c5:f9:46:7e:14:2e:83:5e:a9:ff:b2:80:ca:25:fd:
         22:90:b5:de:bd:e6:f1:0c:ee:7e:09:71:0d:82:6a:ca:2f:9c:
         96:45:73:3a:65:bc:d8:9d:e0:61:01:5d:a8:de:de:61:8c:82:
         52:0c:ef:97:39:b3:13:c6:7d:d0:c0:f5:6d:c8:70:5b:96:e8:
         99:31:d8:75:3a:21:58:ab:01:21:9e:38:8e:53:ff:f8:48:a7:
         af:01:9a:93
-----BEGIN CERTIFICATE-----
MIIDDjCCAfagAwIBAgICEAEwDQYJKoZIhvcNAQELBQAwEjEQMA4GA1UEAwwHUm9v
dCBDQTAeFw0xNjA0MTgxNjE0MjlaFw0yNjA0MTYxNjE0MjlaMBoxGDAWBgNVBAMM
D0ludGVybWVkaWF0ZSBDQTCCASIwDQYJKoZIhvcNAQEBBQADggEPADCCAQoCggEB
ALZCAhMlQBOmBZlp2gzJqL+GO/zGUbpkZX4zETHVA0UwTMpJ0pZCUi/55myaUBz+
+uLoYzYUR/dJn3goXh8LnZ740zN3Bk1tFMBXAYMr75kGSCHswdcFSCzqgwZqIN9z
zoql5IEAQYTPiYF4Ljq9G/0+lgiNRBsAyNZOemp1wJs84PqqOoJbPDkyykq6grxg
R2/kSv3coHKKG/7NLhD0J0wITtHt3Aiw+B/k/EVyQ1hu3QU3jASh+2T0P5C7hfJM
l0b9HynlGdAPJP3RAMW2vtqEYne+22f27Jhdl/XfCr24B38K1ZIpH8Swl0/kh9ep
AMlh1WzNavxWw/O3ylNwAj8CAwEAAaNmMGQwHQYDVR0OBBYEFKl1mc+cklSkS2XN
PfyTmI2eCR9HMB8GA1UdIwQYMBaAFONRh+PNerMmn4/sYtEOFQw5NkdPMBIGA1Ud
EwEB/wQIMAYBAf8CAQAwDgYDVR0PAQH/BAQDAgGGMA0GCSqGSIb3DQEBCwUAA4IB
AQBVadYdM62rQEb9NALBQ1B7kOrzX0+2LCiqcuBLNi6PRJMVUhT2YbNQ4LpDkbqp
XaxDt1LKkaPXDqynnu4ofy0Pk7XZIzVoVCkq5zpMQSTQXi3zHrlS8T4WdpOJbaFM
Y/VKzAg2YSkKKV/0WlWYELPes5D5A+W9G2EBpyIDrg93xKi/MbSvyMfjJaEruUM3
OwjqxEZguF/uKg3OGHVjujIohPRWlRvF+UZ+FC6DXqn/soDKJf0ikLXevebxDO5+
CXENgmrKL5yWRXM6ZbzYneBhAV2o3t5hjIJSDO+XObMTxn3QwPVtyHBbluiZMdh1
OiFYqwEhnjiOU//4SKevAZqT
-----END CERTIFICATE-----
