Certificate:
    Data:
        Version: 3 (0x2)
        Serial Number: 4097 (0x1001)
    Signature Algorithm: sha256WithRSAEncryption
        Issuer: CN=Intermediate CA
        Validity
            Not Before: Apr 18 16:14:29 2016 GMT
            Not After : Apr 16 16:14:29 2026 GMT
        Subject: CN=localhost
        Subject Public Key Info:
            Public Key Algorithm: rsaEncryption
                Public-Key: (2048 bit)
                Modulus:
                    00:b8:1c:a4:ec:86:fa:6a:7c:f4:c4:e1:51:ab:2a:
                    20:1a:c4:d3:10:00:06:76:ea:ae:21:c9:15:15:a8:
                    c3:1e:b9:3b:bd:da:be:4d:f9:64:0e:9f:94:85:b2:
                    12:aa:ed:6b:8f:43:ae:6a:a3:83:c6:23:d2:4b:0e:
                    5f:1c:29:6a:34:aa:63:84:74:b5:af:2f:3a:92:74:
                    bc:e3:b0:46:c2:b0:72:63:4a:1a:cc:17:4d:d1:48:
                    2d:5a:25:ce:2b:e8:82:b9:22:3d:a7:42:92:20:e4:
                    49:dd:8e:f4:a5:46:66:9b:5d:84:1d:1c:1b:d2:d0:
                    0d:bf:8a:20:63:18:c0:c7:09:f2:a9:88:27:3e:7a:
                    c3:b2:8c:82:87:f0:9b:e0:5b:bc:5e:e7:2b:9d:ea:
                    58:6c:89:d7:8b:ac:8e:77:04:ee:8a:f4:f1:f6:ac:
                    bb:b6:54:33:bd:82:76:2c:b1:14:20:97:41:b4:25:
                    19:75:99:31:93:2f:42:25:46:df:bb:9a:e6:e8:f1:
                    6f:6c:b2:08:e5:80:92:96:95:cb:c6:0f:5b:ba:66:
                    42:47:5c:fd:21:71:3a:ac:b6:1c:24:8a:77:1c:8a:
                    ae:47:67:0d:b4:0b:3d:33:c3:87:b9:1e:55:ea:f8:
                    54:1b:9d:5b:3f:76:93:92:0d:da:b0:95:5d:51:ed:
                    74:77
                Exponent: 65537 (0x10001)
        X509v3 extensions:
            X509v3 Basic Constraints: 
                CA:FALSE
            Netscape Cert Type: 
                SSL Server
            Netscape Comment: 
                OpenSSL Generated Server Certificate
            X509v3 Subject Key Identifier: 
                1D:60:82:FA:3A:EC:27:91:BA:8D:F5:ED:B2:E3:85:0B:22:5A:8E:38
            X509v3 Authority Key Identifier: 
                keyid:A9:75:99:CF:9C:92:54:A4:4B:65:CD:3D:FC:93:98:8D:9E:09:1F:47
                DirName:/CN=Root CA
                serial:10:01

            X509v3 Key Usage: critical
                Digital Signature, Key Encipherment
            X509v3 Extended Key Usage: 
                TLS Web Server Authentication
    Signature Algorithm: sha256WithRSAEncryption
         89:90:3d:2c:b8:0d:36:63:68:9a:cd:f9:14:56:94:d9:18:11:
         b5:08:35:af:f9:34:cd:70:db:7d:66:06:e3:57:9b:06:8f:11:
         d6:ea:ac:a6:07:db:ae:a2:c0:66:69:84:d8:2d:3c:cc:d7:4d:
         3c:75:60:4f:98:fc:56:df:30:39:c6:55:2c:73:92:9e:0c:b5:
         7c:75:40:5d:21:aa:01:c1:8a:03:86:eb:d7:02:7d:f5:7b:12:
         cc:18:90:23:ad:8f:d7:05:18:6d:f0:11:a8:6b:27:fd:4c:07:
         07:53:f5:7f:f7:a2:e5:18:1e:4e:90:1b:10:5f:f3:5c:cb:c7:
         37:63:d0:d5:1d:3a:65:66:24:ee:0e:ce:7f:b1:fb:ee:17:d0:
         b5:4d:64:2f:5a:9c:bc:7a:1c:c0:b4:0f:32:c9:a9:5c:cb:57:
         26:fd:49:39:8d:f2:89:54:c4:92:b5:35:ec:fe:cf:87:07:a6:
         84:01:98:00:e4:2a:44:26:b7:48:00:11:d3:e4:5a:c1:ad:46:
         36:53:f9:28:b7:e4:c5:bb:66:88:ab:8e:cc:30:d0:96:aa:3e:
         c1:12:6a:8f:fa:6d:19:15:f4:90:66:54:62:84:97:06:2d:5c:
         b9:18:71:90:f4:ca:4c:8c:a5:8b:32:14:93:89:f1:93:f4:00:
         bd:1d:42:4f
-----BEGIN CERTIFICATE-----
MIIDgjCCAmqgAwIBAgICEAEwDQYJKoZIhvcNAQELBQAwGjEYMBYGA1UEAwwPSW50
ZXJtZWRpYXRlIENBMB4XDTE2MDQxODE2MTQyOVoXDTI2MDQxNjE2MTQyOVowFDES
MBAGA1UEAwwJbG9jYWxob3N0MIIBIjANBgkqhkiG9w0BAQEFAAOCAQ8AMIIBCgKC
AQEAuByk7Ib6anz0xOFRqyogGsTTEAAGduquIckVFajDHrk7vdq+TflkDp+UhbIS
qu1rj0OuaqODxiPSSw5fHClqNKpjhHS1ry86knS847BGwrByY0oazBdN0UgtWiXO
K+iCuSI9p0KSIORJ3Y70pUZmm12EHRwb0tANv4ogYxjAxwnyqYgnPnrDsoyCh/Cb
4Fu8XucrnepYbInXi6yOdwTuivTx9qy7tlQzvYJ2LLEUIJdBtCUZdZkxky9CJUbf
u5rm6PFvbLII5YCSlpXLxg9bumZCR1z9IXE6rLYcJIp3HIquR2cNtAs9M8OHuR5V
6vhUG51bP3aTkg3asJVdUe10dwIDAQABo4HXMIHUMAkGA1UdEwQCMAAwEQYJYIZI
AYb4QgEBBAQDAgZAMDMGCWCGSAGG+EIBDQQmFiRPcGVuU1NMIEdlbmVyYXRlZCBT
ZXJ2ZXIgQ2VydGlmaWNhdGUwHQYDVR0OBBYEFB1ggvo67CeRuo317bLjhQsiWo44
MDsGA1UdIwQ0MDKAFKl1mc+cklSkS2XNPfyTmI2eCR9HoRakFDASMRAwDgYDVQQD
DAdSb290IENBggIQATAOBgNVHQ8BAf8EBAMCBaAwEwYDVR0lBAwwCgYIKwYBBQUH
AwEwDQYJKoZIhvcNAQELBQADggEBAImQPSy4DTZjaJrN+RRWlNkYEbUINa/5NM1w
231mBuNXmwaPEdbqrKYH266iwGZphNgtPMzXTTx1YE+Y/FbfMDnGVSxzkp4MtXx1
QF0hqgHBigOG69cCffV7EswYkCOtj9cFGG3wEahrJ/1MBwdT9X/3ouUYHk6QGxBf
81zLxzdj0NUdOmVmJO4Ozn+x++4X0LVNZC9anLx6HMC0DzLJqVzLVyb9STmN8olU
xJK1Nez+z4cHpoQBmADkKkQmt0gAEdPkWsGtRjZT+Si35MW7Zoirjsww0JaqPsES
ao/6bRkV9JBmVGKElwYtXLkYcZD0ykyMpYsyFJOJ8ZP0AL0dQk8=
-----END CERTIFICATE-----
